
C:\Users\Kirpich\AppData\Local\arduino\sketches\9DBFD836FFFD8CE5C6C1232C1A936220/Arduino_v4_61.ino.elf:     file format elf32-avr


Disassembly of section .text:

00000000 <__vectors>:
__vectors():
       0:	0c 94 09 03 	jmp	0x612	; 0x612 <__dtors_end>
       4:	0c 94 31 03 	jmp	0x662	; 0x662 <__bad_interrupt>
       8:	0c 94 31 03 	jmp	0x662	; 0x662 <__bad_interrupt>
       c:	0c 94 53 19 	jmp	0x32a6	; 0x32a6 <__vector_3>
      10:	0c 94 53 19 	jmp	0x32a6	; 0x32a6 <__vector_3>
      14:	0c 94 53 19 	jmp	0x32a6	; 0x32a6 <__vector_3>
      18:	0c 94 31 03 	jmp	0x662	; 0x662 <__bad_interrupt>
      1c:	0c 94 31 03 	jmp	0x662	; 0x662 <__bad_interrupt>
      20:	0c 94 31 03 	jmp	0x662	; 0x662 <__bad_interrupt>
      24:	0c 94 31 03 	jmp	0x662	; 0x662 <__bad_interrupt>
      28:	0c 94 31 03 	jmp	0x662	; 0x662 <__bad_interrupt>
      2c:	0c 94 31 03 	jmp	0x662	; 0x662 <__bad_interrupt>
      30:	0c 94 31 03 	jmp	0x662	; 0x662 <__bad_interrupt>
      34:	0c 94 31 03 	jmp	0x662	; 0x662 <__bad_interrupt>
      38:	0c 94 31 03 	jmp	0x662	; 0x662 <__bad_interrupt>
      3c:	0c 94 31 03 	jmp	0x662	; 0x662 <__bad_interrupt>
      40:	0c 94 a2 18 	jmp	0x3144	; 0x3144 <__vector_16>
      44:	0c 94 31 03 	jmp	0x662	; 0x662 <__bad_interrupt>
      48:	0c 94 1b 19 	jmp	0x3236	; 0x3236 <__vector_18>
      4c:	0c 94 f5 18 	jmp	0x31ea	; 0x31ea <__vector_19>
      50:	0c 94 31 03 	jmp	0x662	; 0x662 <__bad_interrupt>
      54:	0c 94 31 03 	jmp	0x662	; 0x662 <__bad_interrupt>
      58:	0c 94 31 03 	jmp	0x662	; 0x662 <__bad_interrupt>
      5c:	0c 94 31 03 	jmp	0x662	; 0x662 <__bad_interrupt>
      60:	0c 94 31 03 	jmp	0x662	; 0x662 <__bad_interrupt>
      64:	0c 94 31 03 	jmp	0x662	; 0x662 <__bad_interrupt>

00000068 <__trampolines_end>:
__trampolines_start():
      68:	5c 52       	subi	r21, 0x2C	; 44
      6a:	d9 1c       	adc	r13, r9
      6c:	f3 82       	std	Z+3, r15	; 0x03
      6e:	ac a4       	ldd	r10, Y+44	; 0x2c
      70:	89 d8       	rcall	.-3822   	; 0xfffff184 <__eeprom_end+0xff7ef184>
      72:	81 78       	andi	r24, 0x81	; 129
      74:	ec 16       	cp	r14, r28
      76:	29 7b       	andi	r18, 0xB9	; 185
      78:	9d 4f       	sbci	r25, 0xFD	; 253
      7a:	50 fc       	sbrc	r5, 0
      7c:	e1 b6       	in	r14, 0x31	; 49
      7e:	8e 12       	cpse	r8, r30
      80:	09 30       	cpi	r16, 0x09	; 9
      82:	7d db       	rcall	.-2310   	; 0xfffff77e <__eeprom_end+0xff7ef77e>
      84:	a6 a5       	ldd	r26, Z+46	; 0x2e
      86:	b5 aa       	std	Z+53, r11	; 0x35
      88:	09 75       	andi	r16, 0x59	; 89
      8a:	98 88       	ldd	r9, Y+16	; 0x10
      8c:	64 ac       	ldd	r6, Z+60	; 0x3c
      8e:	f7 62       	ori	r31, 0x27	; 39
      90:	1b c0       	rjmp	.+54     	; 0xc8 <__trampolines_end+0x60>
      92:	90 9d       	mul	r25, r0
      94:	f0 fc       	sbrc	r15, 0
      96:	ab ff       	.word	0xffab	; ????
      98:	c9 11       	cpse	r28, r9
      9a:	5c e2       	ldi	r21, 0x2C	; 44
      9c:	06 4a       	sbci	r16, 0xA6	; 166
      9e:	26 86       	std	Z+14, r2	; 0x0e
      a0:	d8 d6       	rcall	.+3504   	; 0xe52 <SoftwareSerialParity::setRX(unsigned char)+0x1c>
      a2:	d9 d0       	rcall	.+434    	; 0x256 <challenge2_secret+0x56>
      a4:	8c de       	rcall	.-744    	; 0xfffffdbe <__eeprom_end+0xff7efdbe>
      a6:	30 59       	subi	r19, 0x90	; 144
      a8:	66 75       	andi	r22, 0x56	; 86
      aa:	39 d2       	rcall	.+1138   	; 0x51e <s_inv+0x74>
      ac:	fb 42       	sbci	r31, 0x2B	; 43
      ae:	73 b2       	in	r7, 0x13	; 19
      b0:	90 3f       	cpi	r25, 0xF0	; 240
      b2:	d7 a3       	std	Z+39, r29	; 0x27
      b4:	9e d2       	rcall	.+1340   	; 0x5f2 <digital_pin_to_bit_mask_PGM+0x13>
      b6:	c6 0c       	add	r12, r6
      b8:	f4 fa       	bst	r15, 4
      ba:	ef 20       	and	r14, r15
      bc:	f4 db       	rcall	.-2072   	; 0xfffff8a6 <__eeprom_end+0xff7ef8a6>
      be:	ab 31       	cpi	r26, 0x1B	; 27
      c0:	d1 86       	std	Z+9, r13	; 0x09
      c2:	74 fd       	sbrc	r23, 4
      c4:	8f 99       	sbic	0x11, 7	; 17
      c6:	05 66       	ori	r16, 0x65	; 101
      c8:	ea 0c       	add	r14, r10
      ca:	81 13       	cpse	r24, r17
      cc:	63 d7       	rcall	.+3782   	; 0xf94 <SoftwareSerialParity::listen()+0x8>
      ce:	e9 30       	cpi	r30, 0x09	; 9
      d0:	f9 61       	ori	r31, 0x19	; 25
      d2:	13 5a       	subi	r17, 0xA3	; 163
      d4:	4f 35       	cpi	r20, 0x5F	; 95
      d6:	2d dc       	rcall	.-1958   	; 0xfffff932 <__eeprom_end+0xff7ef932>
      d8:	0a 2e       	mov	r0, r26
      da:	73 30       	cpi	r23, 0x03	; 3
      dc:	5c 38       	cpi	r21, 0x8C	; 140
      de:	2d 4f       	sbci	r18, 0xFD	; 253
      e0:	31 0d       	add	r19, r1
      e2:	0a ed       	ldi	r16, 0xDA	; 218
      e4:	84 a4       	ldd	r8, Z+44	; 0x2c
      e6:	18 00       	.word	0x0018	; ????
      e8:	d2 04       	cpc	r13, r2
      ea:	74 30       	cpi	r23, 0x04	; 4
      ec:	8f e2       	ldi	r24, 0x2F	; 47
      ee:	69 04       	cpc	r6, r9
      f0:	6e d7       	rcall	.+3804   	; 0xfce <SoftwareSerialParity::listen()+0x42>
      f2:	bb 07       	cpc	r27, r27
      f4:	cf 1c       	adc	r12, r15
      f6:	ff 43       	sbci	r31, 0x3F	; 63
      f8:	ac 00       	.word	0x00ac	; ????
      fa:	c0 e3       	ldi	r28, 0x30	; 48
      fc:	e8 0a       	sbc	r14, r24
      fe:	f0 68       	ori	r31, 0x80	; 128
     100:	3f dd       	rcall	.-1410   	; 0xfffffb80 <__eeprom_end+0xff7efb80>
     102:	17 45       	sbci	r17, 0x57	; 87
     104:	19 45       	sbci	r17, 0x59	; 89
     106:	43 bd       	out	0x23, r20	; 35
     108:	01 77       	andi	r16, 0x71	; 113
     10a:	d7 50       	subi	r29, 0x07	; 7
     10c:	bd fd       	.word	0xfdbd	; ????
     10e:	2b c1       	rjmp	.+598    	; 0x366 <loop::__c+0x16>
     110:	a0 49       	sbci	r26, 0x90	; 144
     112:	3a 13       	cpse	r19, r26
     114:	4a 4c       	sbci	r20, 0xCA	; 202
     116:	6a cf       	rjmp	.-300    	; 0xffffffec <__eeprom_end+0xff7effec>
     118:	05 34       	cpi	r16, 0x45	; 69
     11a:	91 70       	andi	r25, 0x01	; 1
     11c:	93 93       	.word	0x9393	; ????
     11e:	45 ee       	ldi	r20, 0xE5	; 229
     120:	95 1a       	sub	r9, r21
     122:	14 84       	ldd	r1, Z+12	; 0x0c
     124:	33 34       	cpi	r19, 0x43	; 67
     126:	a0 de       	rcall	.-704    	; 0xfffffe68 <__eeprom_end+0xff7efe68>
     128:	df f3       	brie	.-10     	; 0x120 <__trampolines_end+0xb8>
     12a:	fc d6       	rcall	.+3576   	; 0xf24 <SoftwareSerialParity::SoftwareSerialParity(unsigned char, unsigned char, bool)+0x48>
     12c:	08 b0       	in	r0, 0x08	; 8
     12e:	55 97       	sbiw	r26, 0x15	; 21
     130:	cf 09       	sbc	r28, r15
     132:	a2 3b       	cpi	r26, 0xB2	; 178
     134:	d1 7d       	andi	r29, 0xD1	; 209
     136:	3f d2       	rcall	.+1150   	; 0x5b6 <port_to_mode_PGM+0x2>
     138:	4a a7       	std	Y+42, r20	; 0x2a
     13a:	c7 b0       	in	r12, 0x07	; 7
     13c:	11 34       	cpi	r17, 0x41	; 65
     13e:	46 6f       	ori	r20, 0xF6	; 246
     140:	ac 82       	std	Y+4, r10	; 0x04
     142:	16 3e       	cpi	r17, 0xE6	; 230
     144:	4b b5       	in	r20, 0x2b	; 43
     146:	1b f9       	.word	0xf91b	; ????
     148:	ca c8       	rjmp	.-3692   	; 0xfffff2de <__eeprom_end+0xff7ef2de>
     14a:	b8 7a       	andi	r27, 0xA8	; 168
     14c:	cd 9e       	mul	r12, r29
     14e:	c4 96       	adiw	r24, 0x34	; 52
     150:	90 ab       	std	Z+48, r25	; 0x30
     152:	e0 81       	ld	r30, Z
     154:	39 20       	and	r3, r9
     156:	b1 10       	cpse	r11, r1
     158:	03 be       	out	0x33, r0	; 51
     15a:	b6 54       	subi	r27, 0x46	; 70
     15c:	99 14       	cp	r9, r9
     15e:	04 83       	std	Z+4, r16	; 0x04
     160:	ba 18       	sub	r11, r10
     162:	7a 64       	ori	r23, 0x4A	; 74
     164:	ef 90       	pop	r14
     166:	26 1d       	adc	r18, r6
     168:	c7 ac       	ldd	r12, Z+63	; 0x3f
     16a:	13 06       	cpc	r1, r19
     16c:	de fe       	.word	0xfede	; ????
     16e:	39 ec       	ldi	r19, 0xC9	; 201
     170:	83 a1       	ldd	r24, Z+35	; 0x23
     172:	48 3b       	cpi	r20, 0xB8	; 184
     174:	0e e2       	ldi	r16, 0x2E	; 46
     176:	ec 89       	ldd	r30, Y+20	; 0x14
     178:	41 84       	ldd	r4, Z+9	; 0x09
     17a:	99 be       	out	0x39, r9	; 57
     17c:	9d 35       	cpi	r25, 0x5D	; 93
     17e:	a3 b9       	out	0x03, r26	; 3
     180:	fc 6a       	ori	r31, 0xAC	; 172
     182:	d0 d6       	rcall	.+3488   	; 0xf24 <SoftwareSerialParity::SoftwareSerialParity(unsigned char, unsigned char, bool)+0x48>
     184:	f0 41       	sbci	r31, 0x10	; 16
     186:	bb 26       	eor	r11, r27

00000188 <challenge1_secret>:
     188:	d2 07 22 53 a4 f2 74 68 b3 7a 16 ef 55 7b d0 89     .."S..th.z..U{..
     198:	a0 4e 32 bb a7 13 9e 46 b0 b8 09 83 39 89 fa e2     .N2....F....9...
     1a8:	fe 7d 78 99 bf ec 47 c5 30 6f 3a 03 d8 6c be e4     .}x...G.0o:..l..
     1b8:	84 22 df ea e2 1b 63 c2 ad 40 43 b2 56 eb 45 8b     ."....c..@C.V.E.
     1c8:	c2 37 7e 8a 74 09 6c 5f 58 1c 7f 19 44 f9 62 62     .7~.t.l_X...D.bb
     1d8:	f1 bc 56 2b d5 5b b0 77 af 60 10 a8 46 f7 41 f3     ..V+.[.w.`..F.A.
     1e8:	db d3 ae a4 db 04 64 10 90 e1 f0 c0 01 78 e3 ff     ......d......x..
     1f8:	0b d9 02 7e 85 1f a1 23                             ...~...#

00000200 <challenge2_secret>:
     200:	f5 d7 d4 b5 75 f0 8e 4e cc 69 95 81 fd 89 12 6c     ....u..N.i.....l
     210:	49 5e 03 47 94 93 1d 7b f4 e0 43 13 ad 2e b4 db     I^.G...{..C.....
     220:	86 5e 3e ef 9d fb b1 fd ff 72 bd 2b 83 b8 9d 2f     .^>......r.+.../
     230:	58 b9 5a ae f3 99 db d0 67 c0 72 15 d9 6b 39 a1     X.Z.....g.r..k9.
     240:	09 3e c5 19 af 0f 50 2d 31 80 53 87 5c 20 3e 24     .>....P-1.S.\ >$
     250:	1b df 24 33 eb 29 15 5b 9d ee c0 11 44 b6 6f 41     ..$3.).[....D.oA
     260:	e3 2b 8f 56 b2 64 12 98 c3 4a 6a 7b 20 5f e8 f9     .+.V.d...Jj{ _..
     270:	f7 91 ed 0b 3f 49 a4 48                             ....?I.H

00000278 <setup::__c>:
     278:	53 74 61 72 74 20 6e 6f 72 6d 61 6c 00              Start normal.

00000285 <setup::__c>:
     285:	53 74 61 72 74 20 73 65 72 76 69 63 65 00           Start service.

00000293 <testLed()::__c>:
     293:	4c 4f 57 20 50 4f 57 45 52 00                       LOW POWER.

0000029d <log_byte(unsigned char)::__c>:
     29d:	20 00                                                .

0000029f <log_byte(unsigned char)::__c>:
     29f:	30 00                                               0.

000002a1 <psp_write(unsigned char*, unsigned char, bool)::__c>:
     2a1:	41 72 64 75 69 6e 6f 3a 20 00                       Arduino: .

000002ab <generateSysconResponses()::__c>:
     2ab:	4b 65 79 20 6e 6f 74 20 66 6f 75 6e 64 00           Key not found.

000002b9 <answer_03>:
     2b9:	a5 04 06 36 10                                      ...6.

000002be <answer_01>:
     2be:	a5 05 06 01 c3 06                                   ......

000002c4 <answer_04>:
     2c4:	a5 04 06 68 10                                      ...h.

000002c9 <loop::__c>:
     2c9:	4e 6f 20 6f 70 74 69 6f 6e 20 73 65 6c 65 63 74     No option select
     2d9:	65 64 20 00                                         ed .

000002dd <answer_08>:
     2dd:	a5 04 06 e2 04 6a                                   .....j

000002e3 <answer_0D>:
     2e3:	a5 07 06 9d 10 10 28 14 54                          ......(.T

000002ec <answer_16>:
     2ec:	a5 13 06 53 6f 6e 79 45 6e 65 72 67 79 44 65 76     ...SonyEnergyDev
     2fc:	69 63 65 73 6b                                      icesk

00000301 <answer_02>:
     301:	a5 03 06 1b 36                                      ....6

00000306 <answer_09>:
     306:	a5 04 06 01 04 4b                                   .....K

0000030c <answer_0B>:
     30c:	a5 04 06 0f 00 41                                   .....A

00000312 <answer_07>:
     312:	a5 04 06 08 07                                      .....

00000317 <answer_90>:
     317:	a5 2a 06 20 01 00 00 82 82 82 82                    .*. .......

00000322 <go_key2>:
     322:	da 24 da b4 3a 61 cb df 61 fd 25 5d 0a ea 79 57     .$..:a..a.%]..yW

00000332 <loop::__c>:
     332:	47 6f 20 48 61 6e 64 73 68 61 6b 65 20 52 65 71     Go Handshake Req
     342:	75 65 73 74 20 69 73 20 76 61 6c 69 64 00           uest is valid.

00000350 <loop::__c>:
     350:	49 6e 76 61 6c 69 64 20 72 65 71 75 65 73 74 20     Invalid request 
     360:	66 72 6f 6d 20 53 79 73 63 6f 6e 00                 from Syscon.

0000036c <go_secret>:
     36c:	88 0e 2a 94 11 09 26 b2 0e 53 e2 2a e6 48 ae 9d     ..*...&..S.*.H..

0000037c <go_key1>:
     37c:	c6 6e 9e d6 ec bc b1 21 b7 46 5d 25 03 7d 66 46     .n.....!.F]%.}fF

0000038c <loop::__c>:
     38c:	47 4f 3a 20 20 20 20 20 20 00                       GO:      .

00000396 <psp_81>:
     396:	5a 02 01 a2                                         Z...

0000039a <loop::__c>:
     39a:	29 20 00                                            ) .

0000039d <loop::__c>:
     39d:	28 20 00                                            ( .

000003a0 <loop::__c>:
     3a0:	50 53 50 3a 20 20 20 20 20 00                       PSP:     .

000003aa <s_fwd>:
     3aa:	63 7c 77 7b f2 6b 6f c5 30 01 67 2b fe d7 ab 76     c|w{.ko.0.g+...v
     3ba:	ca 82 c9 7d fa 59 47 f0 ad d4 a2 af 9c a4 72 c0     ...}.YG.......r.
     3ca:	b7 fd 93 26 36 3f f7 cc 34 a5 e5 f1 71 d8 31 15     ...&6?..4...q.1.
     3da:	04 c7 23 c3 18 96 05 9a 07 12 80 e2 eb 27 b2 75     ..#..........'.u
     3ea:	09 83 2c 1a 1b 6e 5a a0 52 3b d6 b3 29 e3 2f 84     ..,..nZ.R;..)./.
     3fa:	53 d1 00 ed 20 fc b1 5b 6a cb be 39 4a 4c 58 cf     S... ..[j..9JLX.
     40a:	d0 ef aa fb 43 4d 33 85 45 f9 02 7f 50 3c 9f a8     ....CM3.E...P<..
     41a:	51 a3 40 8f 92 9d 38 f5 bc b6 da 21 10 ff f3 d2     Q.@...8....!....
     42a:	cd 0c 13 ec 5f 97 44 17 c4 a7 7e 3d 64 5d 19 73     ...._.D...~=d].s
     43a:	60 81 4f dc 22 2a 90 88 46 ee b8 14 de 5e 0b db     `.O."*..F....^..
     44a:	e0 32 3a 0a 49 06 24 5c c2 d3 ac 62 91 95 e4 79     .2:.I.$\...b...y
     45a:	e7 c8 37 6d 8d d5 4e a9 6c 56 f4 ea 65 7a ae 08     ..7m..N.lV..ez..
     46a:	ba 78 25 2e 1c a6 b4 c6 e8 dd 74 1f 4b bd 8b 8a     .x%.......t.K...
     47a:	70 3e b5 66 48 03 f6 0e 61 35 57 b9 86 c1 1d 9e     p>.fH...a5W.....
     48a:	e1 f8 98 11 69 d9 8e 94 9b 1e 87 e9 ce 55 28 df     ....i........U(.
     49a:	8c a1 89 0d bf e6 42 68 41 99 2d 0f b0 54 bb 16     ......BhA.-..T..

000004aa <s_inv>:
     4aa:	52 09 6a d5 30 36 a5 38 bf 40 a3 9e 81 f3 d7 fb     R.j.06.8.@......
     4ba:	7c e3 39 82 9b 2f ff 87 34 8e 43 44 c4 de e9 cb     |.9../..4.CD....
     4ca:	54 7b 94 32 a6 c2 23 3d ee 4c 95 0b 42 fa c3 4e     T{.2..#=.L..B..N
     4da:	08 2e a1 66 28 d9 24 b2 76 5b a2 49 6d 8b d1 25     ...f(.$.v[.Im..%
     4ea:	72 f8 f6 64 86 68 98 16 d4 a4 5c cc 5d 65 b6 92     r..d.h....\.]e..
     4fa:	6c 70 48 50 fd ed b9 da 5e 15 46 57 a7 8d 9d 84     lpHP....^.FW....
     50a:	90 d8 ab 00 8c bc d3 0a f7 e4 58 05 b8 b3 45 06     ..........X...E.
     51a:	d0 2c 1e 8f ca 3f 0f 02 c1 af bd 03 01 13 8a 6b     .,...?.........k
     52a:	3a 91 11 41 4f 67 dc ea 97 f2 cf ce f0 b4 e6 73     :..AOg.........s
     53a:	96 ac 74 22 e7 ad 35 85 e2 f9 37 e8 1c 75 df 6e     ..t"..5...7..u.n
     54a:	47 f1 1a 71 1d 29 c5 89 6f b7 62 0e aa 18 be 1b     G..q.)..o.b.....
     55a:	fc 56 3e 4b c6 d2 79 20 9a db c0 fe 78 cd 5a f4     .V>K..y ....x.Z.
     56a:	1f dd a8 33 88 07 c7 31 b1 12 10 59 27 80 ec 5f     ...3...1...Y'.._
     57a:	60 51 7f a9 19 b5 4a 0d 2d e5 7a 9f 93 c9 9c ef     `Q....J.-.z.....
     58a:	a0 e0 3b 4d ae 2a f5 b0 c8 eb bb 3c 83 53 99 61     ..;M.*.....<.S.a
     59a:	17 2b 04 7e ba 77 d6 26 e1 69 14 63 55 21 0c 7d     .+.~.w.&.i.cU!.}

000005aa <port_to_input_PGM>:
     5aa:	00 00 00 00 23 00 26 00 29 00                       ....#.&.).

000005b4 <port_to_mode_PGM>:
     5b4:	00 00 00 00 24 00 27 00 2a 00                       ....$.'.*.

000005be <port_to_output_PGM>:
     5be:	00 00 00 00 25 00 28 00 2b 00                       ....%.(.+.

000005c8 <digital_pin_to_port_PGM>:
     5c8:	04 04 04 04 04 04 04 04 02 02 02 02 02 02 03 03     ................
     5d8:	03 03 03 03 02 02 03                                .......

000005df <digital_pin_to_bit_mask_PGM>:
     5df:	01 02 04 08 10 20 40 80 01 02 04 08 10 20 01 02     ..... @...... ..
     5ef:	04 08 10 20 40 80 40                                ... @.@

000005f6 <digital_pin_to_timer_PGM>:
     5f6:	00 00 00 09 00 03 02 00 00 04 05 08 00 00 00 00     ................
	...

0000060e <__ctors_start>:
__ctors_start():
     60e:	95 18       	sub	r9, r5

00000610 <__ctors_end>:
__dtors_start():
     610:	f1 19       	sub	r31, r1

00000612 <__dtors_end>:
__dtors_end():
     612:	11 24       	eor	r1, r1
     614:	1f be       	out	0x3f, r1	; 63
     616:	cf ef       	ldi	r28, 0xFF	; 255
     618:	d8 e0       	ldi	r29, 0x08	; 8
     61a:	de bf       	out	0x3e, r29	; 62
     61c:	cd bf       	out	0x3d, r28	; 61

0000061e <__do_copy_data>:
__do_copy_data():
/home/jenkins-mingw32/workspace/avr-gcc-staging/label/Ubuntu14.04x64-mingw32/gcc-build/avr/avr5/libgcc/../../../../gcc/libgcc/config/avr/lib1funcs.S:2409
     61e:	11 e0       	ldi	r17, 0x01	; 1
/home/jenkins-mingw32/workspace/avr-gcc-staging/label/Ubuntu14.04x64-mingw32/gcc-build/avr/avr5/libgcc/../../../../gcc/libgcc/config/avr/lib1funcs.S:2410
     620:	a0 e0       	ldi	r26, 0x00	; 0
/home/jenkins-mingw32/workspace/avr-gcc-staging/label/Ubuntu14.04x64-mingw32/gcc-build/avr/avr5/libgcc/../../../../gcc/libgcc/config/avr/lib1funcs.S:2411
     622:	b1 e0       	ldi	r27, 0x01	; 1
/home/jenkins-mingw32/workspace/avr-gcc-staging/label/Ubuntu14.04x64-mingw32/gcc-build/avr/avr5/libgcc/../../../../gcc/libgcc/config/avr/lib1funcs.S:2412
     624:	ea e5       	ldi	r30, 0x5A	; 90
/home/jenkins-mingw32/workspace/avr-gcc-staging/label/Ubuntu14.04x64-mingw32/gcc-build/avr/avr5/libgcc/../../../../gcc/libgcc/config/avr/lib1funcs.S:2413
     626:	f7 e3       	ldi	r31, 0x37	; 55
/home/jenkins-mingw32/workspace/avr-gcc-staging/label/Ubuntu14.04x64-mingw32/gcc-build/avr/avr5/libgcc/../../../../gcc/libgcc/config/avr/lib1funcs.S:2414
     628:	02 c0       	rjmp	.+4      	; 0x62e <__do_copy_data+0x10>
/home/jenkins-mingw32/workspace/avr-gcc-staging/label/Ubuntu14.04x64-mingw32/gcc-build/avr/avr5/libgcc/../../../../gcc/libgcc/config/avr/lib1funcs.S:2417
     62a:	05 90       	lpm	r0, Z+
/home/jenkins-mingw32/workspace/avr-gcc-staging/label/Ubuntu14.04x64-mingw32/gcc-build/avr/avr5/libgcc/../../../../gcc/libgcc/config/avr/lib1funcs.S:2422
     62c:	0d 92       	st	X+, r0
/home/jenkins-mingw32/workspace/avr-gcc-staging/label/Ubuntu14.04x64-mingw32/gcc-build/avr/avr5/libgcc/../../../../gcc/libgcc/config/avr/lib1funcs.S:2424
     62e:	ae 32       	cpi	r26, 0x2E	; 46
/home/jenkins-mingw32/workspace/avr-gcc-staging/label/Ubuntu14.04x64-mingw32/gcc-build/avr/avr5/libgcc/../../../../gcc/libgcc/config/avr/lib1funcs.S:2425
     630:	b1 07       	cpc	r27, r17
/home/jenkins-mingw32/workspace/avr-gcc-staging/label/Ubuntu14.04x64-mingw32/gcc-build/avr/avr5/libgcc/../../../../gcc/libgcc/config/avr/lib1funcs.S:2426
     632:	d9 f7       	brne	.-10     	; 0x62a <__do_copy_data+0xc>

00000634 <__do_clear_bss>:
__do_clear_bss():
/home/jenkins-mingw32/workspace/avr-gcc-staging/label/Ubuntu14.04x64-mingw32/gcc-build/avr/avr5/libgcc/../../../../gcc/libgcc/config/avr/lib1funcs.S:2441
     634:	22 e0       	ldi	r18, 0x02	; 2
/home/jenkins-mingw32/workspace/avr-gcc-staging/label/Ubuntu14.04x64-mingw32/gcc-build/avr/avr5/libgcc/../../../../gcc/libgcc/config/avr/lib1funcs.S:2442
     636:	ae e2       	ldi	r26, 0x2E	; 46
/home/jenkins-mingw32/workspace/avr-gcc-staging/label/Ubuntu14.04x64-mingw32/gcc-build/avr/avr5/libgcc/../../../../gcc/libgcc/config/avr/lib1funcs.S:2443
     638:	b1 e0       	ldi	r27, 0x01	; 1
/home/jenkins-mingw32/workspace/avr-gcc-staging/label/Ubuntu14.04x64-mingw32/gcc-build/avr/avr5/libgcc/../../../../gcc/libgcc/config/avr/lib1funcs.S:2444
     63a:	01 c0       	rjmp	.+2      	; 0x63e <.do_clear_bss_start>

0000063c <.do_clear_bss_loop>:
/home/jenkins-mingw32/workspace/avr-gcc-staging/label/Ubuntu14.04x64-mingw32/gcc-build/avr/avr5/libgcc/../../../../gcc/libgcc/config/avr/lib1funcs.S:2446
     63c:	1d 92       	st	X+, r1

0000063e <.do_clear_bss_start>:
/home/jenkins-mingw32/workspace/avr-gcc-staging/label/Ubuntu14.04x64-mingw32/gcc-build/avr/avr5/libgcc/../../../../gcc/libgcc/config/avr/lib1funcs.S:2448
     63e:	a2 3f       	cpi	r26, 0xF2	; 242
/home/jenkins-mingw32/workspace/avr-gcc-staging/label/Ubuntu14.04x64-mingw32/gcc-build/avr/avr5/libgcc/../../../../gcc/libgcc/config/avr/lib1funcs.S:2449
     640:	b2 07       	cpc	r27, r18
/home/jenkins-mingw32/workspace/avr-gcc-staging/label/Ubuntu14.04x64-mingw32/gcc-build/avr/avr5/libgcc/../../../../gcc/libgcc/config/avr/lib1funcs.S:2450
     642:	e1 f7       	brne	.-8      	; 0x63c <.do_clear_bss_loop>

00000644 <__do_global_ctors>:
__do_global_ctors():
/home/jenkins-mingw32/workspace/avr-gcc-staging/label/Ubuntu14.04x64-mingw32/gcc-build/avr/avr5/libgcc/../../../../gcc/libgcc/config/avr/lib1funcs.S:2466
     644:	13 e0       	ldi	r17, 0x03	; 3
/home/jenkins-mingw32/workspace/avr-gcc-staging/label/Ubuntu14.04x64-mingw32/gcc-build/avr/avr5/libgcc/../../../../gcc/libgcc/config/avr/lib1funcs.S:2467
     646:	c8 e0       	ldi	r28, 0x08	; 8
/home/jenkins-mingw32/workspace/avr-gcc-staging/label/Ubuntu14.04x64-mingw32/gcc-build/avr/avr5/libgcc/../../../../gcc/libgcc/config/avr/lib1funcs.S:2468
     648:	d3 e0       	ldi	r29, 0x03	; 3
/home/jenkins-mingw32/workspace/avr-gcc-staging/label/Ubuntu14.04x64-mingw32/gcc-build/avr/avr5/libgcc/../../../../gcc/libgcc/config/avr/lib1funcs.S:2472
     64a:	04 c0       	rjmp	.+8      	; 0x654 <__do_global_ctors+0x10>
/home/jenkins-mingw32/workspace/avr-gcc-staging/label/Ubuntu14.04x64-mingw32/gcc-build/avr/avr5/libgcc/../../../../gcc/libgcc/config/avr/lib1funcs.S:2474
     64c:	21 97       	sbiw	r28, 0x01	; 1
/home/jenkins-mingw32/workspace/avr-gcc-staging/label/Ubuntu14.04x64-mingw32/gcc-build/avr/avr5/libgcc/../../../../gcc/libgcc/config/avr/lib1funcs.S:2480
     64e:	fe 01       	movw	r30, r28
/home/jenkins-mingw32/workspace/avr-gcc-staging/label/Ubuntu14.04x64-mingw32/gcc-build/avr/avr5/libgcc/../../../../gcc/libgcc/config/avr/lib1funcs.S:2481
     650:	0e 94 6c 1a 	call	0x34d8	; 0x34d8 <__tablejump2__>
/home/jenkins-mingw32/workspace/avr-gcc-staging/label/Ubuntu14.04x64-mingw32/gcc-build/avr/avr5/libgcc/../../../../gcc/libgcc/config/avr/lib1funcs.S:2483
     654:	c7 30       	cpi	r28, 0x07	; 7
/home/jenkins-mingw32/workspace/avr-gcc-staging/label/Ubuntu14.04x64-mingw32/gcc-build/avr/avr5/libgcc/../../../../gcc/libgcc/config/avr/lib1funcs.S:2484
     656:	d1 07       	cpc	r29, r17
/home/jenkins-mingw32/workspace/avr-gcc-staging/label/Ubuntu14.04x64-mingw32/gcc-build/avr/avr5/libgcc/../../../../gcc/libgcc/config/avr/lib1funcs.S:2489
     658:	c9 f7       	brne	.-14     	; 0x64c <__do_global_ctors+0x8>
     65a:	0e 94 ec 18 	call	0x31d8	; 0x31d8 <main>
     65e:	0c 94 a0 1b 	jmp	0x3740	; 0x3740 <__do_global_dtors>

00000662 <__bad_interrupt>:
__vector_22():
     662:	0c 94 00 00 	jmp	0	; 0x0 <__vectors>

00000666 <turnOffPWM>:
turnOffPWM():
C:\Users\Kirpich\AppData\Local\Arduino15\packages\MiniCore\hardware\avr\3.1.1\cores\MCUdude_corefiles/wiring_digital.c:77
//
//static inline void turnOffPWM(uint8_t timer) __attribute__ ((always_inline));
//static inline void turnOffPWM(uint8_t timer)
static void turnOffPWM(uint8_t timer)
{
  switch (timer)
     666:	84 30       	cpi	r24, 0x04	; 4
     668:	b1 f0       	breq	.+44     	; 0x696 <turnOffPWM+0x30>
     66a:	60 f0       	brcs	.+24     	; 0x684 <turnOffPWM+0x1e>
     66c:	88 30       	cpi	r24, 0x08	; 8
     66e:	c9 f0       	breq	.+50     	; 0x6a2 <turnOffPWM+0x3c>
     670:	89 30       	cpi	r24, 0x09	; 9
     672:	e9 f0       	breq	.+58     	; 0x6ae <turnOffPWM+0x48>
     674:	85 30       	cpi	r24, 0x05	; 5
     676:	69 f4       	brne	.+26     	; 0x692 <turnOffPWM+0x2c>
C:\Users\Kirpich\AppData\Local\Arduino15\packages\MiniCore\hardware\avr\3.1.1\cores\MCUdude_corefiles/wiring_digital.c:87
        TCCR1A &= ~_BV(COM1A1);
        break;
    #endif
    #if defined(TCCR1A) && defined(COM1B1)
      case TIMER1B:
        TCCR1A &= ~_BV(COM1B1);
     678:	e0 e8       	ldi	r30, 0x80	; 128
     67a:	f0 e0       	ldi	r31, 0x00	; 0
     67c:	80 81       	ld	r24, Z
     67e:	8f 7d       	andi	r24, 0xDF	; 223
     680:	80 83       	st	Z, r24
     682:	08 95       	ret
C:\Users\Kirpich\AppData\Local\Arduino15\packages\MiniCore\hardware\avr\3.1.1\cores\MCUdude_corefiles/wiring_digital.c:77
//
//static inline void turnOffPWM(uint8_t timer) __attribute__ ((always_inline));
//static inline void turnOffPWM(uint8_t timer)
static void turnOffPWM(uint8_t timer)
{
  switch (timer)
     684:	82 30       	cpi	r24, 0x02	; 2
     686:	c9 f0       	breq	.+50     	; 0x6ba <turnOffPWM+0x54>
     688:	83 30       	cpi	r24, 0x03	; 3
     68a:	21 f4       	brne	.+8      	; 0x694 <turnOffPWM+0x2e>
C:\Users\Kirpich\AppData\Local\Arduino15\packages\MiniCore\hardware\avr\3.1.1\cores\MCUdude_corefiles/wiring_digital.c:181
        TCCR0A &= ~_BV(COM0A1);
        break;
    #endif
    #if defined(TCCR0A) && defined(COM0B1)
      case TIMER0B:
        TCCR0A &= ~_BV(COM0B1);
     68c:	84 b5       	in	r24, 0x24	; 36
     68e:	8f 7d       	andi	r24, 0xDF	; 223
     690:	84 bd       	out	0x24, r24	; 36
C:\Users\Kirpich\AppData\Local\Arduino15\packages\MiniCore\hardware\avr\3.1.1\cores\MCUdude_corefiles/wiring_digital.c:185
        break;
    #endif
  }
}
     692:	08 95       	ret
     694:	08 95       	ret
C:\Users\Kirpich\AppData\Local\Arduino15\packages\MiniCore\hardware\avr\3.1.1\cores\MCUdude_corefiles/wiring_digital.c:82
  switch (timer)
  {
    // Timer1
    #if defined(TCCR1A) && defined(COM1A1)
      case TIMER1A:
        TCCR1A &= ~_BV(COM1A1);
     696:	e0 e8       	ldi	r30, 0x80	; 128
     698:	f0 e0       	ldi	r31, 0x00	; 0
     69a:	80 81       	ld	r24, Z
     69c:	8f 77       	andi	r24, 0x7F	; 127
     69e:	80 83       	st	Z, r24
     6a0:	08 95       	ret
C:\Users\Kirpich\AppData\Local\Arduino15\packages\MiniCore\hardware\avr\3.1.1\cores\MCUdude_corefiles/wiring_digital.c:104
        TCCR2 &= ~_BV(COM21);
        break;
    #endif
    #if defined(TCCR2A) && defined(COM2A1)
      case TIMER2A:
        TCCR2A &= ~_BV(COM2A1);
     6a2:	e0 eb       	ldi	r30, 0xB0	; 176
     6a4:	f0 e0       	ldi	r31, 0x00	; 0
     6a6:	80 81       	ld	r24, Z
     6a8:	8f 77       	andi	r24, 0x7F	; 127
     6aa:	80 83       	st	Z, r24
     6ac:	08 95       	ret
C:\Users\Kirpich\AppData\Local\Arduino15\packages\MiniCore\hardware\avr\3.1.1\cores\MCUdude_corefiles/wiring_digital.c:109
        break;
    #endif
    #if defined(TCCR2A) && defined(COM2B1)
      case TIMER2B:
        TCCR2A &= ~_BV(COM2B1);
     6ae:	e0 eb       	ldi	r30, 0xB0	; 176
     6b0:	f0 e0       	ldi	r31, 0x00	; 0
     6b2:	80 81       	ld	r24, Z
     6b4:	8f 7d       	andi	r24, 0xDF	; 223
     6b6:	80 83       	st	Z, r24
     6b8:	08 95       	ret
C:\Users\Kirpich\AppData\Local\Arduino15\packages\MiniCore\hardware\avr\3.1.1\cores\MCUdude_corefiles/wiring_digital.c:176
        TCCR0 &= ~_BV(COM01);
        break;
    #endif
    #if defined(TCCR0A) && defined(COM0A1)
      case TIMER0A:
        TCCR0A &= ~_BV(COM0A1);
     6ba:	84 b5       	in	r24, 0x24	; 36
     6bc:	8f 77       	andi	r24, 0x7F	; 127
     6be:	84 bd       	out	0x24, r24	; 36
     6c0:	08 95       	ret

000006c2 <digitalWrite>:
digitalWrite():
C:\Users\Kirpich\AppData\Local\Arduino15\packages\MiniCore\hardware\avr\3.1.1\cores\MCUdude_corefiles/wiring_digital.c:188
    #endif
  }
}

void digitalWrite(uint8_t pin, uint8_t val)
{
     6c2:	1f 93       	push	r17
     6c4:	cf 93       	push	r28
     6c6:	df 93       	push	r29
C:\Users\Kirpich\AppData\Local\Arduino15\packages\MiniCore\hardware\avr\3.1.1\cores\MCUdude_corefiles/wiring_digital.c:189
  uint8_t timer = digitalPinToTimer(pin);
     6c8:	28 2f       	mov	r18, r24
     6ca:	30 e0       	ldi	r19, 0x00	; 0
     6cc:	f9 01       	movw	r30, r18
     6ce:	ea 50       	subi	r30, 0x0A	; 10
     6d0:	fa 4f       	sbci	r31, 0xFA	; 250
     6d2:	84 91       	lpm	r24, Z
C:\Users\Kirpich\AppData\Local\Arduino15\packages\MiniCore\hardware\avr\3.1.1\cores\MCUdude_corefiles/wiring_digital.c:190
  uint8_t bit = digitalPinToBitMask(pin);
     6d4:	f9 01       	movw	r30, r18
     6d6:	e1 52       	subi	r30, 0x21	; 33
     6d8:	fa 4f       	sbci	r31, 0xFA	; 250
     6da:	14 91       	lpm	r17, Z
C:\Users\Kirpich\AppData\Local\Arduino15\packages\MiniCore\hardware\avr\3.1.1\cores\MCUdude_corefiles/wiring_digital.c:191
  uint8_t port = digitalPinToPort(pin);
     6dc:	f9 01       	movw	r30, r18
     6de:	e8 53       	subi	r30, 0x38	; 56
     6e0:	fa 4f       	sbci	r31, 0xFA	; 250
     6e2:	c4 91       	lpm	r28, Z
C:\Users\Kirpich\AppData\Local\Arduino15\packages\MiniCore\hardware\avr\3.1.1\cores\MCUdude_corefiles/wiring_digital.c:194
  volatile uint8_t *out;

  if (port == NOT_A_PIN) return;
     6e4:	cc 23       	and	r28, r28
     6e6:	a9 f0       	breq	.+42     	; 0x712 <digitalWrite+0x50>
     6e8:	d6 2f       	mov	r29, r22
C:\Users\Kirpich\AppData\Local\Arduino15\packages\MiniCore\hardware\avr\3.1.1\cores\MCUdude_corefiles/wiring_digital.c:198

  // If the pin that support PWM output, we need to turn it off
  // before doing a digital write.
  if (timer != NOT_ON_TIMER) turnOffPWM(timer);
     6ea:	81 11       	cpse	r24, r1
     6ec:	16 c0       	rjmp	.+44     	; 0x71a <digitalWrite+0x58>
C:\Users\Kirpich\AppData\Local\Arduino15\packages\MiniCore\hardware\avr\3.1.1\cores\MCUdude_corefiles/wiring_digital.c:200

  out = portOutputRegister(port);
     6ee:	ec 2f       	mov	r30, r28
     6f0:	f0 e0       	ldi	r31, 0x00	; 0
     6f2:	ee 0f       	add	r30, r30
     6f4:	ff 1f       	adc	r31, r31
     6f6:	e2 54       	subi	r30, 0x42	; 66
     6f8:	fa 4f       	sbci	r31, 0xFA	; 250
     6fa:	a5 91       	lpm	r26, Z+
     6fc:	b4 91       	lpm	r27, Z
C:\Users\Kirpich\AppData\Local\Arduino15\packages\MiniCore\hardware\avr\3.1.1\cores\MCUdude_corefiles/wiring_digital.c:202

  uint8_t oldSREG = SREG;
     6fe:	8f b7       	in	r24, 0x3f	; 63
C:\Users\Kirpich\AppData\Local\Arduino15\packages\MiniCore\hardware\avr\3.1.1\cores\MCUdude_corefiles/wiring_digital.c:203
  cli();
     700:	f8 94       	cli
C:\Users\Kirpich\AppData\Local\Arduino15\packages\MiniCore\hardware\avr\3.1.1\cores\MCUdude_corefiles/wiring_digital.c:205

  if (val == LOW) {
     702:	d1 11       	cpse	r29, r1
     704:	0d c0       	rjmp	.+26     	; 0x720 <digitalWrite+0x5e>
C:\Users\Kirpich\AppData\Local\Arduino15\packages\MiniCore\hardware\avr\3.1.1\cores\MCUdude_corefiles/wiring_digital.c:206
    *out &= ~bit;
     706:	9c 91       	ld	r25, X
     708:	e1 2f       	mov	r30, r17
     70a:	e0 95       	com	r30
     70c:	e9 23       	and	r30, r25
     70e:	ec 93       	st	X, r30
C:\Users\Kirpich\AppData\Local\Arduino15\packages\MiniCore\hardware\avr\3.1.1\cores\MCUdude_corefiles/wiring_digital.c:211
  } else {
    *out |= bit;
  }

  SREG = oldSREG;
     710:	8f bf       	out	0x3f, r24	; 63
C:\Users\Kirpich\AppData\Local\Arduino15\packages\MiniCore\hardware\avr\3.1.1\cores\MCUdude_corefiles/wiring_digital.c:212
}
     712:	df 91       	pop	r29
     714:	cf 91       	pop	r28
     716:	1f 91       	pop	r17
     718:	08 95       	ret
C:\Users\Kirpich\AppData\Local\Arduino15\packages\MiniCore\hardware\avr\3.1.1\cores\MCUdude_corefiles/wiring_digital.c:198

  if (port == NOT_A_PIN) return;

  // If the pin that support PWM output, we need to turn it off
  // before doing a digital write.
  if (timer != NOT_ON_TIMER) turnOffPWM(timer);
     71a:	0e 94 33 03 	call	0x666	; 0x666 <turnOffPWM>
     71e:	e7 cf       	rjmp	.-50     	; 0x6ee <digitalWrite+0x2c>
C:\Users\Kirpich\AppData\Local\Arduino15\packages\MiniCore\hardware\avr\3.1.1\cores\MCUdude_corefiles/wiring_digital.c:208
  cli();

  if (val == LOW) {
    *out &= ~bit;
  } else {
    *out |= bit;
     720:	ec 91       	ld	r30, X
     722:	e1 2b       	or	r30, r17
     724:	ec 93       	st	X, r30
     726:	f4 cf       	rjmp	.-24     	; 0x710 <digitalWrite+0x4e>

00000728 <pinMode>:
pinMode():
C:\Users\Kirpich\AppData\Local\Arduino15\packages\MiniCore\hardware\avr\3.1.1\cores\MCUdude_corefiles/wiring_digital.c:30
#define ARDUINO_MAIN
#include "wiring_private.h"
#include "pins_arduino.h"

void pinMode(uint8_t pin, uint8_t mode)
{
     728:	cf 93       	push	r28
     72a:	df 93       	push	r29
C:\Users\Kirpich\AppData\Local\Arduino15\packages\MiniCore\hardware\avr\3.1.1\cores\MCUdude_corefiles/wiring_digital.c:31
  uint8_t bit = digitalPinToBitMask(pin);
     72c:	90 e0       	ldi	r25, 0x00	; 0
     72e:	fc 01       	movw	r30, r24
     730:	e1 52       	subi	r30, 0x21	; 33
     732:	fa 4f       	sbci	r31, 0xFA	; 250
     734:	24 91       	lpm	r18, Z
C:\Users\Kirpich\AppData\Local\Arduino15\packages\MiniCore\hardware\avr\3.1.1\cores\MCUdude_corefiles/wiring_digital.c:32
  uint8_t port = digitalPinToPort(pin);
     736:	88 53       	subi	r24, 0x38	; 56
     738:	9a 4f       	sbci	r25, 0xFA	; 250
     73a:	fc 01       	movw	r30, r24
     73c:	84 91       	lpm	r24, Z
C:\Users\Kirpich\AppData\Local\Arduino15\packages\MiniCore\hardware\avr\3.1.1\cores\MCUdude_corefiles/wiring_digital.c:35
  volatile uint8_t *reg, *out;

  if (port == NOT_A_PIN) return;
     73e:	88 23       	and	r24, r24
     740:	19 f1       	breq	.+70     	; 0x788 <pinMode+0x60>
C:\Users\Kirpich\AppData\Local\Arduino15\packages\MiniCore\hardware\avr\3.1.1\cores\MCUdude_corefiles/wiring_digital.c:38

  // JWS: can I let the optimizer do this?
  reg = portModeRegister(port);
     742:	90 e0       	ldi	r25, 0x00	; 0
     744:	88 0f       	add	r24, r24
     746:	99 1f       	adc	r25, r25
     748:	fc 01       	movw	r30, r24
     74a:	ec 54       	subi	r30, 0x4C	; 76
     74c:	fa 4f       	sbci	r31, 0xFA	; 250
     74e:	a5 91       	lpm	r26, Z+
     750:	b4 91       	lpm	r27, Z
C:\Users\Kirpich\AppData\Local\Arduino15\packages\MiniCore\hardware\avr\3.1.1\cores\MCUdude_corefiles/wiring_digital.c:39
  out = portOutputRegister(port);
     752:	fc 01       	movw	r30, r24
     754:	e2 54       	subi	r30, 0x42	; 66
     756:	fa 4f       	sbci	r31, 0xFA	; 250
     758:	c5 91       	lpm	r28, Z+
     75a:	d4 91       	lpm	r29, Z
C:\Users\Kirpich\AppData\Local\Arduino15\packages\MiniCore\hardware\avr\3.1.1\cores\MCUdude_corefiles/wiring_digital.c:41

  if (mode == INPUT) { 
     75c:	66 23       	and	r22, r22
     75e:	49 f0       	breq	.+18     	; 0x772 <pinMode+0x4a>
C:\Users\Kirpich\AppData\Local\Arduino15\packages\MiniCore\hardware\avr\3.1.1\cores\MCUdude_corefiles/wiring_digital.c:47
    uint8_t oldSREG = SREG;
    cli();
    *reg &= ~bit;
    *out &= ~bit;
    SREG = oldSREG;
  } else if (mode == INPUT_PULLUP) {
     760:	62 30       	cpi	r22, 0x02	; 2
     762:	a9 f0       	breq	.+42     	; 0x78e <pinMode+0x66>
C:\Users\Kirpich\AppData\Local\Arduino15\packages\MiniCore\hardware\avr\3.1.1\cores\MCUdude_corefiles/wiring_digital.c:54
    cli();
    *reg &= ~bit;
    *out |= bit;
    SREG = oldSREG;
  } else {
    uint8_t oldSREG = SREG;
     764:	8f b7       	in	r24, 0x3f	; 63
C:\Users\Kirpich\AppData\Local\Arduino15\packages\MiniCore\hardware\avr\3.1.1\cores\MCUdude_corefiles/wiring_digital.c:55
    cli();
     766:	f8 94       	cli
C:\Users\Kirpich\AppData\Local\Arduino15\packages\MiniCore\hardware\avr\3.1.1\cores\MCUdude_corefiles/wiring_digital.c:56
    *reg |= bit;
     768:	ec 91       	ld	r30, X
     76a:	e2 2b       	or	r30, r18
     76c:	ec 93       	st	X, r30
C:\Users\Kirpich\AppData\Local\Arduino15\packages\MiniCore\hardware\avr\3.1.1\cores\MCUdude_corefiles/wiring_digital.c:57
    SREG = oldSREG;
     76e:	8f bf       	out	0x3f, r24	; 63
     770:	0b c0       	rjmp	.+22     	; 0x788 <pinMode+0x60>
C:\Users\Kirpich\AppData\Local\Arduino15\packages\MiniCore\hardware\avr\3.1.1\cores\MCUdude_corefiles/wiring_digital.c:42
  // JWS: can I let the optimizer do this?
  reg = portModeRegister(port);
  out = portOutputRegister(port);

  if (mode == INPUT) { 
    uint8_t oldSREG = SREG;
     772:	9f b7       	in	r25, 0x3f	; 63
C:\Users\Kirpich\AppData\Local\Arduino15\packages\MiniCore\hardware\avr\3.1.1\cores\MCUdude_corefiles/wiring_digital.c:43
    cli();
     774:	f8 94       	cli
C:\Users\Kirpich\AppData\Local\Arduino15\packages\MiniCore\hardware\avr\3.1.1\cores\MCUdude_corefiles/wiring_digital.c:44
    *reg &= ~bit;
     776:	8c 91       	ld	r24, X
     778:	e2 2f       	mov	r30, r18
     77a:	e0 95       	com	r30
     77c:	8e 23       	and	r24, r30
     77e:	8c 93       	st	X, r24
C:\Users\Kirpich\AppData\Local\Arduino15\packages\MiniCore\hardware\avr\3.1.1\cores\MCUdude_corefiles/wiring_digital.c:45
    *out &= ~bit;
     780:	88 81       	ld	r24, Y
     782:	e8 23       	and	r30, r24
     784:	e8 83       	st	Y, r30
C:\Users\Kirpich\AppData\Local\Arduino15\packages\MiniCore\hardware\avr\3.1.1\cores\MCUdude_corefiles/wiring_digital.c:46
    SREG = oldSREG;
     786:	9f bf       	out	0x3f, r25	; 63
C:\Users\Kirpich\AppData\Local\Arduino15\packages\MiniCore\hardware\avr\3.1.1\cores\MCUdude_corefiles/wiring_digital.c:59
    uint8_t oldSREG = SREG;
    cli();
    *reg |= bit;
    SREG = oldSREG;
  }
}
     788:	df 91       	pop	r29
     78a:	cf 91       	pop	r28
     78c:	08 95       	ret
C:\Users\Kirpich\AppData\Local\Arduino15\packages\MiniCore\hardware\avr\3.1.1\cores\MCUdude_corefiles/wiring_digital.c:48
    cli();
    *reg &= ~bit;
    *out &= ~bit;
    SREG = oldSREG;
  } else if (mode == INPUT_PULLUP) {
    uint8_t oldSREG = SREG;
     78e:	9f b7       	in	r25, 0x3f	; 63
C:\Users\Kirpich\AppData\Local\Arduino15\packages\MiniCore\hardware\avr\3.1.1\cores\MCUdude_corefiles/wiring_digital.c:49
    cli();
     790:	f8 94       	cli
C:\Users\Kirpich\AppData\Local\Arduino15\packages\MiniCore\hardware\avr\3.1.1\cores\MCUdude_corefiles/wiring_digital.c:50
    *reg &= ~bit;
     792:	3c 91       	ld	r19, X
     794:	82 2f       	mov	r24, r18
     796:	80 95       	com	r24
     798:	83 23       	and	r24, r19
     79a:	8c 93       	st	X, r24
C:\Users\Kirpich\AppData\Local\Arduino15\packages\MiniCore\hardware\avr\3.1.1\cores\MCUdude_corefiles/wiring_digital.c:51
    *out |= bit;
     79c:	e8 81       	ld	r30, Y
     79e:	e2 2b       	or	r30, r18
     7a0:	e8 83       	st	Y, r30
C:\Users\Kirpich\AppData\Local\Arduino15\packages\MiniCore\hardware\avr\3.1.1\cores\MCUdude_corefiles/wiring_digital.c:52
    SREG = oldSREG;
     7a2:	9f bf       	out	0x3f, r25	; 63
     7a4:	f1 cf       	rjmp	.-30     	; 0x788 <pinMode+0x60>

000007a6 <analogRead>:
analogRead():
C:\Users\Kirpich\AppData\Local\Arduino15\packages\MiniCore\hardware\avr\3.1.1\cores\MCUdude_corefiles/wiring_analog.c:49
int analogRead(uint8_t pin)
{

// Macro located in the pins_arduino.h file
#ifdef analogPinToChannel
  pin = analogPinToChannel(pin);
     7a6:	88 30       	cpi	r24, 0x08	; 8
     7a8:	20 f0       	brcs	.+8      	; 0x7b2 <analogRead+0xc>
     7aa:	8d 30       	cpi	r24, 0x0D	; 13
     7ac:	08 f4       	brcc	.+2      	; 0x7b0 <analogRead+0xa>
     7ae:	8d e0       	ldi	r24, 0x0D	; 13
     7b0:	8e 50       	subi	r24, 0x0E	; 14
C:\Users\Kirpich\AppData\Local\Arduino15\packages\MiniCore\hardware\avr\3.1.1\cores\MCUdude_corefiles/wiring_analog.c:68
  
  // set the analog reference (high two bits of ADMUX) and select the
  // channel (low 4 bits).  this also sets ADLAR (left-adjust result)
  // to 0 (the default).
#if defined(ADMUX)
  ADMUX = (analog_reference << 6) | (pin & 0x07);
     7b2:	90 91 00 01 	lds	r25, 0x0100	; 0x800100 <__data_start>
     7b6:	92 95       	swap	r25
     7b8:	99 0f       	add	r25, r25
     7ba:	99 0f       	add	r25, r25
     7bc:	90 7c       	andi	r25, 0xC0	; 192
     7be:	87 70       	andi	r24, 0x07	; 7
     7c0:	89 2b       	or	r24, r25
     7c2:	80 93 7c 00 	sts	0x007C, r24	; 0x80007c <__DATA_REGION_ORIGIN__+0x1c>
C:\Users\Kirpich\AppData\Local\Arduino15\packages\MiniCore\hardware\avr\3.1.1\cores\MCUdude_corefiles/wiring_analog.c:76
  // without a delay, we seem to read from the wrong channel
  //delay(1);

#if defined(ADCSRA) && defined(ADC)
  // start the conversion
  ADCSRA |= _BV(ADSC);
     7c6:	ea e7       	ldi	r30, 0x7A	; 122
     7c8:	f0 e0       	ldi	r31, 0x00	; 0
     7ca:	80 81       	ld	r24, Z
     7cc:	80 64       	ori	r24, 0x40	; 64
     7ce:	80 83       	st	Z, r24
C:\Users\Kirpich\AppData\Local\Arduino15\packages\MiniCore\hardware\avr\3.1.1\cores\MCUdude_corefiles/wiring_analog.c:79

  // ADSC is cleared when the conversion finishes
  while (ADCSRA & _BV(ADSC)) {};
     7d0:	80 91 7a 00 	lds	r24, 0x007A	; 0x80007a <__DATA_REGION_ORIGIN__+0x1a>
     7d4:	86 fd       	sbrc	r24, 6
     7d6:	fc cf       	rjmp	.-8      	; 0x7d0 <analogRead+0x2a>
C:\Users\Kirpich\AppData\Local\Arduino15\packages\MiniCore\hardware\avr\3.1.1\cores\MCUdude_corefiles/wiring_analog.c:83

  // ADC macro takes care of reading ADC register.
 	// avr-gcc implements the proper reading order: ADCL is read first.
 	return ADC;
     7d8:	80 91 78 00 	lds	r24, 0x0078	; 0x800078 <__DATA_REGION_ORIGIN__+0x18>
     7dc:	90 91 79 00 	lds	r25, 0x0079	; 0x800079 <__DATA_REGION_ORIGIN__+0x19>
C:\Users\Kirpich\AppData\Local\Arduino15\packages\MiniCore\hardware\avr\3.1.1\cores\MCUdude_corefiles/wiring_analog.c:87
#else
  return 0;
#endif
}
     7e0:	08 95       	ret

000007e2 <analogReference>:
analogReference():
C:\Users\Kirpich\AppData\Local\Arduino15\packages\MiniCore\hardware\avr\3.1.1\cores\MCUdude_corefiles/wiring_analog.c:41
void analogReference(uint8_t mode)
{
  // can't actually set the register here because the default setting
  // will connect AVCC and the AREF pin, which would cause a short if
  // there's something connected to AREF.
  analog_reference = mode;
     7e2:	80 93 00 01 	sts	0x0100, r24	; 0x800100 <__data_start>
C:\Users\Kirpich\AppData\Local\Arduino15\packages\MiniCore\hardware\avr\3.1.1\cores\MCUdude_corefiles/wiring_analog.c:42
}
     7e6:	08 95       	ret

000007e8 <init>:
init():
C:\Users\Kirpich\AppData\Local\Arduino15\packages\MiniCore\hardware\avr\3.1.1\cores\MCUdude_corefiles/wiring.c:945

void init()
{
  // this needs to be called before setup() or some functions won't
  // work there
  sei();
     7e8:	78 94       	sei
C:\Users\Kirpich\AppData\Local\Arduino15\packages\MiniCore\hardware\avr\3.1.1\cores\MCUdude_corefiles/wiring.c:957

  // On the ATmega168, timer 0 is also used for fast hardware pwm
  // (using phase-correct PWM would mean that timer 0 overflowed half as often
  // resulting in different millis() behavior on the ATmega8 and ATmega168)
#if defined(TCCR0A) && defined(WGM01)
  TCCR0A |= _BV(WGM01) | _BV(WGM00);
     7ea:	84 b5       	in	r24, 0x24	; 36
     7ec:	83 60       	ori	r24, 0x03	; 3
     7ee:	84 bd       	out	0x24, r24	; 36
C:\Users\Kirpich\AppData\Local\Arduino15\packages\MiniCore\hardware\avr\3.1.1\cores\MCUdude_corefiles/wiring.c:972
  #if defined(WGM00) && defined(WGM01) // The ATmega8 doesn't have WGM00 and WGM01
    TCCR0 |= _BV(WGM01) | _BV(WGM00);
  #endif
#elif defined(TCCR0B) && defined(CS01) && defined(CS00)
  // This combination is for the standard 168/328/640/1280/1281/2560/2561
  TCCR0B |= _BV(CS01) | _BV(CS00);
     7f0:	85 b5       	in	r24, 0x25	; 37
     7f2:	83 60       	ori	r24, 0x03	; 3
     7f4:	85 bd       	out	0x25, r24	; 37
C:\Users\Kirpich\AppData\Local\Arduino15\packages\MiniCore\hardware\avr\3.1.1\cores\MCUdude_corefiles/wiring.c:984

// Enable timer 0 overflow interrupt
#if defined(TIMSK) && defined(TOIE0)
  TIMSK |= _BV(TOIE0);
#elif defined(TIMSK0) && defined(TOIE0)
  TIMSK0 |= _BV(TOIE0);
     7f6:	ee e6       	ldi	r30, 0x6E	; 110
     7f8:	f0 e0       	ldi	r31, 0x00	; 0
     7fa:	80 81       	ld	r24, Z
     7fc:	81 60       	ori	r24, 0x01	; 1
     7fe:	80 83       	st	Z, r24
C:\Users\Kirpich\AppData\Local\Arduino15\packages\MiniCore\hardware\avr\3.1.1\cores\MCUdude_corefiles/wiring.c:995
// this is better for motors as it ensures an even waveform
// note, however, that fast pwm mode can achieve a frequency of up
// 8 MHz (with a 16 MHz clock) at 50% duty cycle

#if defined(TCCR1B) && defined(CS11) && defined(CS10)
  TCCR1B = _BV(CS11); // Set timer 1 prescale factor to 64
     800:	e1 e8       	ldi	r30, 0x81	; 129
     802:	f0 e0       	ldi	r31, 0x00	; 0
     804:	82 e0       	ldi	r24, 0x02	; 2
     806:	80 83       	st	Z, r24
C:\Users\Kirpich\AppData\Local\Arduino15\packages\MiniCore\hardware\avr\3.1.1\cores\MCUdude_corefiles/wiring.c:997
#if F_CPU >= 8000000L
  TCCR1B |= _BV(CS10);
     808:	80 81       	ld	r24, Z
     80a:	81 60       	ori	r24, 0x01	; 1
     80c:	80 83       	st	Z, r24
C:\Users\Kirpich\AppData\Local\Arduino15\packages\MiniCore\hardware\avr\3.1.1\cores\MCUdude_corefiles/wiring.c:1006
#if F_CPU >= 8000000L
  TCCR1 |= _BV(CS10);
#endif
#endif
#if defined(TCCR1A) && defined(WGM10)
  TCCR1A |= _BV(WGM10); // Put timer 1 in 8-bit phase correct pwm mode
     80e:	e0 e8       	ldi	r30, 0x80	; 128
     810:	f0 e0       	ldi	r31, 0x00	; 0
     812:	80 81       	ld	r24, Z
     814:	81 60       	ori	r24, 0x01	; 1
     816:	80 83       	st	Z, r24
C:\Users\Kirpich\AppData\Local\Arduino15\packages\MiniCore\hardware\avr\3.1.1\cores\MCUdude_corefiles/wiring.c:1013

// Set timer 2 prescale factor to 64
#if defined(TCCR2) && defined(CS22)
  TCCR2 |= _BV(CS22);
#elif defined(TCCR2B) && defined(CS22)
  TCCR2B |= _BV(CS22);
     818:	e1 eb       	ldi	r30, 0xB1	; 177
     81a:	f0 e0       	ldi	r31, 0x00	; 0
     81c:	80 81       	ld	r24, Z
     81e:	84 60       	ori	r24, 0x04	; 4
     820:	80 83       	st	Z, r24
C:\Users\Kirpich\AppData\Local\Arduino15\packages\MiniCore\hardware\avr\3.1.1\cores\MCUdude_corefiles/wiring.c:1022

// Configure timer 2 for phase correct pwm (8-bit)
#if defined(TCCR2) && defined(WGM20)
  TCCR2 |= _BV(WGM20);
#elif defined(TCCR2A) && defined(WGM20)
  TCCR2A |= _BV(WGM20);
     822:	e0 eb       	ldi	r30, 0xB0	; 176
     824:	f0 e0       	ldi	r31, 0x00	; 0
     826:	80 81       	ld	r24, Z
     828:	81 60       	ori	r24, 0x01	; 1
     82a:	80 83       	st	Z, r24
C:\Users\Kirpich\AppData\Local\Arduino15\packages\MiniCore\hardware\avr\3.1.1\cores\MCUdude_corefiles/wiring.c:1052
#if defined(ADCSRA)
  // set a2d prescaler so we are inside the desired 50-200 KHz range.
  #if F_CPU >= 16000000 // 16 MHz / 128 = 125 KHz
    ADCSRA = _BV(ADPS2) | _BV(ADPS1) | _BV(ADPS0) | _BV(ADEN);
  #elif F_CPU >= 8000000 // 8 MHz / 64 = 125 KHz
    ADCSRA = _BV(ADPS2) | _BV(ADPS1) | _BV(ADEN);
     82c:	86 e8       	ldi	r24, 0x86	; 134
     82e:	80 93 7a 00 	sts	0x007A, r24	; 0x80007a <__DATA_REGION_ORIGIN__+0x1a>
C:\Users\Kirpich\AppData\Local\Arduino15\packages\MiniCore\hardware\avr\3.1.1\cores\MCUdude_corefiles/wiring.c:1070
  // here so they can be used as normal digital i/o; they will be
  // reconnected in Serial.begin()
#if defined(UCSRB)
  UCSRB = 0;
#elif defined(UCSR0B)
  UCSR0B = 0;
     832:	10 92 c1 00 	sts	0x00C1, r1	; 0x8000c1 <__DATA_REGION_ORIGIN__+0x61>
C:\Users\Kirpich\AppData\Local\Arduino15\packages\MiniCore\hardware\avr\3.1.1\cores\MCUdude_corefiles/wiring.c:1072
#endif
}
     836:	08 95       	ret

00000838 <delayMicroseconds>:
delayMicroseconds():
C:\Users\Kirpich\AppData\Local\Arduino15\packages\MiniCore\hardware\avr\3.1.1\cores\MCUdude_corefiles/wiring.c:761
              // 2 cycles to jump back to delay cycle.
  }

#elif F_CPU >= 8000000L
  // for the 8 MHz clock
  __asm__ __volatile__ (
     838:	00 00       	nop
     83a:	00 00       	nop
C:\Users\Kirpich\AppData\Local\Arduino15\packages\MiniCore\hardware\avr\3.1.1\cores\MCUdude_corefiles/wiring.c:767
    "nop" "\n\t"
    "nop"); //just waiting 2 cycles

  // for a 1 and 2 microsecond delay, simply return.  the overhead
  // of the function call takes 16 (18) cycles, which is 2us
  if (us <= 2) return; // = 3 cycles, (4 when true)
     83c:	83 30       	cpi	r24, 0x03	; 3
     83e:	91 05       	cpc	r25, r1
     840:	28 f0       	brcs	.+10     	; 0x84c <delayMicroseconds+0x14>
C:\Users\Kirpich\AppData\Local\Arduino15\packages\MiniCore\hardware\avr\3.1.1\cores\MCUdude_corefiles/wiring.c:772

  // the following loop takes 1/2 of a microsecond (4 cycles)
  // per iteration, so execute it twice for each microsecond of
  // delay requested.
  us <<= 1; //x2 us, = 2 cycles
     842:	88 0f       	add	r24, r24
     844:	99 1f       	adc	r25, r25
C:\Users\Kirpich\AppData\Local\Arduino15\packages\MiniCore\hardware\avr\3.1.1\cores\MCUdude_corefiles/wiring.c:777

  // account for the time taken in the preceeding commands.
  // we just burned 19 (21) cycles above, remove 5, (5*4=20)
  // us is at least 6 so we can substract 5
  us -= 5; // = 2 cycles
     846:	05 97       	sbiw	r24, 0x05	; 5
C:\Users\Kirpich\AppData\Local\Arduino15\packages\MiniCore\hardware\avr\3.1.1\cores\MCUdude_corefiles/wiring.c:929
  us >>= 2; // us div 4, = 4 cycles

#endif

  // busy wait
  __asm__ __volatile__ (
     848:	01 97       	sbiw	r24, 0x01	; 1
     84a:	f1 f7       	brne	.-4      	; 0x848 <delayMicroseconds+0x10>
C:\Users\Kirpich\AppData\Local\Arduino15\packages\MiniCore\hardware\avr\3.1.1\cores\MCUdude_corefiles/wiring.c:939
    "   brne 1b"                     // 2 cycles
    : /* no outputs */
    : "w" (us)
  );
  // return = 4 cycles
}
     84c:	08 95       	ret

0000084e <millis>:
millis():
C:\Users\Kirpich\AppData\Local\Arduino15\packages\MiniCore\hardware\avr\3.1.1\cores\MCUdude_corefiles/wiring.c:218
}

unsigned long millis()
{
  unsigned long m;
  uint8_t oldSREG = SREG;
     84e:	2f b7       	in	r18, 0x3f	; 63
C:\Users\Kirpich\AppData\Local\Arduino15\packages\MiniCore\hardware\avr\3.1.1\cores\MCUdude_corefiles/wiring.c:222

  // disable interrupts while we read timer0_millis or we might get an
  // inconsistent value (e.g. in the middle of a write to timer0_millis)
  cli();
     850:	f8 94       	cli
C:\Users\Kirpich\AppData\Local\Arduino15\packages\MiniCore\hardware\avr\3.1.1\cores\MCUdude_corefiles/wiring.c:223
  m = timer0_millis;
     852:	60 91 ea 02 	lds	r22, 0x02EA	; 0x8002ea <timer0_millis>
     856:	70 91 eb 02 	lds	r23, 0x02EB	; 0x8002eb <timer0_millis+0x1>
     85a:	80 91 ec 02 	lds	r24, 0x02EC	; 0x8002ec <timer0_millis+0x2>
     85e:	90 91 ed 02 	lds	r25, 0x02ED	; 0x8002ed <timer0_millis+0x3>
C:\Users\Kirpich\AppData\Local\Arduino15\packages\MiniCore\hardware\avr\3.1.1\cores\MCUdude_corefiles/wiring.c:224
  SREG = oldSREG;
     862:	2f bf       	out	0x3f, r18	; 63
C:\Users\Kirpich\AppData\Local\Arduino15\packages\MiniCore\hardware\avr\3.1.1\cores\MCUdude_corefiles/wiring.c:227

  return m;
}
     864:	08 95       	ret

00000866 <initVariant>:
initVariant():
C:\Users\Kirpich\AppData\Local\Arduino15\packages\MiniCore\hardware\avr\3.1.1\cores\MCUdude_corefiles/main.cpp:28
int atexit(void (* /*func*/ )()) { return 0; }

// Weak empty variant initialization function.
// May be redefined by variant files.
void initVariant() __attribute__((weak));
void initVariant() { }
     866:	08 95       	ret

00000868 <map(long, long, long, long, long)>:
_Z3maplllll():
C:\Users\Kirpich\AppData\Local\Arduino15\packages\MiniCore\hardware\avr\3.1.1\cores\MCUdude_corefiles/WMath.cpp:53
  long diff = howbig - howsmall;
  return random(diff) + howsmall;
}

long map(long x, long in_min, long in_max, long out_min, long out_max)
{
     868:	4f 92       	push	r4
     86a:	5f 92       	push	r5
     86c:	6f 92       	push	r6
     86e:	7f 92       	push	r7
     870:	af 92       	push	r10
     872:	bf 92       	push	r11
     874:	cf 92       	push	r12
     876:	df 92       	push	r13
     878:	ef 92       	push	r14
     87a:	ff 92       	push	r15
     87c:	0f 93       	push	r16
     87e:	1f 93       	push	r17
     880:	cf 93       	push	r28
     882:	df 93       	push	r29
     884:	cd b7       	in	r28, 0x3d	; 61
     886:	de b7       	in	r29, 0x3e	; 62
     888:	29 01       	movw	r4, r18
     88a:	3a 01       	movw	r6, r20
C:\Users\Kirpich\AppData\Local\Arduino15\packages\MiniCore\hardware\avr\3.1.1\cores\MCUdude_corefiles/WMath.cpp:54
  return (x - in_min) * (out_max - out_min) / (in_max - in_min) + out_min;
     88c:	9b 01       	movw	r18, r22
     88e:	ac 01       	movw	r20, r24
     890:	24 19       	sub	r18, r4
     892:	35 09       	sbc	r19, r5
     894:	46 09       	sbc	r20, r6
     896:	57 09       	sbc	r21, r7
     898:	89 89       	ldd	r24, Y+17	; 0x11
     89a:	9a 89       	ldd	r25, Y+18	; 0x12
     89c:	ab 89       	ldd	r26, Y+19	; 0x13
     89e:	bc 89       	ldd	r27, Y+20	; 0x14
     8a0:	bc 01       	movw	r22, r24
     8a2:	cd 01       	movw	r24, r26
     8a4:	6a 19       	sub	r22, r10
     8a6:	7b 09       	sbc	r23, r11
     8a8:	8c 09       	sbc	r24, r12
     8aa:	9d 09       	sbc	r25, r13
     8ac:	0e 94 5c 1a 	call	0x34b8	; 0x34b8 <__mulsi3>
     8b0:	a8 01       	movw	r20, r16
     8b2:	97 01       	movw	r18, r14
     8b4:	24 19       	sub	r18, r4
     8b6:	35 09       	sbc	r19, r5
     8b8:	46 09       	sbc	r20, r6
     8ba:	57 09       	sbc	r21, r7
     8bc:	0e 94 01 1a 	call	0x3402	; 0x3402 <__divmodsi4>
     8c0:	ca 01       	movw	r24, r20
     8c2:	b9 01       	movw	r22, r18
     8c4:	6a 0d       	add	r22, r10
     8c6:	7b 1d       	adc	r23, r11
     8c8:	8c 1d       	adc	r24, r12
     8ca:	9d 1d       	adc	r25, r13
C:\Users\Kirpich\AppData\Local\Arduino15\packages\MiniCore\hardware\avr\3.1.1\cores\MCUdude_corefiles/WMath.cpp:55
}
     8cc:	df 91       	pop	r29
     8ce:	cf 91       	pop	r28
     8d0:	1f 91       	pop	r17
     8d2:	0f 91       	pop	r16
     8d4:	ff 90       	pop	r15
     8d6:	ef 90       	pop	r14
     8d8:	df 90       	pop	r13
     8da:	cf 90       	pop	r12
     8dc:	bf 90       	pop	r11
     8de:	af 90       	pop	r10
     8e0:	7f 90       	pop	r7
     8e2:	6f 90       	pop	r6
     8e4:	5f 90       	pop	r5
     8e6:	4f 90       	pop	r4
     8e8:	08 95       	ret

000008ea <Print::print(__FlashStringHelper const*)>:
_ZN5Print5printEPK19__FlashStringHelper():
C:\Users\Kirpich\AppData\Local\Arduino15\packages\MiniCore\hardware\avr\3.1.1\cores\MCUdude_corefiles/Print.cpp:45
  }
  return n;
}

size_t Print::print(const __FlashStringHelper *ifsh)
{
     8ea:	ef 92       	push	r14
     8ec:	ff 92       	push	r15
     8ee:	0f 93       	push	r16
     8f0:	1f 93       	push	r17
     8f2:	cf 93       	push	r28
     8f4:	df 93       	push	r29
     8f6:	8c 01       	movw	r16, r24
     8f8:	fb 01       	movw	r30, r22
C:\Users\Kirpich\AppData\Local\Arduino15\packages\MiniCore\hardware\avr\3.1.1\cores\MCUdude_corefiles/Print.cpp:47
  PGM_P p = reinterpret_cast<PGM_P>(ifsh);
  size_t n = 0;
     8fa:	d0 e0       	ldi	r29, 0x00	; 0
     8fc:	c0 e0       	ldi	r28, 0x00	; 0
C:\Users\Kirpich\AppData\Local\Arduino15\packages\MiniCore\hardware\avr\3.1.1\cores\MCUdude_corefiles/Print.cpp:49
  while (1) {
    unsigned char c = pgm_read_byte(p++);
     8fe:	7f 01       	movw	r14, r30
     900:	8f ef       	ldi	r24, 0xFF	; 255
     902:	e8 1a       	sub	r14, r24
     904:	f8 0a       	sbc	r15, r24
     906:	64 91       	lpm	r22, Z
C:\Users\Kirpich\AppData\Local\Arduino15\packages\MiniCore\hardware\avr\3.1.1\cores\MCUdude_corefiles/Print.cpp:50
    if (c == 0) break;
     908:	66 23       	and	r22, r22
     90a:	69 f0       	breq	.+26     	; 0x926 <__stack+0x27>
C:\Users\Kirpich\AppData\Local\Arduino15\packages\MiniCore\hardware\avr\3.1.1\cores\MCUdude_corefiles/Print.cpp:51
    if (write(c)) n++;
     90c:	d8 01       	movw	r26, r16
     90e:	ed 91       	ld	r30, X+
     910:	fc 91       	ld	r31, X
     912:	01 90       	ld	r0, Z+
     914:	f0 81       	ld	r31, Z
     916:	e0 2d       	mov	r30, r0
     918:	c8 01       	movw	r24, r16
     91a:	09 95       	icall
     91c:	89 2b       	or	r24, r25
     91e:	19 f0       	breq	.+6      	; 0x926 <__stack+0x27>
     920:	21 96       	adiw	r28, 0x01	; 1
C:\Users\Kirpich\AppData\Local\Arduino15\packages\MiniCore\hardware\avr\3.1.1\cores\MCUdude_corefiles/Print.cpp:49
size_t Print::print(const __FlashStringHelper *ifsh)
{
  PGM_P p = reinterpret_cast<PGM_P>(ifsh);
  size_t n = 0;
  while (1) {
    unsigned char c = pgm_read_byte(p++);
     922:	f7 01       	movw	r30, r14
     924:	ec cf       	rjmp	.-40     	; 0x8fe <Print::print(__FlashStringHelper const*)+0x14>
C:\Users\Kirpich\AppData\Local\Arduino15\packages\MiniCore\hardware\avr\3.1.1\cores\MCUdude_corefiles/Print.cpp:55
    if (c == 0) break;
    if (write(c)) n++;
    else break;
  }
  return n;
}
     926:	ce 01       	movw	r24, r28
     928:	df 91       	pop	r29
     92a:	cf 91       	pop	r28
     92c:	1f 91       	pop	r17
     92e:	0f 91       	pop	r16
     930:	ff 90       	pop	r15
     932:	ef 90       	pop	r14
     934:	08 95       	ret

00000936 <Print::write(unsigned char const*, unsigned int)>:
_ZN5Print5writeEPKhj():
C:\Users\Kirpich\AppData\Local\Arduino15\packages\MiniCore\hardware\avr\3.1.1\cores\MCUdude_corefiles/Print.cpp:35

// Public Methods //////////////////////////////////////////////////////////////

/* default implementation: may be overridden */
size_t Print::write(const uint8_t *buffer, size_t size)
{
     936:	cf 92       	push	r12
     938:	df 92       	push	r13
     93a:	ef 92       	push	r14
     93c:	ff 92       	push	r15
     93e:	0f 93       	push	r16
     940:	1f 93       	push	r17
     942:	cf 93       	push	r28
     944:	df 93       	push	r29
     946:	8c 01       	movw	r16, r24
     948:	db 01       	movw	r26, r22
C:\Users\Kirpich\AppData\Local\Arduino15\packages\MiniCore\hardware\avr\3.1.1\cores\MCUdude_corefiles/Print.cpp:36
  size_t n = 0;
     94a:	d0 e0       	ldi	r29, 0x00	; 0
     94c:	c0 e0       	ldi	r28, 0x00	; 0
C:\Users\Kirpich\AppData\Local\Arduino15\packages\MiniCore\hardware\avr\3.1.1\cores\MCUdude_corefiles/Print.cpp:37
  while (size--) {
     94e:	7a 01       	movw	r14, r20
     950:	81 e0       	ldi	r24, 0x01	; 1
     952:	e8 1a       	sub	r14, r24
     954:	f1 08       	sbc	r15, r1
     956:	45 2b       	or	r20, r21
     958:	a1 f0       	breq	.+40     	; 0x982 <Print::write(unsigned char const*, unsigned int)+0x4c>
C:\Users\Kirpich\AppData\Local\Arduino15\packages\MiniCore\hardware\avr\3.1.1\cores\MCUdude_corefiles/Print.cpp:38
    if (write(*buffer++)) n++;
     95a:	f8 01       	movw	r30, r16
     95c:	80 81       	ld	r24, Z
     95e:	91 81       	ldd	r25, Z+1	; 0x01
     960:	fc 01       	movw	r30, r24
     962:	20 81       	ld	r18, Z
     964:	31 81       	ldd	r19, Z+1	; 0x01
     966:	6d 01       	movw	r12, r26
     968:	ff ef       	ldi	r31, 0xFF	; 255
     96a:	cf 1a       	sub	r12, r31
     96c:	df 0a       	sbc	r13, r31
     96e:	6c 91       	ld	r22, X
     970:	c8 01       	movw	r24, r16
     972:	f9 01       	movw	r30, r18
     974:	09 95       	icall
     976:	89 2b       	or	r24, r25
     978:	21 f0       	breq	.+8      	; 0x982 <Print::write(unsigned char const*, unsigned int)+0x4c>
     97a:	21 96       	adiw	r28, 0x01	; 1
C:\Users\Kirpich\AppData\Local\Arduino15\packages\MiniCore\hardware\avr\3.1.1\cores\MCUdude_corefiles/Print.cpp:37

/* default implementation: may be overridden */
size_t Print::write(const uint8_t *buffer, size_t size)
{
  size_t n = 0;
  while (size--) {
     97c:	a7 01       	movw	r20, r14
C:\Users\Kirpich\AppData\Local\Arduino15\packages\MiniCore\hardware\avr\3.1.1\cores\MCUdude_corefiles/Print.cpp:38
    if (write(*buffer++)) n++;
     97e:	d6 01       	movw	r26, r12
     980:	e6 cf       	rjmp	.-52     	; 0x94e <Print::write(unsigned char const*, unsigned int)+0x18>
C:\Users\Kirpich\AppData\Local\Arduino15\packages\MiniCore\hardware\avr\3.1.1\cores\MCUdude_corefiles/Print.cpp:42
    else break;
  }
  return n;
}
     982:	ce 01       	movw	r24, r28
     984:	df 91       	pop	r29
     986:	cf 91       	pop	r28
     988:	1f 91       	pop	r17
     98a:	0f 91       	pop	r16
     98c:	ff 90       	pop	r15
     98e:	ef 90       	pop	r14
     990:	df 90       	pop	r13
     992:	cf 90       	pop	r12
     994:	08 95       	ret

00000996 <__static_initialization_and_destruction_0(int, int) [clone .lto_priv.1]>:
_Z41__static_initialization_and_destruction_0ii.lto_priv.1():
C:\Users\Kirpich\AppData\Local\Arduino15\packages\MiniCore\hardware\avr\3.1.1\cores\MCUdude_corefiles/HardwareSerial0.cpp:77

// Function that can be weakly referenced by serialEventRun to prevent
// pulling in this file if it's not otherwise used.
bool Serial0_available() {
  return Serial.available();
}
     996:	01 97       	sbiw	r24, 0x01	; 1
     998:	09 f0       	breq	.+2      	; 0x99c <__static_initialization_and_destruction_0(int, int) [clone .lto_priv.1]+0x6>
     99a:	08 95       	ret
     99c:	6f 3f       	cpi	r22, 0xFF	; 255
     99e:	7f 4f       	sbci	r23, 0xFF	; 255
     9a0:	e1 f7       	brne	.-8      	; 0x99a <__static_initialization_and_destruction_0(int, int) [clone .lto_priv.1]+0x4>
_ZN5PrintC2Ev():
C:\Users\Kirpich\AppData\Local\Arduino15\packages\MiniCore\hardware\avr\3.1.1\cores\MCUdude_corefiles/Print.h:46
    size_t printNumber(unsigned long, uint8_t);
    size_t printFloat(double, uint8_t);
  protected:
    void setWriteError(int err = 1) { write_error = err; }
  public:
    Print() : write_error(0) {}
     9a2:	e8 e4       	ldi	r30, 0x48	; 72
     9a4:	f2 e0       	ldi	r31, 0x02	; 2
     9a6:	13 82       	std	Z+3, r1	; 0x03
     9a8:	12 82       	std	Z+2, r1	; 0x02
_ZN6StreamC2Ev():
C:\Users\Kirpich\AppData\Local\Arduino15\packages\MiniCore\hardware\avr\3.1.1\cores\MCUdude_corefiles/Stream.h:63
  public:
    virtual int available() = 0;
    virtual int read() = 0;
    virtual int peek() = 0;

    Stream() {_timeout=1000;}
     9aa:	88 ee       	ldi	r24, 0xE8	; 232
     9ac:	93 e0       	ldi	r25, 0x03	; 3
     9ae:	a0 e0       	ldi	r26, 0x00	; 0
     9b0:	b0 e0       	ldi	r27, 0x00	; 0
     9b2:	84 83       	std	Z+4, r24	; 0x04
     9b4:	95 83       	std	Z+5, r25	; 0x05
     9b6:	a6 83       	std	Z+6, r26	; 0x06
     9b8:	b7 83       	std	Z+7, r27	; 0x07
_ZN14HardwareSerialC2EPVhS1_S1_S1_S1_S1_():
C:\Users\Kirpich\AppData\Local\Arduino15\packages\MiniCore\hardware\avr\3.1.1\cores\MCUdude_corefiles/HardwareSerial_private.h:92
  volatile uint8_t *ucsrc, volatile uint8_t *udr) :
    _ubrrh(ubrrh), _ubrrl(ubrrl),
    _ucsra(ucsra), _ucsrb(ucsrb), _ucsrc(ucsrc),
    _udr(udr),
    _rx_buffer_head(0), _rx_buffer_tail(0),
    _tx_buffer_head(0), _tx_buffer_tail(0)
     9ba:	8d e1       	ldi	r24, 0x1D	; 29
     9bc:	91 e0       	ldi	r25, 0x01	; 1
     9be:	91 83       	std	Z+1, r25	; 0x01
     9c0:	80 83       	st	Z, r24
     9c2:	85 ec       	ldi	r24, 0xC5	; 197
     9c4:	90 e0       	ldi	r25, 0x00	; 0
     9c6:	95 87       	std	Z+13, r25	; 0x0d
     9c8:	84 87       	std	Z+12, r24	; 0x0c
     9ca:	84 ec       	ldi	r24, 0xC4	; 196
     9cc:	90 e0       	ldi	r25, 0x00	; 0
     9ce:	97 87       	std	Z+15, r25	; 0x0f
     9d0:	86 87       	std	Z+14, r24	; 0x0e
     9d2:	80 ec       	ldi	r24, 0xC0	; 192
     9d4:	90 e0       	ldi	r25, 0x00	; 0
     9d6:	91 8b       	std	Z+17, r25	; 0x11
     9d8:	80 8b       	std	Z+16, r24	; 0x10
     9da:	81 ec       	ldi	r24, 0xC1	; 193
     9dc:	90 e0       	ldi	r25, 0x00	; 0
     9de:	93 8b       	std	Z+19, r25	; 0x13
     9e0:	82 8b       	std	Z+18, r24	; 0x12
     9e2:	82 ec       	ldi	r24, 0xC2	; 194
     9e4:	90 e0       	ldi	r25, 0x00	; 0
     9e6:	95 8b       	std	Z+21, r25	; 0x15
     9e8:	84 8b       	std	Z+20, r24	; 0x14
     9ea:	86 ec       	ldi	r24, 0xC6	; 198
     9ec:	90 e0       	ldi	r25, 0x00	; 0
     9ee:	97 8b       	std	Z+23, r25	; 0x17
     9f0:	86 8b       	std	Z+22, r24	; 0x16
     9f2:	11 8e       	std	Z+25, r1	; 0x19
     9f4:	12 8e       	std	Z+26, r1	; 0x1a
     9f6:	13 8e       	std	Z+27, r1	; 0x1b
     9f8:	14 8e       	std	Z+28, r1	; 0x1c
     9fa:	cf cf       	rjmp	.-98     	; 0x99a <__static_initialization_and_destruction_0(int, int) [clone .lto_priv.1]+0x4>

000009fc <HardwareSerial::availableForWrite()>:
_ZN14HardwareSerial17availableForWriteEv():
C:\Users\Kirpich\AppData\Local\Arduino15\packages\MiniCore\hardware\avr\3.1.1\cores\MCUdude_corefiles/HardwareSerial.cpp:190
    return c;
  }
}

int HardwareSerial::availableForWrite(void)
{
     9fc:	fc 01       	movw	r30, r24
C:\Users\Kirpich\AppData\Local\Arduino15\packages\MiniCore\hardware\avr\3.1.1\cores\MCUdude_corefiles/HardwareSerial.cpp:195
  tx_buffer_index_t head;
  tx_buffer_index_t tail;

  TX_BUFFER_ATOMIC {
    head = _tx_buffer_head;
     9fe:	93 8d       	ldd	r25, Z+27	; 0x1b
C:\Users\Kirpich\AppData\Local\Arduino15\packages\MiniCore\hardware\avr\3.1.1\cores\MCUdude_corefiles/HardwareSerial.cpp:196
    tail = _tx_buffer_tail;
     a00:	84 8d       	ldd	r24, Z+28	; 0x1c
C:\Users\Kirpich\AppData\Local\Arduino15\packages\MiniCore\hardware\avr\3.1.1\cores\MCUdude_corefiles/HardwareSerial.cpp:198
  }
  if (head >= tail) return SERIAL_TX_BUFFER_SIZE - 1 - head + tail;
     a02:	98 17       	cp	r25, r24
     a04:	20 f4       	brcc	.+8      	; 0xa0e <HardwareSerial::availableForWrite()+0x12>
C:\Users\Kirpich\AppData\Local\Arduino15\packages\MiniCore\hardware\avr\3.1.1\cores\MCUdude_corefiles/HardwareSerial.cpp:199
  return tail - head - 1;
     a06:	89 1b       	sub	r24, r25
     a08:	99 0b       	sbc	r25, r25
     a0a:	01 97       	sbiw	r24, 0x01	; 1
C:\Users\Kirpich\AppData\Local\Arduino15\packages\MiniCore\hardware\avr\3.1.1\cores\MCUdude_corefiles/HardwareSerial.cpp:200
}
     a0c:	08 95       	ret
C:\Users\Kirpich\AppData\Local\Arduino15\packages\MiniCore\hardware\avr\3.1.1\cores\MCUdude_corefiles/HardwareSerial.cpp:198

  TX_BUFFER_ATOMIC {
    head = _tx_buffer_head;
    tail = _tx_buffer_tail;
  }
  if (head >= tail) return SERIAL_TX_BUFFER_SIZE - 1 - head + tail;
     a0e:	2f e3       	ldi	r18, 0x3F	; 63
     a10:	30 e0       	ldi	r19, 0x00	; 0
     a12:	29 1b       	sub	r18, r25
     a14:	31 09       	sbc	r19, r1
     a16:	82 0f       	add	r24, r18
     a18:	93 2f       	mov	r25, r19
     a1a:	91 1d       	adc	r25, r1
     a1c:	08 95       	ret

00000a1e <HardwareSerial::read()>:
_ZN14HardwareSerial4readEv():
C:\Users\Kirpich\AppData\Local\Arduino15\packages\MiniCore\hardware\avr\3.1.1\cores\MCUdude_corefiles/HardwareSerial.cpp:178
    return _rx_buffer[_rx_buffer_tail];
  }
}

int HardwareSerial::read(void)
{
     a1e:	fc 01       	movw	r30, r24
C:\Users\Kirpich\AppData\Local\Arduino15\packages\MiniCore\hardware\avr\3.1.1\cores\MCUdude_corefiles/HardwareSerial.cpp:180
  // if the head isn't ahead of the tail, we don't have any characters
  if (_rx_buffer_head == _rx_buffer_tail) {
     a20:	91 8d       	ldd	r25, Z+25	; 0x19
     a22:	82 8d       	ldd	r24, Z+26	; 0x1a
     a24:	98 17       	cp	r25, r24
     a26:	61 f0       	breq	.+24     	; 0xa40 <HardwareSerial::read()+0x22>
C:\Users\Kirpich\AppData\Local\Arduino15\packages\MiniCore\hardware\avr\3.1.1\cores\MCUdude_corefiles/HardwareSerial.cpp:183
    return -1;
  } else {
    unsigned char c = _rx_buffer[_rx_buffer_tail];
     a28:	a2 8d       	ldd	r26, Z+26	; 0x1a
     a2a:	ae 0f       	add	r26, r30
     a2c:	bf 2f       	mov	r27, r31
     a2e:	b1 1d       	adc	r27, r1
     a30:	5d 96       	adiw	r26, 0x1d	; 29
     a32:	8c 91       	ld	r24, X
C:\Users\Kirpich\AppData\Local\Arduino15\packages\MiniCore\hardware\avr\3.1.1\cores\MCUdude_corefiles/HardwareSerial.cpp:184
    _rx_buffer_tail = (rx_buffer_index_t)(_rx_buffer_tail + 1) % SERIAL_RX_BUFFER_SIZE;
     a34:	92 8d       	ldd	r25, Z+26	; 0x1a
     a36:	9f 5f       	subi	r25, 0xFF	; 255
     a38:	9f 73       	andi	r25, 0x3F	; 63
     a3a:	92 8f       	std	Z+26, r25	; 0x1a
C:\Users\Kirpich\AppData\Local\Arduino15\packages\MiniCore\hardware\avr\3.1.1\cores\MCUdude_corefiles/HardwareSerial.cpp:185
    return c;
     a3c:	90 e0       	ldi	r25, 0x00	; 0
     a3e:	08 95       	ret
C:\Users\Kirpich\AppData\Local\Arduino15\packages\MiniCore\hardware\avr\3.1.1\cores\MCUdude_corefiles/HardwareSerial.cpp:181

int HardwareSerial::read(void)
{
  // if the head isn't ahead of the tail, we don't have any characters
  if (_rx_buffer_head == _rx_buffer_tail) {
    return -1;
     a40:	8f ef       	ldi	r24, 0xFF	; 255
     a42:	9f ef       	ldi	r25, 0xFF	; 255
C:\Users\Kirpich\AppData\Local\Arduino15\packages\MiniCore\hardware\avr\3.1.1\cores\MCUdude_corefiles/HardwareSerial.cpp:187
  } else {
    unsigned char c = _rx_buffer[_rx_buffer_tail];
    _rx_buffer_tail = (rx_buffer_index_t)(_rx_buffer_tail + 1) % SERIAL_RX_BUFFER_SIZE;
    return c;
  }
}
     a44:	08 95       	ret

00000a46 <HardwareSerial::peek()>:
_ZN14HardwareSerial4peekEv():
C:\Users\Kirpich\AppData\Local\Arduino15\packages\MiniCore\hardware\avr\3.1.1\cores\MCUdude_corefiles/HardwareSerial.cpp:169
{
  return ((unsigned int)(SERIAL_RX_BUFFER_SIZE + _rx_buffer_head - _rx_buffer_tail)) % SERIAL_RX_BUFFER_SIZE;
}

int HardwareSerial::peek(void)
{
     a46:	fc 01       	movw	r30, r24
C:\Users\Kirpich\AppData\Local\Arduino15\packages\MiniCore\hardware\avr\3.1.1\cores\MCUdude_corefiles/HardwareSerial.cpp:170
  if (_rx_buffer_head == _rx_buffer_tail) {
     a48:	91 8d       	ldd	r25, Z+25	; 0x19
     a4a:	82 8d       	ldd	r24, Z+26	; 0x1a
     a4c:	98 17       	cp	r25, r24
     a4e:	31 f0       	breq	.+12     	; 0xa5c <HardwareSerial::peek()+0x16>
C:\Users\Kirpich\AppData\Local\Arduino15\packages\MiniCore\hardware\avr\3.1.1\cores\MCUdude_corefiles/HardwareSerial.cpp:173
    return -1;
  } else {
    return _rx_buffer[_rx_buffer_tail];
     a50:	82 8d       	ldd	r24, Z+26	; 0x1a
     a52:	e8 0f       	add	r30, r24
     a54:	f1 1d       	adc	r31, r1
     a56:	85 8d       	ldd	r24, Z+29	; 0x1d
     a58:	90 e0       	ldi	r25, 0x00	; 0
     a5a:	08 95       	ret
C:\Users\Kirpich\AppData\Local\Arduino15\packages\MiniCore\hardware\avr\3.1.1\cores\MCUdude_corefiles/HardwareSerial.cpp:171
}

int HardwareSerial::peek(void)
{
  if (_rx_buffer_head == _rx_buffer_tail) {
    return -1;
     a5c:	8f ef       	ldi	r24, 0xFF	; 255
     a5e:	9f ef       	ldi	r25, 0xFF	; 255
C:\Users\Kirpich\AppData\Local\Arduino15\packages\MiniCore\hardware\avr\3.1.1\cores\MCUdude_corefiles/HardwareSerial.cpp:175
  } else {
    return _rx_buffer[_rx_buffer_tail];
  }
}
     a60:	08 95       	ret

00000a62 <HardwareSerial::available()>:
_ZN14HardwareSerial9availableEv():
C:\Users\Kirpich\AppData\Local\Arduino15\packages\MiniCore\hardware\avr\3.1.1\cores\MCUdude_corefiles/HardwareSerial.cpp:165
  _rx_buffer_head = _rx_buffer_tail;
}

int HardwareSerial::available(void)
{
  return ((unsigned int)(SERIAL_RX_BUFFER_SIZE + _rx_buffer_head - _rx_buffer_tail)) % SERIAL_RX_BUFFER_SIZE;
     a62:	fc 01       	movw	r30, r24
     a64:	21 8d       	ldd	r18, Z+25	; 0x19
     a66:	30 e0       	ldi	r19, 0x00	; 0
     a68:	20 5c       	subi	r18, 0xC0	; 192
     a6a:	3f 4f       	sbci	r19, 0xFF	; 255
     a6c:	82 8d       	ldd	r24, Z+26	; 0x1a
     a6e:	a9 01       	movw	r20, r18
     a70:	48 1b       	sub	r20, r24
     a72:	51 09       	sbc	r21, r1
     a74:	ca 01       	movw	r24, r20
C:\Users\Kirpich\AppData\Local\Arduino15\packages\MiniCore\hardware\avr\3.1.1\cores\MCUdude_corefiles/HardwareSerial.cpp:166
}
     a76:	8f 73       	andi	r24, 0x3F	; 63
     a78:	99 27       	eor	r25, r25
     a7a:	08 95       	ret

00000a7c <Serial0_available()>:
_Z17Serial0_availablev():
C:\Users\Kirpich\AppData\Local\Arduino15\packages\MiniCore\hardware\avr\3.1.1\cores\MCUdude_corefiles/HardwareSerial0.cpp:76
#endif

// Function that can be weakly referenced by serialEventRun to prevent
// pulling in this file if it's not otherwise used.
bool Serial0_available() {
  return Serial.available();
     a7c:	88 e4       	ldi	r24, 0x48	; 72
     a7e:	92 e0       	ldi	r25, 0x02	; 2
     a80:	0e 94 31 05 	call	0xa62	; 0xa62 <HardwareSerial::available()>
     a84:	21 e0       	ldi	r18, 0x01	; 1
     a86:	89 2b       	or	r24, r25
     a88:	09 f4       	brne	.+2      	; 0xa8c <Serial0_available()+0x10>
     a8a:	20 e0       	ldi	r18, 0x00	; 0
C:\Users\Kirpich\AppData\Local\Arduino15\packages\MiniCore\hardware\avr\3.1.1\cores\MCUdude_corefiles/HardwareSerial0.cpp:77
}
     a8c:	82 2f       	mov	r24, r18
     a8e:	08 95       	ret

00000a90 <HardwareSerial::begin(unsigned long, unsigned char)>:
_ZN14HardwareSerial5beginEmh():
C:\Users\Kirpich\AppData\Local\Arduino15\packages\MiniCore\hardware\avr\3.1.1\cores\MCUdude_corefiles/HardwareSerial.cpp:118
}

// Public Methods //////////////////////////////////////////////////////////////

void HardwareSerial::begin(unsigned long baud, byte config)
{
     a90:	cf 92       	push	r12
     a92:	df 92       	push	r13
     a94:	ef 92       	push	r14
     a96:	ff 92       	push	r15
     a98:	1f 93       	push	r17
     a9a:	cf 93       	push	r28
     a9c:	df 93       	push	r29
     a9e:	ec 01       	movw	r28, r24
     aa0:	6a 01       	movw	r12, r20
     aa2:	7b 01       	movw	r14, r22
     aa4:	12 2f       	mov	r17, r18
C:\Users\Kirpich\AppData\Local\Arduino15\packages\MiniCore\hardware\avr\3.1.1\cores\MCUdude_corefiles/HardwareSerial.cpp:120
  // Try u2x mode first
  uint16_t baud_setting = (F_CPU / 4 / baud - 1) / 2;
     aa6:	60 e8       	ldi	r22, 0x80	; 128
     aa8:	74 e8       	ldi	r23, 0x84	; 132
     aaa:	8e e1       	ldi	r24, 0x1E	; 30
     aac:	90 e0       	ldi	r25, 0x00	; 0
     aae:	a7 01       	movw	r20, r14
     ab0:	96 01       	movw	r18, r12
     ab2:	0e 94 2b 1a 	call	0x3456	; 0x3456 <__udivmodsi4>
     ab6:	21 50       	subi	r18, 0x01	; 1
     ab8:	31 09       	sbc	r19, r1
     aba:	41 09       	sbc	r20, r1
     abc:	51 09       	sbc	r21, r1
     abe:	56 95       	lsr	r21
     ac0:	47 95       	ror	r20
     ac2:	37 95       	ror	r19
     ac4:	27 95       	ror	r18
C:\Users\Kirpich\AppData\Local\Arduino15\packages\MiniCore\hardware\avr\3.1.1\cores\MCUdude_corefiles/HardwareSerial.cpp:121
  *_ucsra = 1 << U2X0;
     ac6:	e8 89       	ldd	r30, Y+16	; 0x10
     ac8:	f9 89       	ldd	r31, Y+17	; 0x11
     aca:	82 e0       	ldi	r24, 0x02	; 2
     acc:	80 83       	st	Z, r24
C:\Users\Kirpich\AppData\Local\Arduino15\packages\MiniCore\hardware\avr\3.1.1\cores\MCUdude_corefiles/HardwareSerial.cpp:128
  // hardcoded exception for 57600 for compatibility with the bootloader
  // shipped with the Duemilanove and previous boards and the firmware
  // on the 8U2 on the Uno and Mega 2560. Also, The baud_setting cannot
  // be > 4095, so switch back to non-u2x mode if the baud rate is too
  // low.
  if (((F_CPU == 16000000UL) && (baud == 57600)) || (baud_setting >4095))
     ace:	21 15       	cp	r18, r1
     ad0:	80 e1       	ldi	r24, 0x10	; 16
     ad2:	38 07       	cpc	r19, r24
     ad4:	98 f0       	brcs	.+38     	; 0xafc <HardwareSerial::begin(unsigned long, unsigned char)+0x6c>
C:\Users\Kirpich\AppData\Local\Arduino15\packages\MiniCore\hardware\avr\3.1.1\cores\MCUdude_corefiles/HardwareSerial.cpp:130
  {
    *_ucsra = 0;
     ad6:	e8 89       	ldd	r30, Y+16	; 0x10
     ad8:	f9 89       	ldd	r31, Y+17	; 0x11
     ada:	10 82       	st	Z, r1
C:\Users\Kirpich\AppData\Local\Arduino15\packages\MiniCore\hardware\avr\3.1.1\cores\MCUdude_corefiles/HardwareSerial.cpp:131
    baud_setting = (F_CPU / 8 / baud - 1) / 2;
     adc:	60 e4       	ldi	r22, 0x40	; 64
     ade:	72 e4       	ldi	r23, 0x42	; 66
     ae0:	8f e0       	ldi	r24, 0x0F	; 15
     ae2:	90 e0       	ldi	r25, 0x00	; 0
     ae4:	a7 01       	movw	r20, r14
     ae6:	96 01       	movw	r18, r12
     ae8:	0e 94 2b 1a 	call	0x3456	; 0x3456 <__udivmodsi4>
     aec:	21 50       	subi	r18, 0x01	; 1
     aee:	31 09       	sbc	r19, r1
     af0:	41 09       	sbc	r20, r1
     af2:	51 09       	sbc	r21, r1
     af4:	56 95       	lsr	r21
     af6:	47 95       	ror	r20
     af8:	37 95       	ror	r19
     afa:	27 95       	ror	r18
C:\Users\Kirpich\AppData\Local\Arduino15\packages\MiniCore\hardware\avr\3.1.1\cores\MCUdude_corefiles/HardwareSerial.cpp:135
  }

  // assign the baud_setting, a.k.a. ubrr (USART Baud Rate Register)
  *_ubrrh = baud_setting >> 8;
     afc:	ec 85       	ldd	r30, Y+12	; 0x0c
     afe:	fd 85       	ldd	r31, Y+13	; 0x0d
     b00:	30 83       	st	Z, r19
C:\Users\Kirpich\AppData\Local\Arduino15\packages\MiniCore\hardware\avr\3.1.1\cores\MCUdude_corefiles/HardwareSerial.cpp:136
  *_ubrrl = baud_setting;
     b02:	ee 85       	ldd	r30, Y+14	; 0x0e
     b04:	ff 85       	ldd	r31, Y+15	; 0x0f
     b06:	20 83       	st	Z, r18
C:\Users\Kirpich\AppData\Local\Arduino15\packages\MiniCore\hardware\avr\3.1.1\cores\MCUdude_corefiles/HardwareSerial.cpp:138

  _written = false;
     b08:	18 8e       	std	Y+24, r1	; 0x18
C:\Users\Kirpich\AppData\Local\Arduino15\packages\MiniCore\hardware\avr\3.1.1\cores\MCUdude_corefiles/HardwareSerial.cpp:146
#if defined(__AVR_ATmega8__) || defined(__AVR_ATmega8515__) || defined(__AVR_ATmega162__) \
|| defined(__AVR_ATmega8535__) || defined(__AVR_ATmega16__)|| defined(__AVR_ATmega32__)   \
|| defined(__AVR_ATmega162__)
  config |= 0x80; // select UCSRC register (shared with UBRRH)
#endif
  *_ucsrc = config;
     b0a:	ec 89       	ldd	r30, Y+20	; 0x14
     b0c:	fd 89       	ldd	r31, Y+21	; 0x15
     b0e:	10 83       	st	Z, r17
C:\Users\Kirpich\AppData\Local\Arduino15\packages\MiniCore\hardware\avr\3.1.1\cores\MCUdude_corefiles/HardwareSerial.cpp:148
  
  *_ucsrb |= _BV(RXEN0) | _BV(TXEN0) | _BV(RXCIE0);
     b10:	ea 89       	ldd	r30, Y+18	; 0x12
     b12:	fb 89       	ldd	r31, Y+19	; 0x13
     b14:	80 81       	ld	r24, Z
     b16:	88 69       	ori	r24, 0x98	; 152
     b18:	80 83       	st	Z, r24
C:\Users\Kirpich\AppData\Local\Arduino15\packages\MiniCore\hardware\avr\3.1.1\cores\MCUdude_corefiles/HardwareSerial.cpp:149
  *_ucsrb &= ~_BV(UDRIE0);
     b1a:	ea 89       	ldd	r30, Y+18	; 0x12
     b1c:	fb 89       	ldd	r31, Y+19	; 0x13
     b1e:	80 81       	ld	r24, Z
     b20:	8f 7d       	andi	r24, 0xDF	; 223
     b22:	80 83       	st	Z, r24
C:\Users\Kirpich\AppData\Local\Arduino15\packages\MiniCore\hardware\avr\3.1.1\cores\MCUdude_corefiles/HardwareSerial.cpp:150
}
     b24:	df 91       	pop	r29
     b26:	cf 91       	pop	r28
     b28:	1f 91       	pop	r17
     b2a:	ff 90       	pop	r15
     b2c:	ef 90       	pop	r14
     b2e:	df 90       	pop	r13
     b30:	cf 90       	pop	r12
     b32:	08 95       	ret

00000b34 <HardwareSerial::_tx_udr_empty_irq()>:
_ZN14HardwareSerial17_tx_udr_empty_irqEv():
C:\Users\Kirpich\AppData\Local\Arduino15\packages\MiniCore\hardware\avr\3.1.1\cores\MCUdude_corefiles/HardwareSerial.cpp:90
#endif

// Actual interrupt handlers //////////////////////////////////////////////////////////////

void HardwareSerial::_tx_udr_empty_irq(void)
{
     b34:	fc 01       	movw	r30, r24
C:\Users\Kirpich\AppData\Local\Arduino15\packages\MiniCore\hardware\avr\3.1.1\cores\MCUdude_corefiles/HardwareSerial.cpp:93
  // If interrupts are enabled, there must be more data in the output
  // buffer. Send the next byte
  unsigned char c = _tx_buffer[_tx_buffer_tail];
     b36:	a4 8d       	ldd	r26, Z+28	; 0x1c
     b38:	a8 0f       	add	r26, r24
     b3a:	b9 2f       	mov	r27, r25
     b3c:	b1 1d       	adc	r27, r1
     b3e:	a3 5a       	subi	r26, 0xA3	; 163
     b40:	bf 4f       	sbci	r27, 0xFF	; 255
     b42:	2c 91       	ld	r18, X
C:\Users\Kirpich\AppData\Local\Arduino15\packages\MiniCore\hardware\avr\3.1.1\cores\MCUdude_corefiles/HardwareSerial.cpp:94
  _tx_buffer_tail = (_tx_buffer_tail + 1) % SERIAL_TX_BUFFER_SIZE;
     b44:	84 8d       	ldd	r24, Z+28	; 0x1c
     b46:	90 e0       	ldi	r25, 0x00	; 0
     b48:	01 96       	adiw	r24, 0x01	; 1
     b4a:	8f 73       	andi	r24, 0x3F	; 63
     b4c:	90 78       	andi	r25, 0x80	; 128
     b4e:	84 8f       	std	Z+28, r24	; 0x1c
C:\Users\Kirpich\AppData\Local\Arduino15\packages\MiniCore\hardware\avr\3.1.1\cores\MCUdude_corefiles/HardwareSerial.cpp:96

  *_udr = c;
     b50:	a6 89       	ldd	r26, Z+22	; 0x16
     b52:	b7 89       	ldd	r27, Z+23	; 0x17
     b54:	2c 93       	st	X, r18
C:\Users\Kirpich\AppData\Local\Arduino15\packages\MiniCore\hardware\avr\3.1.1\cores\MCUdude_corefiles/HardwareSerial.cpp:104
  // location". This makes sure flush() won't return until the bytes
  // actually got written. Other r/w bits are preserved, and zeroes
  // written to the rest.

  #ifdef MPCM0
    *_ucsra = ((*_ucsra) & ((1 << U2X0) | (1 << MPCM0))) | (1 << TXC0);
     b56:	a0 89       	ldd	r26, Z+16	; 0x10
     b58:	b1 89       	ldd	r27, Z+17	; 0x11
     b5a:	8c 91       	ld	r24, X
     b5c:	83 70       	andi	r24, 0x03	; 3
     b5e:	80 64       	ori	r24, 0x40	; 64
     b60:	8c 93       	st	X, r24
C:\Users\Kirpich\AppData\Local\Arduino15\packages\MiniCore\hardware\avr\3.1.1\cores\MCUdude_corefiles/HardwareSerial.cpp:109
  #else
    *_ucsra = ((*_ucsra) & ((1 << U2X0) | (1 << TXC0)));
  #endif

  if (_tx_buffer_head == _tx_buffer_tail) {
     b62:	93 8d       	ldd	r25, Z+27	; 0x1b
     b64:	84 8d       	ldd	r24, Z+28	; 0x1c
     b66:	98 13       	cpse	r25, r24
C:\Users\Kirpich\AppData\Local\Arduino15\packages\MiniCore\hardware\avr\3.1.1\cores\MCUdude_corefiles/HardwareSerial.cpp:113
    // Buffer empty, so disable interrupts
    *_ucsrb &= ~_BV(UDRIE0);
  }
}
     b68:	08 95       	ret
C:\Users\Kirpich\AppData\Local\Arduino15\packages\MiniCore\hardware\avr\3.1.1\cores\MCUdude_corefiles/HardwareSerial.cpp:111
    *_ucsra = ((*_ucsra) & ((1 << U2X0) | (1 << TXC0)));
  #endif

  if (_tx_buffer_head == _tx_buffer_tail) {
    // Buffer empty, so disable interrupts
    *_ucsrb &= ~_BV(UDRIE0);
     b6a:	02 88       	ldd	r0, Z+18	; 0x12
     b6c:	f3 89       	ldd	r31, Z+19	; 0x13
     b6e:	e0 2d       	mov	r30, r0
     b70:	80 81       	ld	r24, Z
     b72:	8f 7d       	andi	r24, 0xDF	; 223
     b74:	80 83       	st	Z, r24
     b76:	f8 cf       	rjmp	.-16     	; 0xb68 <HardwareSerial::_tx_udr_empty_irq()+0x34>

00000b78 <HardwareSerial::write(unsigned char)>:
_ZN14HardwareSerial5writeEh():
C:\Users\Kirpich\AppData\Local\Arduino15\packages\MiniCore\hardware\avr\3.1.1\cores\MCUdude_corefiles/HardwareSerial.cpp:223
  // If we get here, nothing is queued anymore (DRIE is disabled) and
  // the hardware finished tranmission (TXC is set).
}

size_t HardwareSerial::write(uint8_t c)
{
     b78:	0f 93       	push	r16
     b7a:	1f 93       	push	r17
     b7c:	cf 93       	push	r28
     b7e:	df 93       	push	r29
     b80:	ec 01       	movw	r28, r24
C:\Users\Kirpich\AppData\Local\Arduino15\packages\MiniCore\hardware\avr\3.1.1\cores\MCUdude_corefiles/HardwareSerial.cpp:224
  _written = true;
     b82:	81 e0       	ldi	r24, 0x01	; 1
     b84:	88 8f       	std	Y+24, r24	; 0x18
C:\Users\Kirpich\AppData\Local\Arduino15\packages\MiniCore\hardware\avr\3.1.1\cores\MCUdude_corefiles/HardwareSerial.cpp:229
  // If the buffer and the data register is empty, just write the byte
  // to the data register and be done. This shortcut helps
  // significantly improve the effective datarate at high (>
  // 500kbit/s) bitrates, where interrupt overhead becomes a slowdown.
  if (_tx_buffer_head == _tx_buffer_tail && bit_is_set(*_ucsra, UDRE0)) {
     b86:	9b 8d       	ldd	r25, Y+27	; 0x1b
     b88:	8c 8d       	ldd	r24, Y+28	; 0x1c
     b8a:	98 17       	cp	r25, r24
     b8c:	b1 f0       	breq	.+44     	; 0xbba <HardwareSerial::write(unsigned char)+0x42>
     b8e:	06 2f       	mov	r16, r22
C:\Users\Kirpich\AppData\Local\Arduino15\packages\MiniCore\hardware\avr\3.1.1\cores\MCUdude_corefiles/HardwareSerial.cpp:248
        *_ucsra = ((*_ucsra) & ((1 << U2X0) | (1 << TXC0)));
      #endif
    }
    return 1;
  }
  tx_buffer_index_t i = (_tx_buffer_head + 1) % SERIAL_TX_BUFFER_SIZE;
     b90:	8b 8d       	ldd	r24, Y+27	; 0x1b
     b92:	90 e0       	ldi	r25, 0x00	; 0
     b94:	01 96       	adiw	r24, 0x01	; 1
     b96:	8f 73       	andi	r24, 0x3F	; 63
     b98:	90 78       	andi	r25, 0x80	; 128
     b9a:	18 2f       	mov	r17, r24
C:\Users\Kirpich\AppData\Local\Arduino15\packages\MiniCore\hardware\avr\3.1.1\cores\MCUdude_corefiles/HardwareSerial.cpp:252

  // If the output buffer is full, there's nothing for it other than to 
  // wait for the interrupt handler to empty it a bit
  while (i == _tx_buffer_tail) {
     b9c:	8c 8d       	ldd	r24, Y+28	; 0x1c
     b9e:	81 13       	cpse	r24, r17
     ba0:	1e c0       	rjmp	.+60     	; 0xbde <HardwareSerial::write(unsigned char)+0x66>
C:\Users\Kirpich\AppData\Local\Arduino15\packages\MiniCore\hardware\avr\3.1.1\cores\MCUdude_corefiles/HardwareSerial.cpp:253
    if (bit_is_clear(SREG, SREG_I)) {
     ba2:	0f b6       	in	r0, 0x3f	; 63
     ba4:	07 fc       	sbrc	r0, 7
     ba6:	fa cf       	rjmp	.-12     	; 0xb9c <HardwareSerial::write(unsigned char)+0x24>
C:\Users\Kirpich\AppData\Local\Arduino15\packages\MiniCore\hardware\avr\3.1.1\cores\MCUdude_corefiles/HardwareSerial.cpp:258
      // Interrupts are disabled, so we'll have to poll the data
      // register empty flag ourselves. If it is set, pretend an
      // interrupt has happened and call the handler to free up
      // space for us.
      if(bit_is_set(*_ucsra, UDRE0))
     ba8:	e8 89       	ldd	r30, Y+16	; 0x10
     baa:	f9 89       	ldd	r31, Y+17	; 0x11
     bac:	80 81       	ld	r24, Z
     bae:	85 ff       	sbrs	r24, 5
     bb0:	f5 cf       	rjmp	.-22     	; 0xb9c <HardwareSerial::write(unsigned char)+0x24>
C:\Users\Kirpich\AppData\Local\Arduino15\packages\MiniCore\hardware\avr\3.1.1\cores\MCUdude_corefiles/HardwareSerial.cpp:259
        _tx_udr_empty_irq();
     bb2:	ce 01       	movw	r24, r28
     bb4:	0e 94 9a 05 	call	0xb34	; 0xb34 <HardwareSerial::_tx_udr_empty_irq()>
     bb8:	f1 cf       	rjmp	.-30     	; 0xb9c <HardwareSerial::write(unsigned char)+0x24>
C:\Users\Kirpich\AppData\Local\Arduino15\packages\MiniCore\hardware\avr\3.1.1\cores\MCUdude_corefiles/HardwareSerial.cpp:229
  _written = true;
  // If the buffer and the data register is empty, just write the byte
  // to the data register and be done. This shortcut helps
  // significantly improve the effective datarate at high (>
  // 500kbit/s) bitrates, where interrupt overhead becomes a slowdown.
  if (_tx_buffer_head == _tx_buffer_tail && bit_is_set(*_ucsra, UDRE0)) {
     bba:	e8 89       	ldd	r30, Y+16	; 0x10
     bbc:	f9 89       	ldd	r31, Y+17	; 0x11
     bbe:	80 81       	ld	r24, Z
     bc0:	85 ff       	sbrs	r24, 5
     bc2:	e5 cf       	rjmp	.-54     	; 0xb8e <HardwareSerial::write(unsigned char)+0x16>
C:\Users\Kirpich\AppData\Local\Arduino15\packages\MiniCore\hardware\avr\3.1.1\cores\MCUdude_corefiles/HardwareSerial.cpp:238
    // So writing UDR must happen first.
    // Writing UDR and clearing TC must be done atomically, otherwise
    // interrupts might delay the TXC clear so the byte written to UDR
    // is transmitted (setting TXC) before clearing TXC. Then TXC will
    // be cleared when no bytes are left, causing flush() to hang
    ATOMIC_BLOCK(ATOMIC_RESTORESTATE) {
     bc4:	9f b7       	in	r25, 0x3f	; 63
__iCliRetVal():
c:\users\kirpich\appdata\local\arduino15\packages\arduino\tools\avr-gcc\7.3.0-atmel3.6.1-arduino7\avr\include\util/atomic.h:50
    return 1;
}

static __inline__ uint8_t __iCliRetVal(void)
{
    cli();
     bc6:	f8 94       	cli
_ZN14HardwareSerial5writeEh():
C:\Users\Kirpich\AppData\Local\Arduino15\packages\MiniCore\hardware\avr\3.1.1\cores\MCUdude_corefiles/HardwareSerial.cpp:239
      *_udr = c;
     bc8:	ee 89       	ldd	r30, Y+22	; 0x16
     bca:	ff 89       	ldd	r31, Y+23	; 0x17
     bcc:	60 83       	st	Z, r22
C:\Users\Kirpich\AppData\Local\Arduino15\packages\MiniCore\hardware\avr\3.1.1\cores\MCUdude_corefiles/HardwareSerial.cpp:241
      #ifdef MPCM0
        *_ucsra = ((*_ucsra) & ((1 << U2X0) | (1 << MPCM0))) | (1 << TXC0);
     bce:	e8 89       	ldd	r30, Y+16	; 0x10
     bd0:	f9 89       	ldd	r31, Y+17	; 0x11
     bd2:	80 81       	ld	r24, Z
     bd4:	83 70       	andi	r24, 0x03	; 3
     bd6:	80 64       	ori	r24, 0x40	; 64
     bd8:	80 83       	st	Z, r24
__iRestore():
c:\users\kirpich\appdata\local\arduino15\packages\arduino\tools\avr-gcc\7.3.0-atmel3.6.1-arduino7\avr\include\util/atomic.h:70
    (void)__s;
}

static __inline__ void __iRestore(const  uint8_t *__s)
{
    SREG = *__s;
     bda:	9f bf       	out	0x3f, r25	; 63
c:\users\kirpich\appdata\local\arduino15\packages\arduino\tools\avr-gcc\7.3.0-atmel3.6.1-arduino7\avr\include\util/atomic.h:71
    __asm__ volatile ("" ::: "memory");
     bdc:	10 c0       	rjmp	.+32     	; 0xbfe <HardwareSerial::write(unsigned char)+0x86>
_ZN14HardwareSerial5writeEh():
C:\Users\Kirpich\AppData\Local\Arduino15\packages\MiniCore\hardware\avr\3.1.1\cores\MCUdude_corefiles/HardwareSerial.cpp:265
    } else {
      // nop, the interrupt handler will free up space for us
    }
  }

  _tx_buffer[_tx_buffer_head] = c;
     bde:	eb 8d       	ldd	r30, Y+27	; 0x1b
     be0:	ec 0f       	add	r30, r28
     be2:	fd 2f       	mov	r31, r29
     be4:	f1 1d       	adc	r31, r1
     be6:	e3 5a       	subi	r30, 0xA3	; 163
     be8:	ff 4f       	sbci	r31, 0xFF	; 255
     bea:	00 83       	st	Z, r16
C:\Users\Kirpich\AppData\Local\Arduino15\packages\MiniCore\hardware\avr\3.1.1\cores\MCUdude_corefiles/HardwareSerial.cpp:269
  // make atomic to prevent execution of ISR between setting the
  // head pointer and setting the interrupt flag resulting in buffer
  // retransmission
  ATOMIC_BLOCK(ATOMIC_RESTORESTATE) {
     bec:	9f b7       	in	r25, 0x3f	; 63
__iCliRetVal():
c:\users\kirpich\appdata\local\arduino15\packages\arduino\tools\avr-gcc\7.3.0-atmel3.6.1-arduino7\avr\include\util/atomic.h:50
    return 1;
}

static __inline__ uint8_t __iCliRetVal(void)
{
    cli();
     bee:	f8 94       	cli
_ZN14HardwareSerial5writeEh():
C:\Users\Kirpich\AppData\Local\Arduino15\packages\MiniCore\hardware\avr\3.1.1\cores\MCUdude_corefiles/HardwareSerial.cpp:270
    _tx_buffer_head = i;
     bf0:	1b 8f       	std	Y+27, r17	; 0x1b
C:\Users\Kirpich\AppData\Local\Arduino15\packages\MiniCore\hardware\avr\3.1.1\cores\MCUdude_corefiles/HardwareSerial.cpp:271
    *_ucsrb |= _BV(UDRIE0);
     bf2:	ea 89       	ldd	r30, Y+18	; 0x12
     bf4:	fb 89       	ldd	r31, Y+19	; 0x13
     bf6:	80 81       	ld	r24, Z
     bf8:	80 62       	ori	r24, 0x20	; 32
     bfa:	80 83       	st	Z, r24
__iRestore():
c:\users\kirpich\appdata\local\arduino15\packages\arduino\tools\avr-gcc\7.3.0-atmel3.6.1-arduino7\avr\include\util/atomic.h:70
    (void)__s;
}

static __inline__ void __iRestore(const  uint8_t *__s)
{
    SREG = *__s;
     bfc:	9f bf       	out	0x3f, r25	; 63
_ZN14HardwareSerial5writeEh():
C:\Users\Kirpich\AppData\Local\Arduino15\packages\MiniCore\hardware\avr\3.1.1\cores\MCUdude_corefiles/HardwareSerial.cpp:275
  }
  
  return 1;
}
     bfe:	81 e0       	ldi	r24, 0x01	; 1
     c00:	90 e0       	ldi	r25, 0x00	; 0
     c02:	df 91       	pop	r29
     c04:	cf 91       	pop	r28
     c06:	1f 91       	pop	r17
     c08:	0f 91       	pop	r16
     c0a:	08 95       	ret

00000c0c <HardwareSerial::flush()>:
_ZN14HardwareSerial5flushEv():
C:\Users\Kirpich\AppData\Local\Arduino15\packages\MiniCore\hardware\avr\3.1.1\cores\MCUdude_corefiles/HardwareSerial.cpp:203
  if (head >= tail) return SERIAL_TX_BUFFER_SIZE - 1 - head + tail;
  return tail - head - 1;
}

void HardwareSerial::flush()
{
     c0c:	cf 93       	push	r28
     c0e:	df 93       	push	r29
     c10:	ec 01       	movw	r28, r24
C:\Users\Kirpich\AppData\Local\Arduino15\packages\MiniCore\hardware\avr\3.1.1\cores\MCUdude_corefiles/HardwareSerial.cpp:207
  // If we have never written a byte, no need to flush. This special
  // case is needed since there is no way to force the TXC (transmit
  // complete) bit to 1 during initialization
  if (!_written)
     c12:	88 8d       	ldd	r24, Y+24	; 0x18
     c14:	81 11       	cpse	r24, r1
     c16:	04 c0       	rjmp	.+8      	; 0xc20 <HardwareSerial::flush()+0x14>
     c18:	0d c0       	rjmp	.+26     	; 0xc34 <HardwareSerial::flush()+0x28>
C:\Users\Kirpich\AppData\Local\Arduino15\packages\MiniCore\hardware\avr\3.1.1\cores\MCUdude_corefiles/HardwareSerial.cpp:211
    return;

  while (bit_is_set(*_ucsrb, UDRIE0) || bit_is_clear(*_ucsra, TXC0)) {
    if (bit_is_clear(SREG, SREG_I) && bit_is_set(*_ucsrb, UDRIE0))
     c1a:	0f b6       	in	r0, 0x3f	; 63
     c1c:	07 fe       	sbrs	r0, 7
     c1e:	0d c0       	rjmp	.+26     	; 0xc3a <HardwareSerial::flush()+0x2e>
C:\Users\Kirpich\AppData\Local\Arduino15\packages\MiniCore\hardware\avr\3.1.1\cores\MCUdude_corefiles/HardwareSerial.cpp:210
  // case is needed since there is no way to force the TXC (transmit
  // complete) bit to 1 during initialization
  if (!_written)
    return;

  while (bit_is_set(*_ucsrb, UDRIE0) || bit_is_clear(*_ucsra, TXC0)) {
     c20:	ea 89       	ldd	r30, Y+18	; 0x12
     c22:	fb 89       	ldd	r31, Y+19	; 0x13
     c24:	80 81       	ld	r24, Z
     c26:	85 fd       	sbrc	r24, 5
     c28:	f8 cf       	rjmp	.-16     	; 0xc1a <HardwareSerial::flush()+0xe>
     c2a:	a8 89       	ldd	r26, Y+16	; 0x10
     c2c:	b9 89       	ldd	r27, Y+17	; 0x11
     c2e:	8c 91       	ld	r24, X
     c30:	86 ff       	sbrs	r24, 6
     c32:	f3 cf       	rjmp	.-26     	; 0xc1a <HardwareSerial::flush()+0xe>
C:\Users\Kirpich\AppData\Local\Arduino15\packages\MiniCore\hardware\avr\3.1.1\cores\MCUdude_corefiles/HardwareSerial.cpp:220
      if (bit_is_set(*_ucsra, UDRE0))
        _tx_udr_empty_irq();
  }
  // If we get here, nothing is queued anymore (DRIE is disabled) and
  // the hardware finished tranmission (TXC is set).
}
     c34:	df 91       	pop	r29
     c36:	cf 91       	pop	r28
     c38:	08 95       	ret
C:\Users\Kirpich\AppData\Local\Arduino15\packages\MiniCore\hardware\avr\3.1.1\cores\MCUdude_corefiles/HardwareSerial.cpp:211
  // complete) bit to 1 during initialization
  if (!_written)
    return;

  while (bit_is_set(*_ucsrb, UDRIE0) || bit_is_clear(*_ucsra, TXC0)) {
    if (bit_is_clear(SREG, SREG_I) && bit_is_set(*_ucsrb, UDRIE0))
     c3a:	80 81       	ld	r24, Z
     c3c:	85 ff       	sbrs	r24, 5
     c3e:	f0 cf       	rjmp	.-32     	; 0xc20 <HardwareSerial::flush()+0x14>
C:\Users\Kirpich\AppData\Local\Arduino15\packages\MiniCore\hardware\avr\3.1.1\cores\MCUdude_corefiles/HardwareSerial.cpp:215
      // Interrupts are globally disabled, but the DR empty
      // interrupt should be enabled, so poll the DR empty flag to
      // prevent deadlock
      if (bit_is_set(*_ucsra, UDRE0))
     c40:	e8 89       	ldd	r30, Y+16	; 0x10
     c42:	f9 89       	ldd	r31, Y+17	; 0x11
     c44:	80 81       	ld	r24, Z
     c46:	85 ff       	sbrs	r24, 5
     c48:	eb cf       	rjmp	.-42     	; 0xc20 <HardwareSerial::flush()+0x14>
C:\Users\Kirpich\AppData\Local\Arduino15\packages\MiniCore\hardware\avr\3.1.1\cores\MCUdude_corefiles/HardwareSerial.cpp:216
        _tx_udr_empty_irq();
     c4a:	ce 01       	movw	r24, r28
     c4c:	0e 94 9a 05 	call	0xb34	; 0xb34 <HardwareSerial::_tx_udr_empty_irq()>
     c50:	e7 cf       	rjmp	.-50     	; 0xc20 <HardwareSerial::flush()+0x14>

00000c52 <serialEventRun()>:
_Z14serialEventRunv():
C:\Users\Kirpich\AppData\Local\Arduino15\packages\MiniCore\hardware\avr\3.1.1\cores\MCUdude_corefiles/HardwareSerial.cpp:67
#endif

void serialEventRun(void)
{
#if defined(HAVE_HWSERIAL0)
  if (Serial0_available && serialEvent && Serial0_available()) serialEvent();
     c52:	80 e0       	ldi	r24, 0x00	; 0
     c54:	90 e0       	ldi	r25, 0x00	; 0
     c56:	89 2b       	or	r24, r25
     c58:	21 f0       	breq	.+8      	; 0xc62 <serialEventRun()+0x10>
     c5a:	0e 94 3e 05 	call	0xa7c	; 0xa7c <Serial0_available()>
     c5e:	81 11       	cpse	r24, r1
     c60:	01 c0       	rjmp	.+2      	; 0xc64 <serialEventRun()+0x12>
C:\Users\Kirpich\AppData\Local\Arduino15\packages\MiniCore\hardware\avr\3.1.1\cores\MCUdude_corefiles/HardwareSerial.cpp:78
  if (Serial2_available && serialEvent2 && Serial2_available()) serialEvent2();
#endif
#if defined(HAVE_HWSERIAL3)
  if (Serial3_available && serialEvent3 && Serial3_available()) serialEvent3();
#endif
}
     c62:	08 95       	ret
C:\Users\Kirpich\AppData\Local\Arduino15\packages\MiniCore\hardware\avr\3.1.1\cores\MCUdude_corefiles/HardwareSerial.cpp:67
#endif

void serialEventRun(void)
{
#if defined(HAVE_HWSERIAL0)
  if (Serial0_available && serialEvent && Serial0_available()) serialEvent();
     c64:	0e 94 00 00 	call	0	; 0x0 <__vectors>
     c68:	fc cf       	rjmp	.-8      	; 0xc62 <serialEventRun()+0x10>

00000c6a <SoftwareSerialParity::peek()>:
_ZN20SoftwareSerialParity11isListeningEv():
l:\Projects\arduino\libraries\SoftwareSerialParity/SoftwareSerialParity.h:98
  SoftwareSerialParity(uint8_t receivePin, uint8_t transmitPin, bool inverse_logic = false);
  ~SoftwareSerialParity();
  void begin(long speed, uint8_t parity);
  bool listen();
  void end();
  bool isListening() { return this == active_object; }
     c6a:	20 91 46 02 	lds	r18, 0x0246	; 0x800246 <SoftwareSerialParity::active_object>
     c6e:	30 91 47 02 	lds	r19, 0x0247	; 0x800247 <SoftwareSerialParity::active_object+0x1>
_ZN20SoftwareSerialParity4peekEv():
l:\Projects\arduino\libraries\SoftwareSerialParity/SoftwareSerialParity.cpp:506
  // There is no tx buffering, simply return
}

int SoftwareSerialParity::peek()
{
  if (!isListening())
     c72:	28 17       	cp	r18, r24
     c74:	39 07       	cpc	r19, r25
     c76:	71 f4       	brne	.+28     	; 0xc94 <SoftwareSerialParity::peek()+0x2a>
l:\Projects\arduino\libraries\SoftwareSerialParity/SoftwareSerialParity.cpp:510
    return -1;

  // Empty buffer?
  if (_receive_buffer_head == _receive_buffer_tail)
     c78:	90 91 45 02 	lds	r25, 0x0245	; 0x800245 <SoftwareSerialParity::_receive_buffer_head>
     c7c:	80 91 44 02 	lds	r24, 0x0244	; 0x800244 <SoftwareSerialParity::_receive_buffer_tail>
     c80:	98 17       	cp	r25, r24
     c82:	59 f0       	breq	.+22     	; 0xc9a <SoftwareSerialParity::peek()+0x30>
l:\Projects\arduino\libraries\SoftwareSerialParity/SoftwareSerialParity.cpp:514
    return -1;

  // Read from "head"
  return _receive_buffer[_receive_buffer_head];
     c84:	e0 91 45 02 	lds	r30, 0x0245	; 0x800245 <SoftwareSerialParity::_receive_buffer_head>
     c88:	f0 e0       	ldi	r31, 0x00	; 0
     c8a:	ec 5f       	subi	r30, 0xFC	; 252
     c8c:	fd 4f       	sbci	r31, 0xFD	; 253
     c8e:	80 81       	ld	r24, Z
     c90:	90 e0       	ldi	r25, 0x00	; 0
     c92:	08 95       	ret
l:\Projects\arduino\libraries\SoftwareSerialParity/SoftwareSerialParity.cpp:507
}

int SoftwareSerialParity::peek()
{
  if (!isListening())
    return -1;
     c94:	8f ef       	ldi	r24, 0xFF	; 255
     c96:	9f ef       	ldi	r25, 0xFF	; 255
     c98:	08 95       	ret
l:\Projects\arduino\libraries\SoftwareSerialParity/SoftwareSerialParity.cpp:511

  // Empty buffer?
  if (_receive_buffer_head == _receive_buffer_tail)
    return -1;
     c9a:	8f ef       	ldi	r24, 0xFF	; 255
     c9c:	9f ef       	ldi	r25, 0xFF	; 255
l:\Projects\arduino\libraries\SoftwareSerialParity/SoftwareSerialParity.cpp:515

  // Read from "head"
  return _receive_buffer[_receive_buffer_head];
}
     c9e:	08 95       	ret

00000ca0 <SoftwareSerialParity::flush()>:
_ZN20SoftwareSerialParity5flushEv():
l:\Projects\arduino\libraries\SoftwareSerialParity/SoftwareSerialParity.cpp:502
}

void SoftwareSerialParity::flush()
{
  // There is no tx buffering, simply return
}
     ca0:	08 95       	ret

00000ca2 <SoftwareSerialParity::write(unsigned char)>:
_ZN20SoftwareSerialParity5writeEh():
l:\Projects\arduino\libraries\SoftwareSerialParity/SoftwareSerialParity.cpp:424

  return (_receive_buffer_tail + _SS_MAX_RX_BUFF - _receive_buffer_head) % _SS_MAX_RX_BUFF;
}

size_t SoftwareSerialParity::write(uint8_t b)
{
     ca2:	ff 92       	push	r15
     ca4:	0f 93       	push	r16
     ca6:	1f 93       	push	r17
     ca8:	cf 93       	push	r28
     caa:	df 93       	push	r29
     cac:	ec 01       	movw	r28, r24
     cae:	96 2f       	mov	r25, r22
l:\Projects\arduino\libraries\SoftwareSerialParity/SoftwareSerialParity.cpp:425
  if (_tx_delay == 0) {
     cb0:	4e 8d       	ldd	r20, Y+30	; 0x1e
     cb2:	5f 8d       	ldd	r21, Y+31	; 0x1f
     cb4:	41 15       	cp	r20, r1
     cb6:	51 05       	cpc	r21, r1
     cb8:	b9 f0       	breq	.+46     	; 0xce8 <SoftwareSerialParity::write(unsigned char)+0x46>
l:\Projects\arduino\libraries\SoftwareSerialParity/SoftwareSerialParity.cpp:434

  // By declaring these as local variables, the compiler will put them
  // in registers _before_ disabling interrupts and entering the
  // critical timing sections below, which makes it a lot easier to
  // verify the cycle timings
  volatile uint8_t *reg = _transmitPortRegister;
     cba:	ab 89       	ldd	r26, Y+19	; 0x13
     cbc:	bc 89       	ldd	r27, Y+20	; 0x14
l:\Projects\arduino\libraries\SoftwareSerialParity/SoftwareSerialParity.cpp:435
  uint8_t reg_mask = _transmitBitMask;
     cbe:	3a 89       	ldd	r19, Y+18	; 0x12
l:\Projects\arduino\libraries\SoftwareSerialParity/SoftwareSerialParity.cpp:436
  uint8_t inv_mask = ~_transmitBitMask;
     cc0:	13 2f       	mov	r17, r19
     cc2:	10 95       	com	r17
l:\Projects\arduino\libraries\SoftwareSerialParity/SoftwareSerialParity.cpp:437
  uint8_t oldSREG = SREG;
     cc4:	ff b6       	in	r15, 0x3f	; 63
l:\Projects\arduino\libraries\SoftwareSerialParity/SoftwareSerialParity.cpp:438
  bool inv = _inverse_logic;
     cc6:	88 a1       	ldd	r24, Y+32	; 0x20
l:\Projects\arduino\libraries\SoftwareSerialParity/SoftwareSerialParity.cpp:441
  uint16_t delay = _tx_delay;

  if (inv)
     cc8:	08 2f       	mov	r16, r24
     cca:	02 70       	andi	r16, 0x02	; 2
     ccc:	81 fd       	sbrc	r24, 1
l:\Projects\arduino\libraries\SoftwareSerialParity/SoftwareSerialParity.cpp:442
    b = ~b;
     cce:	90 95       	com	r25
l:\Projects\arduino\libraries\SoftwareSerialParity/SoftwareSerialParity.cpp:444

  cli();  // turn off interrupts for a clean txmit
     cd0:	f8 94       	cli
l:\Projects\arduino\libraries\SoftwareSerialParity/SoftwareSerialParity.cpp:447

  // Write the start bit
  if (inv)
     cd2:	00 23       	and	r16, r16
     cd4:	81 f0       	breq	.+32     	; 0xcf6 <SoftwareSerialParity::write(unsigned char)+0x54>
l:\Projects\arduino\libraries\SoftwareSerialParity/SoftwareSerialParity.cpp:448
    *reg |= reg_mask;
     cd6:	8c 91       	ld	r24, X
     cd8:	83 2b       	or	r24, r19
     cda:	8c 93       	st	X, r24
_delay_loop_2():
c:\users\kirpich\appdata\local\arduino15\packages\arduino\tools\avr-gcc\7.3.0-atmel3.6.1-arduino7\avr\include\util/delay_basic.h:110
	__asm__ volatile (
		"1: sbiw %0,1" "\n\t"
		"brne 1b"
		: "=w" (__count)
		: "0" (__count)
	);
     cdc:	fa 01       	movw	r30, r20
     cde:	31 97       	sbiw	r30, 0x01	; 1
     ce0:	f1 f7       	brne	.-4      	; 0xcde <SoftwareSerialParity::write(unsigned char)+0x3c>
_ZN20SoftwareSerialParity5writeEh():
l:\Projects\arduino\libraries\SoftwareSerialParity/SoftwareSerialParity.cpp:453
  else
    *reg &= inv_mask;

  tunedDelay(delay);
  Cparity = 0;
     ce2:	1f 86       	std	Y+15, r1	; 0x0f
l:\Projects\arduino\libraries\SoftwareSerialParity/SoftwareSerialParity.cpp:455
  // Write each of the 8 bits
  for (uint8_t i = 8; i > 0; --i)
     ce4:	28 e0       	ldi	r18, 0x08	; 8
     ce6:	15 c0       	rjmp	.+42     	; 0xd12 <SoftwareSerialParity::write(unsigned char)+0x70>
_ZN5Print13setWriteErrorEi():
C:\Users\Kirpich\AppData\Local\Arduino15\packages\MiniCore\hardware\avr\3.1.1\cores\MCUdude_corefiles/Print.h:44
  private:
    int write_error;
    size_t printNumber(unsigned long, uint8_t);
    size_t printFloat(double, uint8_t);
  protected:
    void setWriteError(int err = 1) { write_error = err; }
     ce8:	81 e0       	ldi	r24, 0x01	; 1
     cea:	90 e0       	ldi	r25, 0x00	; 0
     cec:	9b 83       	std	Y+3, r25	; 0x03
     cee:	8a 83       	std	Y+2, r24	; 0x02
_ZN20SoftwareSerialParity5writeEh():
l:\Projects\arduino\libraries\SoftwareSerialParity/SoftwareSerialParity.cpp:427

size_t SoftwareSerialParity::write(uint8_t b)
{
  if (_tx_delay == 0) {
    setWriteError();
    return 0;
     cf0:	90 e0       	ldi	r25, 0x00	; 0
     cf2:	80 e0       	ldi	r24, 0x00	; 0
     cf4:	36 c0       	rjmp	.+108    	; 0xd62 <SoftwareSerialParity::write(unsigned char)+0xc0>
l:\Projects\arduino\libraries\SoftwareSerialParity/SoftwareSerialParity.cpp:450

  // Write the start bit
  if (inv)
    *reg |= reg_mask;
  else
    *reg &= inv_mask;
     cf6:	8c 91       	ld	r24, X
     cf8:	81 23       	and	r24, r17
     cfa:	8c 93       	st	X, r24
     cfc:	ef cf       	rjmp	.-34     	; 0xcdc <SoftwareSerialParity::write(unsigned char)+0x3a>
l:\Projects\arduino\libraries\SoftwareSerialParity/SoftwareSerialParity.cpp:462
    if (b & 1){ // choose bit
      *reg |= reg_mask; // send 1
	  Cparity++;
	}
    else{
      *reg &= inv_mask; // send 0
     cfe:	8c 91       	ld	r24, X
     d00:	81 23       	and	r24, r17
     d02:	8c 93       	st	X, r24
_delay_loop_2():
c:\users\kirpich\appdata\local\arduino15\packages\arduino\tools\avr-gcc\7.3.0-atmel3.6.1-arduino7\avr\include\util/delay_basic.h:110
     d04:	fa 01       	movw	r30, r20
     d06:	31 97       	sbiw	r30, 0x01	; 1
     d08:	f1 f7       	brne	.-4      	; 0xd06 <SoftwareSerialParity::write(unsigned char)+0x64>
_ZN20SoftwareSerialParity5writeEh():
l:\Projects\arduino\libraries\SoftwareSerialParity/SoftwareSerialParity.cpp:465
	}
    tunedDelay(delay);
    b >>= 1;
     d0a:	75 95       	asr	r23
     d0c:	67 95       	ror	r22
     d0e:	96 2f       	mov	r25, r22
l:\Projects\arduino\libraries\SoftwareSerialParity/SoftwareSerialParity.cpp:455
    *reg &= inv_mask;

  tunedDelay(delay);
  Cparity = 0;
  // Write each of the 8 bits
  for (uint8_t i = 8; i > 0; --i)
     d10:	21 50       	subi	r18, 0x01	; 1
     d12:	22 23       	and	r18, r18
     d14:	59 f0       	breq	.+22     	; 0xd2c <SoftwareSerialParity::write(unsigned char)+0x8a>
l:\Projects\arduino\libraries\SoftwareSerialParity/SoftwareSerialParity.cpp:457
  {
    if (b & 1){ // choose bit
     d16:	69 2f       	mov	r22, r25
     d18:	70 e0       	ldi	r23, 0x00	; 0
     d1a:	90 ff       	sbrs	r25, 0
     d1c:	f0 cf       	rjmp	.-32     	; 0xcfe <SoftwareSerialParity::write(unsigned char)+0x5c>
l:\Projects\arduino\libraries\SoftwareSerialParity/SoftwareSerialParity.cpp:458
      *reg |= reg_mask; // send 1
     d1e:	8c 91       	ld	r24, X
     d20:	83 2b       	or	r24, r19
     d22:	8c 93       	st	X, r24
l:\Projects\arduino\libraries\SoftwareSerialParity/SoftwareSerialParity.cpp:459
	  Cparity++;
     d24:	8f 85       	ldd	r24, Y+15	; 0x0f
     d26:	8f 5f       	subi	r24, 0xFF	; 255
     d28:	8f 87       	std	Y+15, r24	; 0x0f
     d2a:	ec cf       	rjmp	.-40     	; 0xd04 <SoftwareSerialParity::write(unsigned char)+0x62>
l:\Projects\arduino\libraries\SoftwareSerialParity/SoftwareSerialParity.cpp:468
	}
    tunedDelay(delay);
    b >>= 1;
  }

    if (Tparity == ODD){ //odd parity
     d2c:	8e 85       	ldd	r24, Y+14	; 0x0e
     d2e:	81 11       	cpse	r24, r1
     d30:	09 c0       	rjmp	.+18     	; 0xd44 <SoftwareSerialParity::write(unsigned char)+0xa2>
l:\Projects\arduino\libraries\SoftwareSerialParity/SoftwareSerialParity.cpp:469
		if (Cparity & 1) // choose bit
     d32:	8f 85       	ldd	r24, Y+15	; 0x0f
     d34:	80 ff       	sbrs	r24, 0
     d36:	1b c0       	rjmp	.+54     	; 0xd6e <SoftwareSerialParity::write(unsigned char)+0xcc>
l:\Projects\arduino\libraries\SoftwareSerialParity/SoftwareSerialParity.cpp:470
		  *reg &= inv_mask; // send 0
     d38:	8c 91       	ld	r24, X
     d3a:	81 23       	and	r24, r17
     d3c:	8c 93       	st	X, r24
_delay_loop_2():
c:\users\kirpich\appdata\local\arduino15\packages\arduino\tools\avr-gcc\7.3.0-atmel3.6.1-arduino7\avr\include\util/delay_basic.h:110
     d3e:	ca 01       	movw	r24, r20
     d40:	01 97       	sbiw	r24, 0x01	; 1
     d42:	f1 f7       	brne	.-4      	; 0xd40 <SoftwareSerialParity::write(unsigned char)+0x9e>
_ZN20SoftwareSerialParity5writeEh():
l:\Projects\arduino\libraries\SoftwareSerialParity/SoftwareSerialParity.cpp:477
		  *reg |= reg_mask; // send 1

		tunedDelay(delay);
	}

    if (Tparity == EVEN){ //even parity
     d44:	8e 85       	ldd	r24, Y+14	; 0x0e
     d46:	82 30       	cpi	r24, 0x02	; 2
     d48:	b1 f0       	breq	.+44     	; 0xd76 <SoftwareSerialParity::write(unsigned char)+0xd4>
l:\Projects\arduino\libraries\SoftwareSerialParity/SoftwareSerialParity.cpp:488
		tunedDelay(delay);
	}


	// restore pin to natural state
  if (inv)
     d4a:	00 23       	and	r16, r16
     d4c:	11 f1       	breq	.+68     	; 0xd92 <SoftwareSerialParity::write(unsigned char)+0xf0>
l:\Projects\arduino\libraries\SoftwareSerialParity/SoftwareSerialParity.cpp:489
    *reg &= inv_mask;
     d4e:	8c 91       	ld	r24, X
     d50:	18 23       	and	r17, r24
     d52:	1c 93       	st	X, r17
l:\Projects\arduino\libraries\SoftwareSerialParity/SoftwareSerialParity.cpp:493
  else
    *reg |= reg_mask;

  SREG = oldSREG; // turn interrupts back on
     d54:	ff be       	out	0x3f, r15	; 63
l:\Projects\arduino\libraries\SoftwareSerialParity/SoftwareSerialParity.cpp:494
  tunedDelay(_tx_delay);
     d56:	8e 8d       	ldd	r24, Y+30	; 0x1e
     d58:	9f 8d       	ldd	r25, Y+31	; 0x1f
_delay_loop_2():
c:\users\kirpich\appdata\local\arduino15\packages\arduino\tools\avr-gcc\7.3.0-atmel3.6.1-arduino7\avr\include\util/delay_basic.h:110
     d5a:	01 97       	sbiw	r24, 0x01	; 1
     d5c:	f1 f7       	brne	.-4      	; 0xd5a <SoftwareSerialParity::write(unsigned char)+0xb8>
_ZN20SoftwareSerialParity5writeEh():
l:\Projects\arduino\libraries\SoftwareSerialParity/SoftwareSerialParity.cpp:496
  
  return 1;
     d5e:	81 e0       	ldi	r24, 0x01	; 1
     d60:	90 e0       	ldi	r25, 0x00	; 0
l:\Projects\arduino\libraries\SoftwareSerialParity/SoftwareSerialParity.cpp:497
}
     d62:	df 91       	pop	r29
     d64:	cf 91       	pop	r28
     d66:	1f 91       	pop	r17
     d68:	0f 91       	pop	r16
     d6a:	ff 90       	pop	r15
     d6c:	08 95       	ret
l:\Projects\arduino\libraries\SoftwareSerialParity/SoftwareSerialParity.cpp:472

    if (Tparity == ODD){ //odd parity
		if (Cparity & 1) // choose bit
		  *reg &= inv_mask; // send 0
		else
		  *reg |= reg_mask; // send 1
     d6e:	8c 91       	ld	r24, X
     d70:	83 2b       	or	r24, r19
     d72:	8c 93       	st	X, r24
     d74:	e4 cf       	rjmp	.-56     	; 0xd3e <SoftwareSerialParity::write(unsigned char)+0x9c>
l:\Projects\arduino\libraries\SoftwareSerialParity/SoftwareSerialParity.cpp:478

		tunedDelay(delay);
	}

    if (Tparity == EVEN){ //even parity
		if (Cparity & 1) // choose bit
     d76:	8f 85       	ldd	r24, Y+15	; 0x0f
     d78:	80 ff       	sbrs	r24, 0
     d7a:	07 c0       	rjmp	.+14     	; 0xd8a <SoftwareSerialParity::write(unsigned char)+0xe8>
l:\Projects\arduino\libraries\SoftwareSerialParity/SoftwareSerialParity.cpp:479
		  *reg |= reg_mask; // send 1
     d7c:	8c 91       	ld	r24, X
     d7e:	83 2b       	or	r24, r19
     d80:	8c 93       	st	X, r24
_delay_loop_2():
c:\users\kirpich\appdata\local\arduino15\packages\arduino\tools\avr-gcc\7.3.0-atmel3.6.1-arduino7\avr\include\util/delay_basic.h:110
     d82:	ca 01       	movw	r24, r20
     d84:	01 97       	sbiw	r24, 0x01	; 1
     d86:	f1 f7       	brne	.-4      	; 0xd84 <SoftwareSerialParity::write(unsigned char)+0xe2>
     d88:	e0 cf       	rjmp	.-64     	; 0xd4a <SoftwareSerialParity::write(unsigned char)+0xa8>
_ZN20SoftwareSerialParity5writeEh():
l:\Projects\arduino\libraries\SoftwareSerialParity/SoftwareSerialParity.cpp:481
		else
		  *reg &= inv_mask; // send 0
     d8a:	8c 91       	ld	r24, X
     d8c:	81 23       	and	r24, r17
     d8e:	8c 93       	st	X, r24
     d90:	f8 cf       	rjmp	.-16     	; 0xd82 <SoftwareSerialParity::write(unsigned char)+0xe0>
l:\Projects\arduino\libraries\SoftwareSerialParity/SoftwareSerialParity.cpp:491

	// restore pin to natural state
  if (inv)
    *reg &= inv_mask;
  else
    *reg |= reg_mask;
     d92:	8c 91       	ld	r24, X
     d94:	38 2b       	or	r19, r24
     d96:	3c 93       	st	X, r19
     d98:	dd cf       	rjmp	.-70     	; 0xd54 <SoftwareSerialParity::write(unsigned char)+0xb2>

00000d9a <SoftwareSerialParity::available()>:
_ZN20SoftwareSerialParity11isListeningEv():
l:\Projects\arduino\libraries\SoftwareSerialParity/SoftwareSerialParity.h:98
     d9a:	20 91 46 02 	lds	r18, 0x0246	; 0x800246 <SoftwareSerialParity::active_object>
     d9e:	30 91 47 02 	lds	r19, 0x0247	; 0x800247 <SoftwareSerialParity::active_object+0x1>
_ZN20SoftwareSerialParity9availableEv():
l:\Projects\arduino\libraries\SoftwareSerialParity/SoftwareSerialParity.cpp:417
  return d;
}

int SoftwareSerialParity::available()
{
  if (!isListening())
     da2:	28 17       	cp	r18, r24
     da4:	39 07       	cpc	r19, r25
     da6:	19 f0       	breq	.+6      	; 0xdae <SoftwareSerialParity::available()+0x14>
l:\Projects\arduino\libraries\SoftwareSerialParity/SoftwareSerialParity.cpp:418
    return 0;
     da8:	80 e0       	ldi	r24, 0x00	; 0
     daa:	90 e0       	ldi	r25, 0x00	; 0
l:\Projects\arduino\libraries\SoftwareSerialParity/SoftwareSerialParity.cpp:421

  return (_receive_buffer_tail + _SS_MAX_RX_BUFF - _receive_buffer_head) % _SS_MAX_RX_BUFF;
}
     dac:	08 95       	ret
l:\Projects\arduino\libraries\SoftwareSerialParity/SoftwareSerialParity.cpp:420
int SoftwareSerialParity::available()
{
  if (!isListening())
    return 0;

  return (_receive_buffer_tail + _SS_MAX_RX_BUFF - _receive_buffer_head) % _SS_MAX_RX_BUFF;
     dae:	20 91 44 02 	lds	r18, 0x0244	; 0x800244 <SoftwareSerialParity::_receive_buffer_tail>
     db2:	30 e0       	ldi	r19, 0x00	; 0
     db4:	20 5c       	subi	r18, 0xC0	; 192
     db6:	3f 4f       	sbci	r19, 0xFF	; 255
     db8:	80 91 45 02 	lds	r24, 0x0245	; 0x800245 <SoftwareSerialParity::_receive_buffer_head>
     dbc:	28 1b       	sub	r18, r24
     dbe:	31 09       	sbc	r19, r1
     dc0:	2f 73       	andi	r18, 0x3F	; 63
     dc2:	30 78       	andi	r19, 0x80	; 128
     dc4:	33 23       	and	r19, r19
     dc6:	1c f0       	brlt	.+6      	; 0xdce <SoftwareSerialParity::available()+0x34>
     dc8:	82 2f       	mov	r24, r18
     dca:	93 2f       	mov	r25, r19
     dcc:	08 95       	ret
     dce:	21 50       	subi	r18, 0x01	; 1
     dd0:	31 09       	sbc	r19, r1
     dd2:	20 6c       	ori	r18, 0xC0	; 192
     dd4:	3f 6f       	ori	r19, 0xFF	; 255
     dd6:	2f 5f       	subi	r18, 0xFF	; 255
     dd8:	3f 4f       	sbci	r19, 0xFF	; 255
     dda:	f6 cf       	rjmp	.-20     	; 0xdc8 <SoftwareSerialParity::available()+0x2e>

00000ddc <SoftwareSerialParity::read()>:
_ZN20SoftwareSerialParity11isListeningEv():
l:\Projects\arduino\libraries\SoftwareSerialParity/SoftwareSerialParity.h:98
     ddc:	20 91 46 02 	lds	r18, 0x0246	; 0x800246 <SoftwareSerialParity::active_object>
     de0:	30 91 47 02 	lds	r19, 0x0247	; 0x800247 <SoftwareSerialParity::active_object+0x1>
_ZN20SoftwareSerialParity4readEv():
l:\Projects\arduino\libraries\SoftwareSerialParity/SoftwareSerialParity.cpp:402


// Read data from buffer
int SoftwareSerialParity::read()
{
  if (!isListening())
     de4:	28 17       	cp	r18, r24
     de6:	39 07       	cpc	r19, r25
     de8:	b9 f4       	brne	.+46     	; 0xe18 <SoftwareSerialParity::read()+0x3c>
l:\Projects\arduino\libraries\SoftwareSerialParity/SoftwareSerialParity.cpp:406
    return -1;

  // Empty buffer?
  if (_receive_buffer_head == _receive_buffer_tail)
     dea:	90 91 45 02 	lds	r25, 0x0245	; 0x800245 <SoftwareSerialParity::_receive_buffer_head>
     dee:	80 91 44 02 	lds	r24, 0x0244	; 0x800244 <SoftwareSerialParity::_receive_buffer_tail>
     df2:	98 17       	cp	r25, r24
     df4:	a1 f0       	breq	.+40     	; 0xe1e <SoftwareSerialParity::read()+0x42>
l:\Projects\arduino\libraries\SoftwareSerialParity/SoftwareSerialParity.cpp:410
    return -1;

  // Read from "head"
  uint8_t d = _receive_buffer[_receive_buffer_head]; // grab next byte
     df6:	e0 91 45 02 	lds	r30, 0x0245	; 0x800245 <SoftwareSerialParity::_receive_buffer_head>
     dfa:	f0 e0       	ldi	r31, 0x00	; 0
     dfc:	ec 5f       	subi	r30, 0xFC	; 252
     dfe:	fd 4f       	sbci	r31, 0xFD	; 253
     e00:	80 81       	ld	r24, Z
l:\Projects\arduino\libraries\SoftwareSerialParity/SoftwareSerialParity.cpp:411
  _receive_buffer_head = (_receive_buffer_head + 1) % _SS_MAX_RX_BUFF;
     e02:	20 91 45 02 	lds	r18, 0x0245	; 0x800245 <SoftwareSerialParity::_receive_buffer_head>
     e06:	30 e0       	ldi	r19, 0x00	; 0
     e08:	2f 5f       	subi	r18, 0xFF	; 255
     e0a:	3f 4f       	sbci	r19, 0xFF	; 255
     e0c:	2f 73       	andi	r18, 0x3F	; 63
     e0e:	30 78       	andi	r19, 0x80	; 128
     e10:	20 93 45 02 	sts	0x0245, r18	; 0x800245 <SoftwareSerialParity::_receive_buffer_head>
l:\Projects\arduino\libraries\SoftwareSerialParity/SoftwareSerialParity.cpp:412
  return d;
     e14:	90 e0       	ldi	r25, 0x00	; 0
     e16:	08 95       	ret
l:\Projects\arduino\libraries\SoftwareSerialParity/SoftwareSerialParity.cpp:403

// Read data from buffer
int SoftwareSerialParity::read()
{
  if (!isListening())
    return -1;
     e18:	8f ef       	ldi	r24, 0xFF	; 255
     e1a:	9f ef       	ldi	r25, 0xFF	; 255
     e1c:	08 95       	ret
l:\Projects\arduino\libraries\SoftwareSerialParity/SoftwareSerialParity.cpp:407

  // Empty buffer?
  if (_receive_buffer_head == _receive_buffer_tail)
    return -1;
     e1e:	8f ef       	ldi	r24, 0xFF	; 255
     e20:	9f ef       	ldi	r25, 0xFF	; 255
l:\Projects\arduino\libraries\SoftwareSerialParity/SoftwareSerialParity.cpp:413

  // Read from "head"
  uint8_t d = _receive_buffer[_receive_buffer_head]; // grab next byte
  _receive_buffer_head = (_receive_buffer_head + 1) % _SS_MAX_RX_BUFF;
  return d;
}
     e22:	08 95       	ret

00000e24 <SoftwareSerialParity::subtract_cap(unsigned int, unsigned int)>:
_ZN20SoftwareSerialParity12subtract_capEjj():
l:\Projects\arduino\libraries\SoftwareSerialParity/SoftwareSerialParity.cpp:295
  uint8_t port = digitalPinToPort(rx);
  _receivePortRegister = portInputRegister(port);
}

uint16_t SoftwareSerialParity::subtract_cap(uint16_t num, uint16_t sub) {
  if (num > sub)
     e24:	68 17       	cp	r22, r24
     e26:	79 07       	cpc	r23, r25
     e28:	18 f4       	brcc	.+6      	; 0xe30 <SoftwareSerialParity::subtract_cap(unsigned int, unsigned int)+0xc>
l:\Projects\arduino\libraries\SoftwareSerialParity/SoftwareSerialParity.cpp:296
    return num - sub;
     e2a:	86 1b       	sub	r24, r22
     e2c:	97 0b       	sbc	r25, r23
     e2e:	08 95       	ret
l:\Projects\arduino\libraries\SoftwareSerialParity/SoftwareSerialParity.cpp:298
  else
    return 1;
     e30:	81 e0       	ldi	r24, 0x01	; 1
     e32:	90 e0       	ldi	r25, 0x00	; 0
l:\Projects\arduino\libraries\SoftwareSerialParity/SoftwareSerialParity.cpp:299
}
     e34:	08 95       	ret

00000e36 <SoftwareSerialParity::setRX(unsigned char)>:
_ZN20SoftwareSerialParity5setRXEh():
l:\Projects\arduino\libraries\SoftwareSerialParity/SoftwareSerialParity.cpp:284
  uint8_t port = digitalPinToPort(tx);
  _transmitPortRegister = portOutputRegister(port);
}

void SoftwareSerialParity::setRX(uint8_t rx)
{
     e36:	1f 93       	push	r17
     e38:	cf 93       	push	r28
     e3a:	df 93       	push	r29
     e3c:	ec 01       	movw	r28, r24
     e3e:	16 2f       	mov	r17, r22
l:\Projects\arduino\libraries\SoftwareSerialParity/SoftwareSerialParity.cpp:285
  pinMode(rx, INPUT);
     e40:	60 e0       	ldi	r22, 0x00	; 0
     e42:	81 2f       	mov	r24, r17
     e44:	0e 94 94 03 	call	0x728	; 0x728 <pinMode>
l:\Projects\arduino\libraries\SoftwareSerialParity/SoftwareSerialParity.cpp:286
  if (!_inverse_logic)
     e48:	88 a1       	ldd	r24, Y+32	; 0x20
     e4a:	81 ff       	sbrs	r24, 1
     e4c:	19 c0       	rjmp	.+50     	; 0xe80 <SoftwareSerialParity::setRX(unsigned char)+0x4a>
l:\Projects\arduino\libraries\SoftwareSerialParity/SoftwareSerialParity.cpp:288
    digitalWrite(rx, HIGH);  // pullup for normal logic!
  _receivePin = rx;
     e4e:	1c 87       	std	Y+12, r17	; 0x0c
l:\Projects\arduino\libraries\SoftwareSerialParity/SoftwareSerialParity.cpp:289
  _receiveBitMask = digitalPinToBitMask(rx);
     e50:	61 2f       	mov	r22, r17
     e52:	70 e0       	ldi	r23, 0x00	; 0
     e54:	fb 01       	movw	r30, r22
     e56:	e1 52       	subi	r30, 0x21	; 33
     e58:	fa 4f       	sbci	r31, 0xFA	; 250
     e5a:	e4 91       	lpm	r30, Z
     e5c:	ed 87       	std	Y+13, r30	; 0x0d
l:\Projects\arduino\libraries\SoftwareSerialParity/SoftwareSerialParity.cpp:290
  uint8_t port = digitalPinToPort(rx);
     e5e:	fb 01       	movw	r30, r22
     e60:	e8 53       	subi	r30, 0x38	; 56
     e62:	fa 4f       	sbci	r31, 0xFA	; 250
     e64:	e4 91       	lpm	r30, Z
l:\Projects\arduino\libraries\SoftwareSerialParity/SoftwareSerialParity.cpp:291
  _receivePortRegister = portInputRegister(port);
     e66:	f0 e0       	ldi	r31, 0x00	; 0
     e68:	ee 0f       	add	r30, r30
     e6a:	ff 1f       	adc	r31, r31
     e6c:	e6 55       	subi	r30, 0x56	; 86
     e6e:	fa 4f       	sbci	r31, 0xFA	; 250
     e70:	85 91       	lpm	r24, Z+
     e72:	94 91       	lpm	r25, Z
     e74:	99 8b       	std	Y+17, r25	; 0x11
     e76:	88 8b       	std	Y+16, r24	; 0x10
l:\Projects\arduino\libraries\SoftwareSerialParity/SoftwareSerialParity.cpp:292
}
     e78:	df 91       	pop	r29
     e7a:	cf 91       	pop	r28
     e7c:	1f 91       	pop	r17
     e7e:	08 95       	ret
l:\Projects\arduino\libraries\SoftwareSerialParity/SoftwareSerialParity.cpp:287

void SoftwareSerialParity::setRX(uint8_t rx)
{
  pinMode(rx, INPUT);
  if (!_inverse_logic)
    digitalWrite(rx, HIGH);  // pullup for normal logic!
     e80:	61 e0       	ldi	r22, 0x01	; 1
     e82:	81 2f       	mov	r24, r17
     e84:	0e 94 61 03 	call	0x6c2	; 0x6c2 <digitalWrite>
     e88:	e2 cf       	rjmp	.-60     	; 0xe4e <SoftwareSerialParity::setRX(unsigned char)+0x18>

00000e8a <SoftwareSerialParity::setTX(unsigned char)>:
_ZN20SoftwareSerialParity5setTXEh():
l:\Projects\arduino\libraries\SoftwareSerialParity/SoftwareSerialParity.cpp:271
{
  end();
}

void SoftwareSerialParity::setTX(uint8_t tx)
{
     e8a:	1f 93       	push	r17
     e8c:	cf 93       	push	r28
     e8e:	df 93       	push	r29
     e90:	ec 01       	movw	r28, r24
     e92:	16 2f       	mov	r17, r22
l:\Projects\arduino\libraries\SoftwareSerialParity/SoftwareSerialParity.cpp:276
  // First write, then set output. If we do this the other way around,
  // the pin would be output low for a short while before switching to
  // output high. Now, it is input with pullup for a short while, which
  // is fine. With inverse logic, either order is fine.
  digitalWrite(tx, _inverse_logic ? LOW : HIGH);
     e94:	68 a1       	ldd	r22, Y+32	; 0x20
     e96:	66 95       	lsr	r22
     e98:	81 e0       	ldi	r24, 0x01	; 1
     e9a:	68 27       	eor	r22, r24
     e9c:	61 70       	andi	r22, 0x01	; 1
     e9e:	81 2f       	mov	r24, r17
     ea0:	0e 94 61 03 	call	0x6c2	; 0x6c2 <digitalWrite>
l:\Projects\arduino\libraries\SoftwareSerialParity/SoftwareSerialParity.cpp:277
  pinMode(tx, OUTPUT);
     ea4:	61 e0       	ldi	r22, 0x01	; 1
     ea6:	81 2f       	mov	r24, r17
     ea8:	0e 94 94 03 	call	0x728	; 0x728 <pinMode>
l:\Projects\arduino\libraries\SoftwareSerialParity/SoftwareSerialParity.cpp:278
  _transmitBitMask = digitalPinToBitMask(tx);
     eac:	81 2f       	mov	r24, r17
     eae:	90 e0       	ldi	r25, 0x00	; 0
     eb0:	fc 01       	movw	r30, r24
     eb2:	e1 52       	subi	r30, 0x21	; 33
     eb4:	fa 4f       	sbci	r31, 0xFA	; 250
     eb6:	e4 91       	lpm	r30, Z
     eb8:	ea 8b       	std	Y+18, r30	; 0x12
l:\Projects\arduino\libraries\SoftwareSerialParity/SoftwareSerialParity.cpp:279
  uint8_t port = digitalPinToPort(tx);
     eba:	fc 01       	movw	r30, r24
     ebc:	e8 53       	subi	r30, 0x38	; 56
     ebe:	fa 4f       	sbci	r31, 0xFA	; 250
     ec0:	e4 91       	lpm	r30, Z
l:\Projects\arduino\libraries\SoftwareSerialParity/SoftwareSerialParity.cpp:280
  _transmitPortRegister = portOutputRegister(port);
     ec2:	f0 e0       	ldi	r31, 0x00	; 0
     ec4:	ee 0f       	add	r30, r30
     ec6:	ff 1f       	adc	r31, r31
     ec8:	e2 54       	subi	r30, 0x42	; 66
     eca:	fa 4f       	sbci	r31, 0xFA	; 250
     ecc:	85 91       	lpm	r24, Z+
     ece:	94 91       	lpm	r25, Z
     ed0:	9c 8b       	std	Y+20, r25	; 0x14
     ed2:	8b 8b       	std	Y+19, r24	; 0x13
l:\Projects\arduino\libraries\SoftwareSerialParity/SoftwareSerialParity.cpp:281
}
     ed4:	df 91       	pop	r29
     ed6:	cf 91       	pop	r28
     ed8:	1f 91       	pop	r17
     eda:	08 95       	ret

00000edc <SoftwareSerialParity::SoftwareSerialParity(unsigned char, unsigned char, bool)>:
_ZN20SoftwareSerialParityC2Ehhb():
l:\Projects\arduino\libraries\SoftwareSerialParity/SoftwareSerialParity.cpp:249
#endif

//
// Constructor
//
SoftwareSerialParity::SoftwareSerialParity(uint8_t receivePin, uint8_t transmitPin , bool inverse_logic/* = false */) : 
     edc:	1f 93       	push	r17
     ede:	cf 93       	push	r28
     ee0:	df 93       	push	r29
     ee2:	ec 01       	movw	r28, r24
     ee4:	16 2f       	mov	r17, r22
_ZN5PrintC2Ev():
C:\Users\Kirpich\AppData\Local\Arduino15\packages\MiniCore\hardware\avr\3.1.1\cores\MCUdude_corefiles/Print.h:46
  public:
    Print() : write_error(0) {}
     ee6:	1b 82       	std	Y+3, r1	; 0x03
     ee8:	1a 82       	std	Y+2, r1	; 0x02
_ZN6StreamC2Ev():
C:\Users\Kirpich\AppData\Local\Arduino15\packages\MiniCore\hardware\avr\3.1.1\cores\MCUdude_corefiles/Stream.h:63
     eea:	88 ee       	ldi	r24, 0xE8	; 232
     eec:	93 e0       	ldi	r25, 0x03	; 3
     eee:	a0 e0       	ldi	r26, 0x00	; 0
     ef0:	b0 e0       	ldi	r27, 0x00	; 0
     ef2:	8c 83       	std	Y+4, r24	; 0x04
     ef4:	9d 83       	std	Y+5, r25	; 0x05
     ef6:	ae 83       	std	Y+6, r26	; 0x06
     ef8:	bf 83       	std	Y+7, r27	; 0x07
_ZN20SoftwareSerialParityC2Ehhb():
l:\Projects\arduino\libraries\SoftwareSerialParity/SoftwareSerialParity.cpp:255
  _rx_delay_centering(0),
  _rx_delay_intrabit(0),
  _rx_delay_stopbit(0),
  _tx_delay(0),
  _buffer_overflow(false),
  _inverse_logic(inverse_logic)
     efa:	8b e0       	ldi	r24, 0x0B	; 11
     efc:	91 e0       	ldi	r25, 0x01	; 1
     efe:	99 83       	std	Y+1, r25	; 0x01
     f00:	88 83       	st	Y, r24
     f02:	19 8e       	std	Y+25, r1	; 0x19
     f04:	18 8e       	std	Y+24, r1	; 0x18
     f06:	1b 8e       	std	Y+27, r1	; 0x1b
     f08:	1a 8e       	std	Y+26, r1	; 0x1a
     f0a:	1d 8e       	std	Y+29, r1	; 0x1d
     f0c:	1c 8e       	std	Y+28, r1	; 0x1c
     f0e:	1f 8e       	std	Y+31, r1	; 0x1f
     f10:	1e 8e       	std	Y+30, r1	; 0x1e
     f12:	88 a1       	ldd	r24, Y+32	; 0x20
     f14:	8e 7f       	andi	r24, 0xFE	; 254
     f16:	20 fb       	bst	r18, 0
     f18:	81 f9       	bld	r24, 1
     f1a:	88 a3       	std	Y+32, r24	; 0x20
l:\Projects\arduino\libraries\SoftwareSerialParity/SoftwareSerialParity.cpp:258
 
{
  setTX(transmitPin);
     f1c:	64 2f       	mov	r22, r20
     f1e:	ce 01       	movw	r24, r28
     f20:	0e 94 45 07 	call	0xe8a	; 0xe8a <SoftwareSerialParity::setTX(unsigned char)>
l:\Projects\arduino\libraries\SoftwareSerialParity/SoftwareSerialParity.cpp:259
  setRX(receivePin);
     f24:	61 2f       	mov	r22, r17
     f26:	ce 01       	movw	r24, r28
     f28:	0e 94 1b 07 	call	0xe36	; 0xe36 <SoftwareSerialParity::setRX(unsigned char)>
l:\Projects\arduino\libraries\SoftwareSerialParity/SoftwareSerialParity.cpp:260
}
     f2c:	df 91       	pop	r29
     f2e:	cf 91       	pop	r28
     f30:	1f 91       	pop	r17
     f32:	08 95       	ret

00000f34 <SoftwareSerialParity::rx_pin_read()>:
_ZN20SoftwareSerialParity11rx_pin_readEv():
l:\Projects\arduino\libraries\SoftwareSerialParity/SoftwareSerialParity.cpp:210
    ::);
#endif
}

uint8_t SoftwareSerialParity::rx_pin_read()
{
     f34:	fc 01       	movw	r30, r24
l:\Projects\arduino\libraries\SoftwareSerialParity/SoftwareSerialParity.cpp:211
  return *_receivePortRegister & _receiveBitMask;
     f36:	a0 89       	ldd	r26, Z+16	; 0x10
     f38:	b1 89       	ldd	r27, Z+17	; 0x11
     f3a:	9c 91       	ld	r25, X
     f3c:	85 85       	ldd	r24, Z+13	; 0x0d
l:\Projects\arduino\libraries\SoftwareSerialParity/SoftwareSerialParity.cpp:212
}
     f3e:	89 23       	and	r24, r25
     f40:	08 95       	ret

00000f42 <SoftwareSerialParity::stopListening()>:
_ZN20SoftwareSerialParity13stopListeningEv():
l:\Projects\arduino\libraries\SoftwareSerialParity/SoftwareSerialParity.cpp:111
}

// Stop listening. Returns true if we were actually listening.
bool SoftwareSerialParity::stopListening()
{
  if (active_object == this)
     f42:	20 91 46 02 	lds	r18, 0x0246	; 0x800246 <SoftwareSerialParity::active_object>
     f46:	30 91 47 02 	lds	r19, 0x0247	; 0x800247 <SoftwareSerialParity::active_object+0x1>
     f4a:	28 17       	cp	r18, r24
     f4c:	39 07       	cpc	r19, r25
     f4e:	11 f0       	breq	.+4      	; 0xf54 <SoftwareSerialParity::stopListening()+0x12>
l:\Projects\arduino\libraries\SoftwareSerialParity/SoftwareSerialParity.cpp:117
  {
    setRxIntMsk(false);
    active_object = NULL;
    return true;
  }
  return false;
     f50:	80 e0       	ldi	r24, 0x00	; 0
l:\Projects\arduino\libraries\SoftwareSerialParity/SoftwareSerialParity.cpp:118
}
     f52:	08 95       	ret
_ZN20SoftwareSerialParity11setRxIntMskEb():
l:\Projects\arduino\libraries\SoftwareSerialParity/SoftwareSerialParity.cpp:390
void SoftwareSerialParity::setRxIntMsk(bool enable)
{
    if (enable)
      *_pcint_maskreg |= _pcint_maskvalue;
    else
      *_pcint_maskreg &= ~_pcint_maskvalue;
     f54:	dc 01       	movw	r26, r24
     f56:	55 96       	adiw	r26, 0x15	; 21
     f58:	ed 91       	ld	r30, X+
     f5a:	fc 91       	ld	r31, X
     f5c:	56 97       	sbiw	r26, 0x16	; 22
     f5e:	20 81       	ld	r18, Z
     f60:	57 96       	adiw	r26, 0x17	; 23
     f62:	8c 91       	ld	r24, X
     f64:	80 95       	com	r24
     f66:	82 23       	and	r24, r18
     f68:	80 83       	st	Z, r24
_ZN20SoftwareSerialParity13stopListeningEv():
l:\Projects\arduino\libraries\SoftwareSerialParity/SoftwareSerialParity.cpp:114
bool SoftwareSerialParity::stopListening()
{
  if (active_object == this)
  {
    setRxIntMsk(false);
    active_object = NULL;
     f6a:	10 92 47 02 	sts	0x0247, r1	; 0x800247 <SoftwareSerialParity::active_object+0x1>
     f6e:	10 92 46 02 	sts	0x0246, r1	; 0x800246 <SoftwareSerialParity::active_object>
l:\Projects\arduino\libraries\SoftwareSerialParity/SoftwareSerialParity.cpp:115
    return true;
     f72:	81 e0       	ldi	r24, 0x01	; 1
     f74:	08 95       	ret

00000f76 <SoftwareSerialParity::end()>:
_ZN20SoftwareSerialParity3endEv():
l:\Projects\arduino\libraries\SoftwareSerialParity/SoftwareSerialParity.cpp:395
      *_pcint_maskreg &= ~_pcint_maskvalue;
}

void SoftwareSerialParity::end()
{
  stopListening();
     f76:	0e 94 a1 07 	call	0xf42	; 0xf42 <SoftwareSerialParity::stopListening()>
l:\Projects\arduino\libraries\SoftwareSerialParity/SoftwareSerialParity.cpp:396
}
     f7a:	08 95       	ret

00000f7c <SoftwareSerialParity::~SoftwareSerialParity()>:
_ZN20SoftwareSerialParityD2Ev():
l:\Projects\arduino\libraries\SoftwareSerialParity/SoftwareSerialParity.cpp:265
}

//
// Destructor
//
SoftwareSerialParity::~SoftwareSerialParity()
     f7c:	2b e0       	ldi	r18, 0x0B	; 11
     f7e:	31 e0       	ldi	r19, 0x01	; 1
     f80:	fc 01       	movw	r30, r24
     f82:	31 83       	std	Z+1, r19	; 0x01
     f84:	20 83       	st	Z, r18
l:\Projects\arduino\libraries\SoftwareSerialParity/SoftwareSerialParity.cpp:267
{
  end();
     f86:	0e 94 bb 07 	call	0xf76	; 0xf76 <SoftwareSerialParity::end()>
l:\Projects\arduino\libraries\SoftwareSerialParity/SoftwareSerialParity.cpp:268
}
     f8a:	08 95       	ret

00000f8c <SoftwareSerialParity::listen()>:
_ZN20SoftwareSerialParity6listenEv():
l:\Projects\arduino\libraries\SoftwareSerialParity/SoftwareSerialParity.cpp:88
}

// This function sets the current object as the "listening"
// one and returns true if it replaces another 
bool SoftwareSerialParity::listen()
{
     f8c:	cf 93       	push	r28
     f8e:	df 93       	push	r29
l:\Projects\arduino\libraries\SoftwareSerialParity/SoftwareSerialParity.cpp:89
  if (!_rx_delay_stopbit)
     f90:	fc 01       	movw	r30, r24
     f92:	24 8d       	ldd	r18, Z+28	; 0x1c
     f94:	35 8d       	ldd	r19, Z+29	; 0x1d
     f96:	23 2b       	or	r18, r19
     f98:	09 f1       	breq	.+66     	; 0xfdc <SoftwareSerialParity::listen()+0x50>
l:\Projects\arduino\libraries\SoftwareSerialParity/SoftwareSerialParity.cpp:92
    return false;

  if (active_object != this)
     f9a:	20 91 46 02 	lds	r18, 0x0246	; 0x800246 <SoftwareSerialParity::active_object>
     f9e:	30 91 47 02 	lds	r19, 0x0247	; 0x800247 <SoftwareSerialParity::active_object+0x1>
     fa2:	28 17       	cp	r18, r24
     fa4:	39 07       	cpc	r19, r25
     fa6:	f1 f0       	breq	.+60     	; 0xfe4 <SoftwareSerialParity::listen()+0x58>
     fa8:	ec 01       	movw	r28, r24
l:\Projects\arduino\libraries\SoftwareSerialParity/SoftwareSerialParity.cpp:94
  {
    if (active_object)
     faa:	21 15       	cp	r18, r1
     fac:	31 05       	cpc	r19, r1
     fae:	19 f0       	breq	.+6      	; 0xfb6 <SoftwareSerialParity::listen()+0x2a>
l:\Projects\arduino\libraries\SoftwareSerialParity/SoftwareSerialParity.cpp:95
      active_object->stopListening();
     fb0:	c9 01       	movw	r24, r18
     fb2:	0e 94 a1 07 	call	0xf42	; 0xf42 <SoftwareSerialParity::stopListening()>
l:\Projects\arduino\libraries\SoftwareSerialParity/SoftwareSerialParity.cpp:97

    _buffer_overflow = false;
     fb6:	88 a1       	ldd	r24, Y+32	; 0x20
     fb8:	8e 7f       	andi	r24, 0xFE	; 254
     fba:	88 a3       	std	Y+32, r24	; 0x20
l:\Projects\arduino\libraries\SoftwareSerialParity/SoftwareSerialParity.cpp:98
    _receive_buffer_head = _receive_buffer_tail = 0;
     fbc:	10 92 44 02 	sts	0x0244, r1	; 0x800244 <SoftwareSerialParity::_receive_buffer_tail>
     fc0:	10 92 45 02 	sts	0x0245, r1	; 0x800245 <SoftwareSerialParity::_receive_buffer_head>
l:\Projects\arduino\libraries\SoftwareSerialParity/SoftwareSerialParity.cpp:99
    active_object = this;
     fc4:	d0 93 47 02 	sts	0x0247, r29	; 0x800247 <SoftwareSerialParity::active_object+0x1>
     fc8:	c0 93 46 02 	sts	0x0246, r28	; 0x800246 <SoftwareSerialParity::active_object>
_ZN20SoftwareSerialParity11setRxIntMskEb():
l:\Projects\arduino\libraries\SoftwareSerialParity/SoftwareSerialParity.cpp:388
}

void SoftwareSerialParity::setRxIntMsk(bool enable)
{
    if (enable)
      *_pcint_maskreg |= _pcint_maskvalue;
     fcc:	ed 89       	ldd	r30, Y+21	; 0x15
     fce:	fe 89       	ldd	r31, Y+22	; 0x16
     fd0:	80 81       	ld	r24, Z
     fd2:	9f 89       	ldd	r25, Y+23	; 0x17
     fd4:	89 2b       	or	r24, r25
     fd6:	80 83       	st	Z, r24
_ZN20SoftwareSerialParity6listenEv():
l:\Projects\arduino\libraries\SoftwareSerialParity/SoftwareSerialParity.cpp:102
    _buffer_overflow = false;
    _receive_buffer_head = _receive_buffer_tail = 0;
    active_object = this;

    setRxIntMsk(true);
    return true;
     fd8:	81 e0       	ldi	r24, 0x01	; 1
     fda:	01 c0       	rjmp	.+2      	; 0xfde <SoftwareSerialParity::listen()+0x52>
l:\Projects\arduino\libraries\SoftwareSerialParity/SoftwareSerialParity.cpp:90
// This function sets the current object as the "listening"
// one and returns true if it replaces another 
bool SoftwareSerialParity::listen()
{
  if (!_rx_delay_stopbit)
    return false;
     fdc:	80 e0       	ldi	r24, 0x00	; 0
l:\Projects\arduino\libraries\SoftwareSerialParity/SoftwareSerialParity.cpp:106
    setRxIntMsk(true);
    return true;
  }

  return false;
}
     fde:	df 91       	pop	r29
     fe0:	cf 91       	pop	r28
     fe2:	08 95       	ret
l:\Projects\arduino\libraries\SoftwareSerialParity/SoftwareSerialParity.cpp:105

    setRxIntMsk(true);
    return true;
  }

  return false;
     fe4:	80 e0       	ldi	r24, 0x00	; 0
     fe6:	fb cf       	rjmp	.-10     	; 0xfde <SoftwareSerialParity::listen()+0x52>

00000fe8 <SoftwareSerialParity::begin(long, unsigned char)>:
_ZN20SoftwareSerialParity5beginElh():
l:\Projects\arduino\libraries\SoftwareSerialParity/SoftwareSerialParity.cpp:306
//
// Public methods
//

void SoftwareSerialParity::begin(long speed,uint8_t parity)
{
     fe8:	cf 92       	push	r12
     fea:	df 92       	push	r13
     fec:	ef 92       	push	r14
     fee:	ff 92       	push	r15
     ff0:	0f 93       	push	r16
     ff2:	1f 93       	push	r17
     ff4:	cf 93       	push	r28
     ff6:	df 93       	push	r29
     ff8:	ec 01       	movw	r28, r24
     ffa:	6a 01       	movw	r12, r20
     ffc:	7b 01       	movw	r14, r22
     ffe:	02 2f       	mov	r16, r18
l:\Projects\arduino\libraries\SoftwareSerialParity/SoftwareSerialParity.cpp:307
  _rx_delay_centering = _rx_delay_intrabit = _rx_delay_stopbit = _tx_delay = 0;
    1000:	1d 8e       	std	Y+29, r1	; 0x1d
    1002:	1c 8e       	std	Y+28, r1	; 0x1c
    1004:	1b 8e       	std	Y+27, r1	; 0x1b
    1006:	1a 8e       	std	Y+26, r1	; 0x1a
    1008:	19 8e       	std	Y+25, r1	; 0x19
    100a:	18 8e       	std	Y+24, r1	; 0x18
l:\Projects\arduino\libraries\SoftwareSerialParity/SoftwareSerialParity.cpp:310

  // Precalculate the various delays, in number of 4-cycle delays
  uint16_t bit_delay = (F_CPU / speed) / 4;
    100c:	60 e8       	ldi	r22, 0x80	; 128
    100e:	74 e8       	ldi	r23, 0x84	; 132
    1010:	8e e1       	ldi	r24, 0x1E	; 30
    1012:	90 e0       	ldi	r25, 0x00	; 0
    1014:	a7 01       	movw	r20, r14
    1016:	96 01       	movw	r18, r12
    1018:	0e 94 01 1a 	call	0x3402	; 0x3402 <__divmodsi4>
    101c:	69 01       	movw	r12, r18
l:\Projects\arduino\libraries\SoftwareSerialParity/SoftwareSerialParity.cpp:311
  Tparity = parity;
    101e:	0e 87       	std	Y+14, r16	; 0x0e
l:\Projects\arduino\libraries\SoftwareSerialParity/SoftwareSerialParity.cpp:318
  // 12 (gcc 4.8.2) or 13 (gcc 4.3.2) cycles from start bit to first bit,
  // 15 (gcc 4.8.2) or 16 (gcc 4.3.2) cycles between bits,
  // 12 (gcc 4.8.2) or 14 (gcc 4.3.2) cycles from last bit to stop bit
  // These are all close enough to just use 15 cycles, since the inter-bit
  // timings are the most critical (deviations stack 8 times)
  _tx_delay = subtract_cap(bit_delay, 15 / 4);
    1020:	63 e0       	ldi	r22, 0x03	; 3
    1022:	70 e0       	ldi	r23, 0x00	; 0
    1024:	c9 01       	movw	r24, r18
    1026:	0e 94 12 07 	call	0xe24	; 0xe24 <SoftwareSerialParity::subtract_cap(unsigned int, unsigned int)>
    102a:	9f 8f       	std	Y+31, r25	; 0x1f
    102c:	8e 8f       	std	Y+30, r24	; 0x1e
l:\Projects\arduino\libraries\SoftwareSerialParity/SoftwareSerialParity.cpp:321

  // Only setup rx when we have a valid PCINT for this pin
  if (digitalPinToPCICR(_receivePin)) {
    102e:	1c 85       	ldd	r17, Y+12	; 0x0c
    1030:	17 31       	cpi	r17, 0x17	; 23
    1032:	08 f0       	brcs	.+2      	; 0x1036 <SoftwareSerialParity::begin(long, unsigned char)+0x4e>
    1034:	67 c0       	rjmp	.+206    	; 0x1104 <SoftwareSerialParity::begin(long, unsigned char)+0x11c>
l:\Projects\arduino\libraries\SoftwareSerialParity/SoftwareSerialParity.cpp:336
    // are 17 more cycles until the pin value is read (excluding the
    // delay in the loop).
    // We want to have a total delay of 1.5 bit time. Inside the loop,
    // we already wait for 1 bit time - 23 cycles, so here we wait for
    // 0.5 bit time - (71 + 18 - 22) cycles.
    _rx_delay_centering = subtract_cap(bit_delay / 2, (4 + 4 + 75 + 17 - 23) / 4);
    1036:	63 e1       	ldi	r22, 0x13	; 19
    1038:	70 e0       	ldi	r23, 0x00	; 0
    103a:	c6 01       	movw	r24, r12
    103c:	96 95       	lsr	r25
    103e:	87 95       	ror	r24
    1040:	0e 94 12 07 	call	0xe24	; 0xe24 <SoftwareSerialParity::subtract_cap(unsigned int, unsigned int)>
    1044:	99 8f       	std	Y+25, r25	; 0x19
    1046:	88 8f       	std	Y+24, r24	; 0x18
l:\Projects\arduino\libraries\SoftwareSerialParity/SoftwareSerialParity.cpp:339

    // There are 23 cycles in each loop iteration (excluding the delay)
    _rx_delay_intrabit = subtract_cap(bit_delay, 23 / 4);
    1048:	65 e0       	ldi	r22, 0x05	; 5
    104a:	70 e0       	ldi	r23, 0x00	; 0
    104c:	c6 01       	movw	r24, r12
    104e:	0e 94 12 07 	call	0xe24	; 0xe24 <SoftwareSerialParity::subtract_cap(unsigned int, unsigned int)>
    1052:	9b 8f       	std	Y+27, r25	; 0x1b
    1054:	8a 8f       	std	Y+26, r24	; 0x1a
l:\Projects\arduino\libraries\SoftwareSerialParity/SoftwareSerialParity.cpp:349
    // This delay aims at 3/4 of a bit time, meaning the end of the
    // delay will be at 1/4th of the stopbit. This allows some extra
    // time for ISR cleanup, which makes 115200 baud at 16Mhz work more
    // reliably
    
	if (Tparity != NONE)
    1056:	01 30       	cpi	r16, 0x01	; 1
    1058:	e1 f0       	breq	.+56     	; 0x1092 <SoftwareSerialParity::begin(long, unsigned char)+0xaa>
l:\Projects\arduino\libraries\SoftwareSerialParity/SoftwareSerialParity.cpp:350
		_rx_delay_stopbit = subtract_cap(2 * bit_delay * 3 / 4, (37 + 11) / 4);
    105a:	26 e0       	ldi	r18, 0x06	; 6
    105c:	2c 9d       	mul	r18, r12
    105e:	c0 01       	movw	r24, r0
    1060:	2d 9d       	mul	r18, r13
    1062:	90 0d       	add	r25, r0
    1064:	11 24       	eor	r1, r1
    1066:	6c e0       	ldi	r22, 0x0C	; 12
    1068:	70 e0       	ldi	r23, 0x00	; 0
    106a:	96 95       	lsr	r25
    106c:	87 95       	ror	r24
    106e:	96 95       	lsr	r25
    1070:	87 95       	ror	r24
    1072:	0e 94 12 07 	call	0xe24	; 0xe24 <SoftwareSerialParity::subtract_cap(unsigned int, unsigned int)>
    1076:	9d 8f       	std	Y+29, r25	; 0x1d
    1078:	8c 8f       	std	Y+28, r24	; 0x1c
l:\Projects\arduino\libraries\SoftwareSerialParity/SoftwareSerialParity.cpp:368


    // Enable the PCINT for the entire port here, but never disable it
    // (others might also need it, so we disable the interrupt by using
    // the per-pin PCMSK register).
    *digitalPinToPCICR(_receivePin) |= _BV(digitalPinToPCICRbit(_receivePin));
    107a:	80 91 68 00 	lds	r24, 0x0068	; 0x800068 <__DATA_REGION_ORIGIN__+0x8>
    107e:	18 30       	cpi	r17, 0x08	; 8
    1080:	c0 f0       	brcs	.+48     	; 0x10b2 <SoftwareSerialParity::begin(long, unsigned char)+0xca>
    1082:	1e 30       	cpi	r17, 0x0E	; 14
    1084:	40 f1       	brcs	.+80     	; 0x10d6 <SoftwareSerialParity::begin(long, unsigned char)+0xee>
    1086:	14 31       	cpi	r17, 0x14	; 20
    1088:	40 f1       	brcs	.+80     	; 0x10da <SoftwareSerialParity::begin(long, unsigned char)+0xf2>
    108a:	16 31       	cpi	r17, 0x16	; 22
    108c:	40 f5       	brcc	.+80     	; 0x10de <SoftwareSerialParity::begin(long, unsigned char)+0xf6>
    108e:	91 e0       	ldi	r25, 0x01	; 1
    1090:	11 c0       	rjmp	.+34     	; 0x10b4 <SoftwareSerialParity::begin(long, unsigned char)+0xcc>
l:\Projects\arduino\libraries\SoftwareSerialParity/SoftwareSerialParity.cpp:352
    // reliably
    
	if (Tparity != NONE)
		_rx_delay_stopbit = subtract_cap(2 * bit_delay * 3 / 4, (37 + 11) / 4);
	else
		_rx_delay_stopbit = subtract_cap(bit_delay * 3 / 4, (37 + 11) / 4);
    1092:	c6 01       	movw	r24, r12
    1094:	88 0f       	add	r24, r24
    1096:	99 1f       	adc	r25, r25
    1098:	8c 0d       	add	r24, r12
    109a:	9d 1d       	adc	r25, r13
    109c:	6c e0       	ldi	r22, 0x0C	; 12
    109e:	70 e0       	ldi	r23, 0x00	; 0
    10a0:	96 95       	lsr	r25
    10a2:	87 95       	ror	r24
    10a4:	96 95       	lsr	r25
    10a6:	87 95       	ror	r24
    10a8:	0e 94 12 07 	call	0xe24	; 0xe24 <SoftwareSerialParity::subtract_cap(unsigned int, unsigned int)>
    10ac:	9d 8f       	std	Y+29, r25	; 0x1d
    10ae:	8c 8f       	std	Y+28, r24	; 0x1c
    10b0:	e4 cf       	rjmp	.-56     	; 0x107a <SoftwareSerialParity::begin(long, unsigned char)+0x92>
l:\Projects\arduino\libraries\SoftwareSerialParity/SoftwareSerialParity.cpp:368


    // Enable the PCINT for the entire port here, but never disable it
    // (others might also need it, so we disable the interrupt by using
    // the per-pin PCMSK register).
    *digitalPinToPCICR(_receivePin) |= _BV(digitalPinToPCICRbit(_receivePin));
    10b2:	94 e0       	ldi	r25, 0x04	; 4
    10b4:	89 2b       	or	r24, r25
    10b6:	80 93 68 00 	sts	0x0068, r24	; 0x800068 <__DATA_REGION_ORIGIN__+0x8>
l:\Projects\arduino\libraries\SoftwareSerialParity/SoftwareSerialParity.cpp:371
    // Precalculate the pcint mask register and value, so setRxIntMask
    // can be used inside the ISR without costing too much time.
    _pcint_maskreg = digitalPinToPCMSK(_receivePin);
    10ba:	8c 85       	ldd	r24, Y+12	; 0x0c
    10bc:	88 30       	cpi	r24, 0x08	; 8
    10be:	88 f0       	brcs	.+34     	; 0x10e2 <SoftwareSerialParity::begin(long, unsigned char)+0xfa>
    10c0:	8e 30       	cpi	r24, 0x0E	; 14
    10c2:	60 f1       	brcs	.+88     	; 0x111c <SoftwareSerialParity::begin(long, unsigned char)+0x134>
    10c4:	84 31       	cpi	r24, 0x14	; 20
    10c6:	68 f1       	brcs	.+90     	; 0x1122 <SoftwareSerialParity::begin(long, unsigned char)+0x13a>
    10c8:	86 31       	cpi	r24, 0x16	; 22
    10ca:	70 f1       	brcs	.+92     	; 0x1128 <SoftwareSerialParity::begin(long, unsigned char)+0x140>
    10cc:	87 31       	cpi	r24, 0x17	; 23
    10ce:	78 f5       	brcc	.+94     	; 0x112e <SoftwareSerialParity::begin(long, unsigned char)+0x146>
    10d0:	2c e6       	ldi	r18, 0x6C	; 108
    10d2:	30 e0       	ldi	r19, 0x00	; 0
    10d4:	08 c0       	rjmp	.+16     	; 0x10e6 <SoftwareSerialParity::begin(long, unsigned char)+0xfe>
l:\Projects\arduino\libraries\SoftwareSerialParity/SoftwareSerialParity.cpp:368


    // Enable the PCINT for the entire port here, but never disable it
    // (others might also need it, so we disable the interrupt by using
    // the per-pin PCMSK register).
    *digitalPinToPCICR(_receivePin) |= _BV(digitalPinToPCICRbit(_receivePin));
    10d6:	91 e0       	ldi	r25, 0x01	; 1
    10d8:	ed cf       	rjmp	.-38     	; 0x10b4 <SoftwareSerialParity::begin(long, unsigned char)+0xcc>
    10da:	92 e0       	ldi	r25, 0x02	; 2
    10dc:	eb cf       	rjmp	.-42     	; 0x10b4 <SoftwareSerialParity::begin(long, unsigned char)+0xcc>
    10de:	90 e0       	ldi	r25, 0x00	; 0
    10e0:	e9 cf       	rjmp	.-46     	; 0x10b4 <SoftwareSerialParity::begin(long, unsigned char)+0xcc>
l:\Projects\arduino\libraries\SoftwareSerialParity/SoftwareSerialParity.cpp:371
    // Precalculate the pcint mask register and value, so setRxIntMask
    // can be used inside the ISR without costing too much time.
    _pcint_maskreg = digitalPinToPCMSK(_receivePin);
    10e2:	2d e6       	ldi	r18, 0x6D	; 109
    10e4:	30 e0       	ldi	r19, 0x00	; 0
    10e6:	3e 8b       	std	Y+22, r19	; 0x16
    10e8:	2d 8b       	std	Y+21, r18	; 0x15
l:\Projects\arduino\libraries\SoftwareSerialParity/SoftwareSerialParity.cpp:372
    _pcint_maskvalue = _BV(digitalPinToPCMSKbit(_receivePin));
    10ea:	88 30       	cpi	r24, 0x08	; 8
    10ec:	18 f5       	brcc	.+70     	; 0x1134 <SoftwareSerialParity::begin(long, unsigned char)+0x14c>
    10ee:	91 e0       	ldi	r25, 0x01	; 1
    10f0:	01 c0       	rjmp	.+2      	; 0x10f4 <SoftwareSerialParity::begin(long, unsigned char)+0x10c>
    10f2:	99 0f       	add	r25, r25
    10f4:	8a 95       	dec	r24
    10f6:	ea f7       	brpl	.-6      	; 0x10f2 <SoftwareSerialParity::begin(long, unsigned char)+0x10a>
    10f8:	89 2f       	mov	r24, r25
    10fa:	8f 8b       	std	Y+23, r24	; 0x17
l:\Projects\arduino\libraries\SoftwareSerialParity/SoftwareSerialParity.cpp:374

    tunedDelay(_tx_delay); // if we were low this establishes the end
    10fc:	8e 8d       	ldd	r24, Y+30	; 0x1e
    10fe:	9f 8d       	ldd	r25, Y+31	; 0x1f
_delay_loop_2():
c:\users\kirpich\appdata\local\arduino15\packages\arduino\tools\avr-gcc\7.3.0-atmel3.6.1-arduino7\avr\include\util/delay_basic.h:110
    1100:	01 97       	sbiw	r24, 0x01	; 1
    1102:	f1 f7       	brne	.-4      	; 0x1100 <SoftwareSerialParity::begin(long, unsigned char)+0x118>
_ZN20SoftwareSerialParity5beginElh():
l:\Projects\arduino\libraries\SoftwareSerialParity/SoftwareSerialParity.cpp:382
#if _DEBUG
  pinMode(_DEBUG_PIN1, OUTPUT);
  pinMode(_DEBUG_PIN2, OUTPUT);
#endif

  listen();
    1104:	ce 01       	movw	r24, r28
    1106:	0e 94 c6 07 	call	0xf8c	; 0xf8c <SoftwareSerialParity::listen()>
l:\Projects\arduino\libraries\SoftwareSerialParity/SoftwareSerialParity.cpp:383
}
    110a:	df 91       	pop	r29
    110c:	cf 91       	pop	r28
    110e:	1f 91       	pop	r17
    1110:	0f 91       	pop	r16
    1112:	ff 90       	pop	r15
    1114:	ef 90       	pop	r14
    1116:	df 90       	pop	r13
    1118:	cf 90       	pop	r12
    111a:	08 95       	ret
l:\Projects\arduino\libraries\SoftwareSerialParity/SoftwareSerialParity.cpp:371
    // (others might also need it, so we disable the interrupt by using
    // the per-pin PCMSK register).
    *digitalPinToPCICR(_receivePin) |= _BV(digitalPinToPCICRbit(_receivePin));
    // Precalculate the pcint mask register and value, so setRxIntMask
    // can be used inside the ISR without costing too much time.
    _pcint_maskreg = digitalPinToPCMSK(_receivePin);
    111c:	2b e6       	ldi	r18, 0x6B	; 107
    111e:	30 e0       	ldi	r19, 0x00	; 0
    1120:	e2 cf       	rjmp	.-60     	; 0x10e6 <SoftwareSerialParity::begin(long, unsigned char)+0xfe>
    1122:	2c e6       	ldi	r18, 0x6C	; 108
    1124:	30 e0       	ldi	r19, 0x00	; 0
    1126:	df cf       	rjmp	.-66     	; 0x10e6 <SoftwareSerialParity::begin(long, unsigned char)+0xfe>
    1128:	2b e6       	ldi	r18, 0x6B	; 107
    112a:	30 e0       	ldi	r19, 0x00	; 0
    112c:	dc cf       	rjmp	.-72     	; 0x10e6 <SoftwareSerialParity::begin(long, unsigned char)+0xfe>
    112e:	30 e0       	ldi	r19, 0x00	; 0
    1130:	20 e0       	ldi	r18, 0x00	; 0
    1132:	d9 cf       	rjmp	.-78     	; 0x10e6 <SoftwareSerialParity::begin(long, unsigned char)+0xfe>
l:\Projects\arduino\libraries\SoftwareSerialParity/SoftwareSerialParity.cpp:372
    _pcint_maskvalue = _BV(digitalPinToPCMSKbit(_receivePin));
    1134:	8e 30       	cpi	r24, 0x0E	; 14
    1136:	48 f4       	brcc	.+18     	; 0x114a <SoftwareSerialParity::begin(long, unsigned char)+0x162>
    1138:	88 50       	subi	r24, 0x08	; 8
    113a:	99 0b       	sbc	r25, r25
    113c:	91 e0       	ldi	r25, 0x01	; 1
    113e:	01 c0       	rjmp	.+2      	; 0x1142 <SoftwareSerialParity::begin(long, unsigned char)+0x15a>
    1140:	99 0f       	add	r25, r25
    1142:	8a 95       	dec	r24
    1144:	ea f7       	brpl	.-6      	; 0x1140 <SoftwareSerialParity::begin(long, unsigned char)+0x158>
    1146:	89 2f       	mov	r24, r25
    1148:	d8 cf       	rjmp	.-80     	; 0x10fa <SoftwareSerialParity::begin(long, unsigned char)+0x112>
    114a:	86 31       	cpi	r24, 0x16	; 22
    114c:	48 f4       	brcc	.+18     	; 0x1160 <SoftwareSerialParity::begin(long, unsigned char)+0x178>
    114e:	8e 50       	subi	r24, 0x0E	; 14
    1150:	99 0b       	sbc	r25, r25
    1152:	91 e0       	ldi	r25, 0x01	; 1
    1154:	01 c0       	rjmp	.+2      	; 0x1158 <SoftwareSerialParity::begin(long, unsigned char)+0x170>
    1156:	99 0f       	add	r25, r25
    1158:	8a 95       	dec	r24
    115a:	ea f7       	brpl	.-6      	; 0x1156 <SoftwareSerialParity::begin(long, unsigned char)+0x16e>
    115c:	89 2f       	mov	r24, r25
    115e:	cd cf       	rjmp	.-102    	; 0x10fa <SoftwareSerialParity::begin(long, unsigned char)+0x112>
    1160:	87 31       	cpi	r24, 0x17	; 23
    1162:	48 f4       	brcc	.+18     	; 0x1176 <SoftwareSerialParity::begin(long, unsigned char)+0x18e>
    1164:	80 51       	subi	r24, 0x10	; 16
    1166:	99 0b       	sbc	r25, r25
    1168:	91 e0       	ldi	r25, 0x01	; 1
    116a:	01 c0       	rjmp	.+2      	; 0x116e <SoftwareSerialParity::begin(long, unsigned char)+0x186>
    116c:	99 0f       	add	r25, r25
    116e:	8a 95       	dec	r24
    1170:	ea f7       	brpl	.-6      	; 0x116c <SoftwareSerialParity::begin(long, unsigned char)+0x184>
    1172:	89 2f       	mov	r24, r25
    1174:	c2 cf       	rjmp	.-124    	; 0x10fa <SoftwareSerialParity::begin(long, unsigned char)+0x112>
    1176:	80 e0       	ldi	r24, 0x00	; 0
    1178:	c0 cf       	rjmp	.-128    	; 0x10fa <SoftwareSerialParity::begin(long, unsigned char)+0x112>

0000117a <Print::availableForWrite()>:
_ZN5Print17availableForWriteEv():
C:\Users\Kirpich\AppData\Local\Arduino15\packages\MiniCore\hardware\avr\3.1.1\cores\MCUdude_corefiles/Print.h:63
      return write((const uint8_t *)buffer, size);
    }

    // default to zero, meaning "a single write may block"
    // should be overriden by subclasses with buffering
    virtual int availableForWrite() { return 0; }
    117a:	90 e0       	ldi	r25, 0x00	; 0
    117c:	80 e0       	ldi	r24, 0x00	; 0
    117e:	08 95       	ret

00001180 <AES::get_unpadded_len(unsigned char const*, int)>:
_ZN3AES16get_unpadded_lenEPKhi():
l:\Projects\arduino\libraries\AESLib\src/AES.cpp:546
int AES::get_unpadded_len(const byte* msg,int p_size)
{
  byte pad_char = 0x00;
  int i = 0;

  switch (padmode)
    1180:	fc 01       	movw	r30, r24
    1182:	21 81       	ldd	r18, Z+1	; 0x01
    1184:	32 81       	ldd	r19, Z+2	; 0x02
    1186:	22 30       	cpi	r18, 0x02	; 2
    1188:	31 05       	cpc	r19, r1
    118a:	91 f1       	breq	.+100    	; 0x11f0 <AES::get_unpadded_len(unsigned char const*, int)+0x70>
    118c:	fc f0       	brlt	.+62     	; 0x11cc <AES::get_unpadded_len(unsigned char const*, int)+0x4c>
    118e:	24 30       	cpi	r18, 0x04	; 4
    1190:	31 05       	cpc	r19, r1
    1192:	09 f4       	brne	.+2      	; 0x1196 <AES::get_unpadded_len(unsigned char const*, int)+0x16>
    1194:	45 c0       	rjmp	.+138    	; 0x1220 <AES::get_unpadded_len(unsigned char const*, int)+0xa0>
    1196:	26 30       	cpi	r18, 0x06	; 6
    1198:	31 05       	cpc	r19, r1
    119a:	09 f0       	breq	.+2      	; 0x119e <AES::get_unpadded_len(unsigned char const*, int)+0x1e>
    119c:	4f c0       	rjmp	.+158    	; 0x123c <AES::get_unpadded_len(unsigned char const*, int)+0xbc>
l:\Projects\arduino\libraries\AESLib\src/AES.cpp:556
    break;
  case paddingMode::Random:
    return p_size;
    break;
  case paddingMode::Array:
    for( i = 15; i > 0 && msg[p_size-1] !=arr_pad[i]; i--)
    119e:	2f e0       	ldi	r18, 0x0F	; 15
    11a0:	30 e0       	ldi	r19, 0x00	; 0
l:\Projects\arduino\libraries\AESLib\src/AES.cpp:543

/******************************************************************************/

int AES::get_unpadded_len(const byte* msg,int p_size)
{
  byte pad_char = 0x00;
    11a2:	b0 e0       	ldi	r27, 0x00	; 0
l:\Projects\arduino\libraries\AESLib\src/AES.cpp:556
    break;
  case paddingMode::Random:
    return p_size;
    break;
  case paddingMode::Array:
    for( i = 15; i > 0 && msg[p_size-1] !=arr_pad[i]; i--)
    11a4:	12 16       	cp	r1, r18
    11a6:	13 06       	cpc	r1, r19
    11a8:	6c f5       	brge	.+90     	; 0x1204 <AES::get_unpadded_len(unsigned char const*, int)+0x84>
    11aa:	fb 01       	movw	r30, r22
    11ac:	e4 0f       	add	r30, r20
    11ae:	f5 1f       	adc	r31, r21
    11b0:	31 97       	sbiw	r30, 0x01	; 1
    11b2:	a0 81       	ld	r26, Z
    11b4:	fc 01       	movw	r30, r24
    11b6:	e2 0f       	add	r30, r18
    11b8:	f3 1f       	adc	r31, r19
    11ba:	e9 50       	subi	r30, 0x09	; 9
    11bc:	ff 4f       	sbci	r31, 0xFF	; 255
    11be:	e0 81       	ld	r30, Z
    11c0:	ae 17       	cp	r26, r30
    11c2:	01 f1       	breq	.+64     	; 0x1204 <AES::get_unpadded_len(unsigned char const*, int)+0x84>
    11c4:	21 50       	subi	r18, 0x01	; 1
    11c6:	31 09       	sbc	r19, r1
l:\Projects\arduino\libraries\AESLib\src/AES.cpp:557
    pad_char = arr_pad[i];
    11c8:	be 2f       	mov	r27, r30
    11ca:	ec cf       	rjmp	.-40     	; 0x11a4 <AES::get_unpadded_len(unsigned char const*, int)+0x24>
l:\Projects\arduino\libraries\AESLib\src/AES.cpp:546
int AES::get_unpadded_len(const byte* msg,int p_size)
{
  byte pad_char = 0x00;
  int i = 0;

  switch (padmode)
    11cc:	21 15       	cp	r18, r1
    11ce:	31 05       	cpc	r19, r1
    11d0:	79 f0       	breq	.+30     	; 0x11f0 <AES::get_unpadded_len(unsigned char const*, int)+0x70>
    11d2:	21 30       	cpi	r18, 0x01	; 1
    11d4:	31 05       	cpc	r19, r1
    11d6:	91 f5       	brne	.+100    	; 0x123c <AES::get_unpadded_len(unsigned char const*, int)+0xbc>
l:\Projects\arduino\libraries\AESLib\src/AES.cpp:569
    for ( i = p_size-1; ((i >=0) && (msg[i] == pad_char)); i--){
    }
    return i+1;
    break;
  case paddingMode::Bit:
    for ( i = p_size-1; ((i >=0) && (msg[i] == pad_char)); i--){
    11d8:	ca 01       	movw	r24, r20
    11da:	01 97       	sbiw	r24, 0x01	; 1
    11dc:	99 23       	and	r25, r25
    11de:	7c f1       	brlt	.+94     	; 0x123e <AES::get_unpadded_len(unsigned char const*, int)+0xbe>
    11e0:	fb 01       	movw	r30, r22
    11e2:	e8 0f       	add	r30, r24
    11e4:	f9 1f       	adc	r31, r25
    11e6:	20 81       	ld	r18, Z
    11e8:	21 11       	cpse	r18, r1
    11ea:	29 c0       	rjmp	.+82     	; 0x123e <AES::get_unpadded_len(unsigned char const*, int)+0xbe>
    11ec:	01 97       	sbiw	r24, 0x01	; 1
    11ee:	f6 cf       	rjmp	.-20     	; 0x11dc <AES::get_unpadded_len(unsigned char const*, int)+0x5c>
l:\Projects\arduino\libraries\AESLib\src/AES.cpp:550

  switch (padmode)
  {
  case paddingMode::CMS:
  case paddingMode::ZeroLength: //last byte contains pad length
    return p_size - (int) msg[p_size-1];
    11f0:	64 0f       	add	r22, r20
    11f2:	75 1f       	adc	r23, r21
    11f4:	fb 01       	movw	r30, r22
    11f6:	31 97       	sbiw	r30, 0x01	; 1
    11f8:	80 81       	ld	r24, Z
    11fa:	9a 01       	movw	r18, r20
    11fc:	28 1b       	sub	r18, r24
    11fe:	31 09       	sbc	r19, r1
    1200:	c9 01       	movw	r24, r18
    1202:	08 95       	ret
l:\Projects\arduino\libraries\AESLib\src/AES.cpp:558
    return p_size;
    break;
  case paddingMode::Array:
    for( i = 15; i > 0 && msg[p_size-1] !=arr_pad[i]; i--)
    pad_char = arr_pad[i];
    for ( i = p_size-1; ((i >=0) && (msg[i] == pad_char)); i--){
    1204:	ca 01       	movw	r24, r20
    1206:	01 97       	sbiw	r24, 0x01	; 1
    1208:	99 23       	and	r25, r25
    120a:	44 f0       	brlt	.+16     	; 0x121c <AES::get_unpadded_len(unsigned char const*, int)+0x9c>
    120c:	fb 01       	movw	r30, r22
    120e:	e8 0f       	add	r30, r24
    1210:	f9 1f       	adc	r31, r25
    1212:	20 81       	ld	r18, Z
    1214:	2b 13       	cpse	r18, r27
    1216:	02 c0       	rjmp	.+4      	; 0x121c <AES::get_unpadded_len(unsigned char const*, int)+0x9c>
    1218:	01 97       	sbiw	r24, 0x01	; 1
    121a:	f6 cf       	rjmp	.-20     	; 0x1208 <AES::get_unpadded_len(unsigned char const*, int)+0x88>
l:\Projects\arduino\libraries\AESLib\src/AES.cpp:560
    }
    return i+1;
    121c:	01 96       	adiw	r24, 0x01	; 1
    121e:	08 95       	ret
l:\Projects\arduino\libraries\AESLib\src/AES.cpp:564
    break;
  case paddingMode::Space:
    pad_char = 0x20;
    for ( i = p_size-1; ((i >=0) && (msg[i] == pad_char)); i--){
    1220:	ca 01       	movw	r24, r20
    1222:	01 97       	sbiw	r24, 0x01	; 1
    1224:	99 23       	and	r25, r25
    1226:	44 f0       	brlt	.+16     	; 0x1238 <AES::get_unpadded_len(unsigned char const*, int)+0xb8>
    1228:	fb 01       	movw	r30, r22
    122a:	e8 0f       	add	r30, r24
    122c:	f9 1f       	adc	r31, r25
    122e:	20 81       	ld	r18, Z
    1230:	20 32       	cpi	r18, 0x20	; 32
    1232:	11 f4       	brne	.+4      	; 0x1238 <AES::get_unpadded_len(unsigned char const*, int)+0xb8>
    1234:	01 97       	sbiw	r24, 0x01	; 1
    1236:	f6 cf       	rjmp	.-20     	; 0x1224 <AES::get_unpadded_len(unsigned char const*, int)+0xa4>
l:\Projects\arduino\libraries\AESLib\src/AES.cpp:566
    }
    return i+1;
    1238:	01 96       	adiw	r24, 0x01	; 1
    123a:	08 95       	ret
l:\Projects\arduino\libraries\AESLib\src/AES.cpp:553
  case paddingMode::CMS:
  case paddingMode::ZeroLength: //last byte contains pad length
    return p_size - (int) msg[p_size-1];
    break;
  case paddingMode::Random:
    return p_size;
    123c:	ca 01       	movw	r24, r20
l:\Projects\arduino\libraries\AESLib\src/AES.cpp:577
    break;
  default:
    return p_size;
    break;
 }
}
    123e:	08 95       	ret

00001240 <AES::set_size(int)>:
_ZN3AES8set_sizeEi():
l:\Projects\arduino\libraries\AESLib\src/AES.cpp:438
}

/******************************************************************************/

void AES::set_size(int sizel){
  size = sizel;
    1240:	8b 50       	subi	r24, 0x0B	; 11
    1242:	9f 4f       	sbci	r25, 0xFF	; 255
    1244:	fc 01       	movw	r30, r24
    1246:	71 83       	std	Z+1, r23	; 0x01
    1248:	60 83       	st	Z, r22
l:\Projects\arduino\libraries\AESLib\src/AES.cpp:439
}
    124a:	08 95       	ret

0000124c <AES::copy_n_bytes(unsigned char*, unsigned char const*, unsigned char)>:
_ZN3AES12copy_n_bytesEPhPKhh():
l:\Projects\arduino\libraries\AESLib\src/AES.cpp:327
}

/******************************************************************************/

void AES::copy_n_bytes (byte * d, const byte * s, byte nn)
{
    124c:	db 01       	movw	r26, r22
    124e:	fa 01       	movw	r30, r20
l:\Projects\arduino\libraries\AESLib\src/AES.cpp:328
  while (nn >= 4)
    1250:	24 30       	cpi	r18, 0x04	; 4
    1252:	90 f0       	brcs	.+36     	; 0x1278 <AES::copy_n_bytes(unsigned char*, unsigned char const*, unsigned char)+0x2c>
l:\Projects\arduino\libraries\AESLib\src/AES.cpp:330
    {
      *d++ = *s++ ;  // some unrolling
    1254:	80 81       	ld	r24, Z
    1256:	8c 93       	st	X, r24
l:\Projects\arduino\libraries\AESLib\src/AES.cpp:331
      *d++ = *s++ ;
    1258:	81 81       	ldd	r24, Z+1	; 0x01
    125a:	11 96       	adiw	r26, 0x01	; 1
    125c:	8c 93       	st	X, r24
    125e:	11 97       	sbiw	r26, 0x01	; 1
l:\Projects\arduino\libraries\AESLib\src/AES.cpp:332
      *d++ = *s++ ;
    1260:	82 81       	ldd	r24, Z+2	; 0x02
    1262:	12 96       	adiw	r26, 0x02	; 2
    1264:	8c 93       	st	X, r24
    1266:	12 97       	sbiw	r26, 0x02	; 2
l:\Projects\arduino\libraries\AESLib\src/AES.cpp:333
      *d++ = *s++ ;
    1268:	83 81       	ldd	r24, Z+3	; 0x03
    126a:	13 96       	adiw	r26, 0x03	; 3
    126c:	8c 93       	st	X, r24
    126e:	13 97       	sbiw	r26, 0x03	; 3
l:\Projects\arduino\libraries\AESLib\src/AES.cpp:334
      nn -= 4 ;
    1270:	24 50       	subi	r18, 0x04	; 4
l:\Projects\arduino\libraries\AESLib\src/AES.cpp:333
  while (nn >= 4)
    {
      *d++ = *s++ ;  // some unrolling
      *d++ = *s++ ;
      *d++ = *s++ ;
      *d++ = *s++ ;
    1272:	34 96       	adiw	r30, 0x04	; 4
    1274:	14 96       	adiw	r26, 0x04	; 4
    1276:	ec cf       	rjmp	.-40     	; 0x1250 <AES::copy_n_bytes(unsigned char*, unsigned char const*, unsigned char)+0x4>
l:\Projects\arduino\libraries\AESLib\src/AES.cpp:336
      nn -= 4 ;
    }
  while (nn--)
    1278:	8f ef       	ldi	r24, 0xFF	; 255
    127a:	82 0f       	add	r24, r18
    127c:	22 23       	and	r18, r18
    127e:	31 f0       	breq	.+12     	; 0x128c <AES::copy_n_bytes(unsigned char*, unsigned char const*, unsigned char)+0x40>
l:\Projects\arduino\libraries\AESLib\src/AES.cpp:337
    *d++ = *s++ ;
    1280:	90 81       	ld	r25, Z
    1282:	9c 93       	st	X, r25
l:\Projects\arduino\libraries\AESLib\src/AES.cpp:336
      *d++ = *s++ ;
      *d++ = *s++ ;
      *d++ = *s++ ;
      nn -= 4 ;
    }
  while (nn--)
    1284:	28 2f       	mov	r18, r24
l:\Projects\arduino\libraries\AESLib\src/AES.cpp:337
    *d++ = *s++ ;
    1286:	31 96       	adiw	r30, 0x01	; 1
    1288:	11 96       	adiw	r26, 0x01	; 1
    128a:	f6 cf       	rjmp	.-20     	; 0x1278 <AES::copy_n_bytes(unsigned char*, unsigned char const*, unsigned char)+0x2c>
l:\Projects\arduino\libraries\AESLib\src/AES.cpp:338
}
    128c:	08 95       	ret

0000128e <AES::AES()>:
_ZN3AESC2Ev():
l:\Projects\arduino\libraries\AESLib\src/AES.cpp:240
/******************************************************************************/

AES::AES(){
  // make sure that the padding characters are outside the range of the base64 alphabet
  // for none base64 encode message collisions can happen :-(
  arr_pad[0] = 0x82;
    128e:	fc 01       	movw	r30, r24
    1290:	e9 50       	subi	r30, 0x09	; 9
    1292:	ff 4f       	sbci	r31, 0xFF	; 255
    1294:	22 e8       	ldi	r18, 0x82	; 130
    1296:	20 83       	st	Z, r18
l:\Projects\arduino\libraries\AESLib\src/AES.cpp:241
  arr_pad[1] = 0x84;
    1298:	31 96       	adiw	r30, 0x01	; 1
    129a:	24 e8       	ldi	r18, 0x84	; 132
    129c:	20 83       	st	Z, r18
l:\Projects\arduino\libraries\AESLib\src/AES.cpp:242
  arr_pad[2] = 0x88;
    129e:	31 96       	adiw	r30, 0x01	; 1
    12a0:	28 e8       	ldi	r18, 0x88	; 136
    12a2:	20 83       	st	Z, r18
l:\Projects\arduino\libraries\AESLib\src/AES.cpp:243
  arr_pad[3] = 0x9f;
    12a4:	31 96       	adiw	r30, 0x01	; 1
    12a6:	2f e9       	ldi	r18, 0x9F	; 159
    12a8:	20 83       	st	Z, r18
l:\Projects\arduino\libraries\AESLib\src/AES.cpp:244
  arr_pad[4] = 0x92;
    12aa:	31 96       	adiw	r30, 0x01	; 1
    12ac:	32 e9       	ldi	r19, 0x92	; 146
    12ae:	30 83       	st	Z, r19
l:\Projects\arduino\libraries\AESLib\src/AES.cpp:245
  arr_pad[5] = 0x94;
    12b0:	31 96       	adiw	r30, 0x01	; 1
    12b2:	34 e9       	ldi	r19, 0x94	; 148
    12b4:	30 83       	st	Z, r19
l:\Projects\arduino\libraries\AESLib\src/AES.cpp:246
  arr_pad[6] = 0x98;
    12b6:	31 96       	adiw	r30, 0x01	; 1
    12b8:	38 e9       	ldi	r19, 0x98	; 152
    12ba:	30 83       	st	Z, r19
l:\Projects\arduino\libraries\AESLib\src/AES.cpp:247
  arr_pad[7] = 0x9f;
    12bc:	31 96       	adiw	r30, 0x01	; 1
    12be:	20 83       	st	Z, r18
l:\Projects\arduino\libraries\AESLib\src/AES.cpp:248
  arr_pad[8] = 0xa2;
    12c0:	31 96       	adiw	r30, 0x01	; 1
    12c2:	22 ea       	ldi	r18, 0xA2	; 162
    12c4:	20 83       	st	Z, r18
l:\Projects\arduino\libraries\AESLib\src/AES.cpp:249
  arr_pad[9] = 0xa4;
    12c6:	31 96       	adiw	r30, 0x01	; 1
    12c8:	24 ea       	ldi	r18, 0xA4	; 164
    12ca:	20 83       	st	Z, r18
l:\Projects\arduino\libraries\AESLib\src/AES.cpp:250
  arr_pad[10] = 0xa8;
    12cc:	31 96       	adiw	r30, 0x01	; 1
    12ce:	28 ea       	ldi	r18, 0xA8	; 168
    12d0:	20 83       	st	Z, r18
l:\Projects\arduino\libraries\AESLib\src/AES.cpp:251
  arr_pad[11] = 0xaf;
    12d2:	31 96       	adiw	r30, 0x01	; 1
    12d4:	2f ea       	ldi	r18, 0xAF	; 175
    12d6:	20 83       	st	Z, r18
l:\Projects\arduino\libraries\AESLib\src/AES.cpp:252
  arr_pad[12] = 0xb2;
    12d8:	31 96       	adiw	r30, 0x01	; 1
    12da:	22 eb       	ldi	r18, 0xB2	; 178
    12dc:	20 83       	st	Z, r18
l:\Projects\arduino\libraries\AESLib\src/AES.cpp:253
  arr_pad[13] = 0xb4;
    12de:	31 96       	adiw	r30, 0x01	; 1
    12e0:	24 eb       	ldi	r18, 0xB4	; 180
    12e2:	20 83       	st	Z, r18
l:\Projects\arduino\libraries\AESLib\src/AES.cpp:254
  arr_pad[14] = 0xb8;
    12e4:	31 96       	adiw	r30, 0x01	; 1
    12e6:	28 eb       	ldi	r18, 0xB8	; 184
    12e8:	20 83       	st	Z, r18
l:\Projects\arduino\libraries\AESLib\src/AES.cpp:256
  // arr_pad[15] = 0xbf; // padding past end of array which has 15 elements
  padmode = paddingMode::Array; // backwards compatibility
    12ea:	26 e0       	ldi	r18, 0x06	; 6
    12ec:	30 e0       	ldi	r19, 0x00	; 0
    12ee:	fc 01       	movw	r30, r24
    12f0:	32 83       	std	Z+2, r19	; 0x02
    12f2:	21 83       	std	Z+1, r18	; 0x01
l:\Projects\arduino\libraries\AESLib\src/AES.cpp:257
}
    12f4:	08 95       	ret

000012f6 <copy_and_key(unsigned char*, unsigned char const*, unsigned char const*)>:
_ZL12copy_and_keyPhPKhS1_():
l:\Projects\arduino\libraries\AESLib\src/AES.cpp:144
      *d++ ^= *s++ ;
    }
}

static void copy_and_key (byte * d, const byte * s, const byte * k)
{
    12f6:	cf 93       	push	r28
    12f8:	df 93       	push	r29
    12fa:	ec 01       	movw	r28, r24
    12fc:	db 01       	movw	r26, r22
    12fe:	fa 01       	movw	r30, r20
l:\Projects\arduino\libraries\AESLib\src/AES.cpp:145
  for (byte i = 0 ; i < N_BLOCK ; i += 4)
    1300:	90 e0       	ldi	r25, 0x00	; 0
    1302:	90 31       	cpi	r25, 0x10	; 16
    1304:	d8 f4       	brcc	.+54     	; 0x133c <copy_and_key(unsigned char*, unsigned char const*, unsigned char const*)+0x46>
l:\Projects\arduino\libraries\AESLib\src/AES.cpp:147
    {
      *d++ = *s++ ^ *k++ ;  // some unrolling
    1306:	8c 91       	ld	r24, X
    1308:	20 81       	ld	r18, Z
    130a:	82 27       	eor	r24, r18
    130c:	88 83       	st	Y, r24
l:\Projects\arduino\libraries\AESLib\src/AES.cpp:148
      *d++ = *s++ ^ *k++ ;
    130e:	11 96       	adiw	r26, 0x01	; 1
    1310:	8c 91       	ld	r24, X
    1312:	11 97       	sbiw	r26, 0x01	; 1
    1314:	21 81       	ldd	r18, Z+1	; 0x01
    1316:	82 27       	eor	r24, r18
    1318:	89 83       	std	Y+1, r24	; 0x01
l:\Projects\arduino\libraries\AESLib\src/AES.cpp:149
      *d++ = *s++ ^ *k++ ;
    131a:	12 96       	adiw	r26, 0x02	; 2
    131c:	8c 91       	ld	r24, X
    131e:	12 97       	sbiw	r26, 0x02	; 2
    1320:	22 81       	ldd	r18, Z+2	; 0x02
    1322:	82 27       	eor	r24, r18
    1324:	8a 83       	std	Y+2, r24	; 0x02
l:\Projects\arduino\libraries\AESLib\src/AES.cpp:150
      *d++ = *s++ ^ *k++ ;
    1326:	13 96       	adiw	r26, 0x03	; 3
    1328:	8c 91       	ld	r24, X
    132a:	13 97       	sbiw	r26, 0x03	; 3
    132c:	23 81       	ldd	r18, Z+3	; 0x03
    132e:	82 27       	eor	r24, r18
    1330:	8b 83       	std	Y+3, r24	; 0x03
l:\Projects\arduino\libraries\AESLib\src/AES.cpp:145
    }
}

static void copy_and_key (byte * d, const byte * s, const byte * k)
{
  for (byte i = 0 ; i < N_BLOCK ; i += 4)
    1332:	9c 5f       	subi	r25, 0xFC	; 252
l:\Projects\arduino\libraries\AESLib\src/AES.cpp:150
    {
      *d++ = *s++ ^ *k++ ;  // some unrolling
      *d++ = *s++ ^ *k++ ;
      *d++ = *s++ ^ *k++ ;
      *d++ = *s++ ^ *k++ ;
    1334:	34 96       	adiw	r30, 0x04	; 4
    1336:	14 96       	adiw	r26, 0x04	; 4
    1338:	24 96       	adiw	r28, 0x04	; 4
    133a:	e3 cf       	rjmp	.-58     	; 0x1302 <copy_and_key(unsigned char*, unsigned char const*, unsigned char const*)+0xc>
l:\Projects\arduino\libraries\AESLib\src/AES.cpp:152
    }
}
    133c:	df 91       	pop	r29
    133e:	cf 91       	pop	r28
    1340:	08 95       	ret

00001342 <xor_block(unsigned char*, unsigned char const*)>:
_ZL9xor_blockPhPKh():
l:\Projects\arduino\libraries\AESLib\src/AES.cpp:133
#endif
}


static void xor_block (byte * d, const byte * s)
{
    1342:	fc 01       	movw	r30, r24
    1344:	db 01       	movw	r26, r22
l:\Projects\arduino\libraries\AESLib\src/AES.cpp:134
  for (byte i = 0 ; i < N_BLOCK ; i += 4)
    1346:	90 e0       	ldi	r25, 0x00	; 0
    1348:	90 31       	cpi	r25, 0x10	; 16
    134a:	d0 f4       	brcc	.+52     	; 0x1380 <xor_block(unsigned char*, unsigned char const*)+0x3e>
l:\Projects\arduino\libraries\AESLib\src/AES.cpp:136
    {
      *d++ ^= *s++ ;  // some unrolling
    134c:	80 81       	ld	r24, Z
    134e:	2c 91       	ld	r18, X
    1350:	82 27       	eor	r24, r18
    1352:	80 83       	st	Z, r24
l:\Projects\arduino\libraries\AESLib\src/AES.cpp:137
      *d++ ^= *s++ ;
    1354:	11 96       	adiw	r26, 0x01	; 1
    1356:	2c 91       	ld	r18, X
    1358:	11 97       	sbiw	r26, 0x01	; 1
    135a:	81 81       	ldd	r24, Z+1	; 0x01
    135c:	82 27       	eor	r24, r18
    135e:	81 83       	std	Z+1, r24	; 0x01
l:\Projects\arduino\libraries\AESLib\src/AES.cpp:138
      *d++ ^= *s++ ;
    1360:	12 96       	adiw	r26, 0x02	; 2
    1362:	2c 91       	ld	r18, X
    1364:	12 97       	sbiw	r26, 0x02	; 2
    1366:	82 81       	ldd	r24, Z+2	; 0x02
    1368:	82 27       	eor	r24, r18
    136a:	82 83       	std	Z+2, r24	; 0x02
l:\Projects\arduino\libraries\AESLib\src/AES.cpp:139
      *d++ ^= *s++ ;
    136c:	83 81       	ldd	r24, Z+3	; 0x03
    136e:	13 96       	adiw	r26, 0x03	; 3
    1370:	2c 91       	ld	r18, X
    1372:	13 97       	sbiw	r26, 0x03	; 3
    1374:	82 27       	eor	r24, r18
    1376:	83 83       	std	Z+3, r24	; 0x03
l:\Projects\arduino\libraries\AESLib\src/AES.cpp:134
}


static void xor_block (byte * d, const byte * s)
{
  for (byte i = 0 ; i < N_BLOCK ; i += 4)
    1378:	9c 5f       	subi	r25, 0xFC	; 252
l:\Projects\arduino\libraries\AESLib\src/AES.cpp:139
    {
      *d++ ^= *s++ ;  // some unrolling
      *d++ ^= *s++ ;
      *d++ ^= *s++ ;
      *d++ ^= *s++ ;
    137a:	14 96       	adiw	r26, 0x04	; 4
    137c:	34 96       	adiw	r30, 0x04	; 4
    137e:	e4 cf       	rjmp	.-56     	; 0x1348 <xor_block(unsigned char*, unsigned char const*)+0x6>
l:\Projects\arduino\libraries\AESLib\src/AES.cpp:141
    }
}
    1380:	08 95       	ret

00001382 <is_box(unsigned char)>:
_ZL6is_boxh():
l:\Projects\arduino\libraries\AESLib\src/AES.cpp:127
static byte is_box (byte x)
{
#if defined(__x86_64)
  return s_inv[x];
#else
  return pgm_read_byte (& s_inv [x]) ;
    1382:	e8 2f       	mov	r30, r24
    1384:	f0 e0       	ldi	r31, 0x00	; 0
    1386:	e6 55       	subi	r30, 0x56	; 86
    1388:	fb 4f       	sbci	r31, 0xFB	; 251
    138a:	84 91       	lpm	r24, Z
l:\Projects\arduino\libraries\AESLib\src/AES.cpp:129
#endif
}
    138c:	08 95       	ret

0000138e <inv_mix_sub_columns(unsigned char*, unsigned char const*)>:
_ZL19inv_mix_sub_columnsPhPKh():
l:\Projects\arduino\libraries\AESLib\src/AES.cpp:215
      dt[i+3] = a2^a1  ^  b1     ^  c1     ^  d2 ;
    }
}

static void inv_mix_sub_columns (byte dt[N_BLOCK], const byte st[N_BLOCK])
{
    138e:	2f 92       	push	r2
    1390:	3f 92       	push	r3
    1392:	4f 92       	push	r4
    1394:	5f 92       	push	r5
    1396:	6f 92       	push	r6
    1398:	7f 92       	push	r7
    139a:	8f 92       	push	r8
    139c:	9f 92       	push	r9
    139e:	af 92       	push	r10
    13a0:	bf 92       	push	r11
    13a2:	cf 92       	push	r12
    13a4:	df 92       	push	r13
    13a6:	ef 92       	push	r14
    13a8:	ff 92       	push	r15
    13aa:	0f 93       	push	r16
    13ac:	1f 93       	push	r17
    13ae:	cf 93       	push	r28
    13b0:	df 93       	push	r29
    13b2:	cd b7       	in	r28, 0x3d	; 61
    13b4:	de b7       	in	r29, 0x3e	; 62
    13b6:	28 97       	sbiw	r28, 0x08	; 8
    13b8:	0f b6       	in	r0, 0x3f	; 63
    13ba:	f8 94       	cli
    13bc:	de bf       	out	0x3e, r29	; 62
    13be:	0f be       	out	0x3f, r0	; 63
    13c0:	cd bf       	out	0x3d, r28	; 61
    13c2:	5c 01       	movw	r10, r24
    13c4:	4b 01       	movw	r8, r22
l:\Projects\arduino\libraries\AESLib\src/AES.cpp:216
  for (byte i = 0 ; i < N_BLOCK ; i += N_COL)
    13c6:	19 82       	std	Y+1, r1	; 0x01
    13c8:	bd c0       	rjmp	.+378    	; 0x1544 <inv_mix_sub_columns(unsigned char*, unsigned char const*)+0x1b6>
l:\Projects\arduino\libraries\AESLib\src/AES.cpp:222
    {
      byte a1 = st [i] ;
      byte b1 = st [i+1] ;
      byte c1 = st [i+2] ;
      byte d1 = st [i+3] ;
      byte a2 = f2(a1), b2 = f2(b1), c2 = f2(c1), d2 = f2(d1) ;
    13ca:	2e 2f       	mov	r18, r30
    13cc:	30 e0       	ldi	r19, 0x00	; 0
    13ce:	22 0f       	add	r18, r18
    13d0:	33 1f       	adc	r19, r19
    13d2:	1b e1       	ldi	r17, 0x1B	; 27
    13d4:	12 27       	eor	r17, r18
    13d6:	cb c0       	rjmp	.+406    	; 0x156e <inv_mix_sub_columns(unsigned char*, unsigned char const*)+0x1e0>
    13d8:	2f 2f       	mov	r18, r31
    13da:	30 e0       	ldi	r19, 0x00	; 0
    13dc:	22 0f       	add	r18, r18
    13de:	33 1f       	adc	r19, r19
    13e0:	9b e1       	ldi	r25, 0x1B	; 27
    13e2:	d2 2e       	mov	r13, r18
    13e4:	d9 26       	eor	r13, r25
    13e6:	c9 c0       	rjmp	.+402    	; 0x157a <inv_mix_sub_columns(unsigned char*, unsigned char const*)+0x1ec>
    13e8:	28 2f       	mov	r18, r24
    13ea:	30 e0       	ldi	r19, 0x00	; 0
    13ec:	22 0f       	add	r18, r18
    13ee:	33 1f       	adc	r19, r19
    13f0:	0b e1       	ldi	r16, 0x1B	; 27
    13f2:	52 2e       	mov	r5, r18
    13f4:	50 26       	eor	r5, r16
    13f6:	c6 c0       	rjmp	.+396    	; 0x1584 <inv_mix_sub_columns(unsigned char*, unsigned char const*)+0x1f6>
    13f8:	24 2d       	mov	r18, r4
    13fa:	30 e0       	ldi	r19, 0x00	; 0
    13fc:	22 0f       	add	r18, r18
    13fe:	33 1f       	adc	r19, r19
    1400:	9b e1       	ldi	r25, 0x1B	; 27
    1402:	72 2e       	mov	r7, r18
    1404:	79 26       	eor	r7, r25
    1406:	c3 c0       	rjmp	.+390    	; 0x158e <inv_mix_sub_columns(unsigned char*, unsigned char const*)+0x200>
l:\Projects\arduino\libraries\AESLib\src/AES.cpp:223
      byte a4 = f2(a2), b4 = f2(b2), c4 = f2(c2), d4 = f2(d2) ;
    1408:	21 2f       	mov	r18, r17
    140a:	30 e0       	ldi	r19, 0x00	; 0
    140c:	22 0f       	add	r18, r18
    140e:	33 1f       	adc	r19, r19
    1410:	0b e1       	ldi	r16, 0x1B	; 27
    1412:	02 27       	eor	r16, r18
    1414:	c1 c0       	rjmp	.+386    	; 0x1598 <inv_mix_sub_columns(unsigned char*, unsigned char const*)+0x20a>
    1416:	2d 2d       	mov	r18, r13
    1418:	30 e0       	ldi	r19, 0x00	; 0
    141a:	22 0f       	add	r18, r18
    141c:	33 1f       	adc	r19, r19
    141e:	9b e1       	ldi	r25, 0x1B	; 27
    1420:	92 27       	eor	r25, r18
    1422:	bf c0       	rjmp	.+382    	; 0x15a2 <inv_mix_sub_columns(unsigned char*, unsigned char const*)+0x214>
    1424:	25 2c       	mov	r2, r5
    1426:	31 2c       	mov	r3, r1
    1428:	22 0c       	add	r2, r2
    142a:	33 1c       	adc	r3, r3
    142c:	2b e1       	ldi	r18, 0x1B	; 27
    142e:	22 26       	eor	r2, r18
    1430:	bd c0       	rjmp	.+378    	; 0x15ac <inv_mix_sub_columns(unsigned char*, unsigned char const*)+0x21e>
    1432:	27 2d       	mov	r18, r7
    1434:	30 e0       	ldi	r19, 0x00	; 0
    1436:	22 0f       	add	r18, r18
    1438:	33 1f       	adc	r19, r19
    143a:	6b e1       	ldi	r22, 0x1B	; 27
    143c:	62 27       	eor	r22, r18
    143e:	bb c0       	rjmp	.+374    	; 0x15b6 <inv_mix_sub_columns(unsigned char*, unsigned char const*)+0x228>
l:\Projects\arduino\libraries\AESLib\src/AES.cpp:224
      byte a8 = f2(a4), b8 = f2(b4), c8 = f2(c4), d8 = f2(d4) ;
    1440:	40 2f       	mov	r20, r16
    1442:	50 e0       	ldi	r21, 0x00	; 0
    1444:	44 0f       	add	r20, r20
    1446:	55 1f       	adc	r21, r21
    1448:	7b e1       	ldi	r23, 0x1B	; 27
    144a:	74 27       	eor	r23, r20
    144c:	b9 c0       	rjmp	.+370    	; 0x15c0 <inv_mix_sub_columns(unsigned char*, unsigned char const*)+0x232>
    144e:	49 2f       	mov	r20, r25
    1450:	50 e0       	ldi	r21, 0x00	; 0
    1452:	44 0f       	add	r20, r20
    1454:	55 1f       	adc	r21, r21
    1456:	eb e1       	ldi	r30, 0x1B	; 27
    1458:	e4 27       	eor	r30, r20
    145a:	b7 c0       	rjmp	.+366    	; 0x15ca <inv_mix_sub_columns(unsigned char*, unsigned char const*)+0x23c>
    145c:	42 2d       	mov	r20, r2
    145e:	50 e0       	ldi	r21, 0x00	; 0
    1460:	44 0f       	add	r20, r20
    1462:	55 1f       	adc	r21, r21
    1464:	2b e1       	ldi	r18, 0x1B	; 27
    1466:	42 27       	eor	r20, r18
    1468:	b5 c0       	rjmp	.+362    	; 0x15d4 <inv_mix_sub_columns(unsigned char*, unsigned char const*)+0x246>
    146a:	26 2f       	mov	r18, r22
    146c:	30 e0       	ldi	r19, 0x00	; 0
    146e:	22 0f       	add	r18, r18
    1470:	33 1f       	adc	r19, r19
    1472:	3b e1       	ldi	r19, 0x1B	; 27
    1474:	23 27       	eor	r18, r19
l:\Projects\arduino\libraries\AESLib\src/AES.cpp:225
      byte a9 = a8 ^ a1,b9 = b8 ^ b1,c9 = c8 ^ c1,d9 = d8 ^ d1 ;
    1476:	3e 81       	ldd	r19, Y+6	; 0x06
    1478:	37 27       	eor	r19, r23
    147a:	3a 83       	std	Y+2, r19	; 0x02
    147c:	3f 80       	ldd	r3, Y+7	; 0x07
    147e:	3e 26       	eor	r3, r30
    1480:	f8 2f       	mov	r31, r24
    1482:	f4 27       	eor	r31, r20
    1484:	fb 83       	std	Y+3, r31	; 0x03
    1486:	34 2d       	mov	r19, r4
    1488:	32 27       	eor	r19, r18
    148a:	3c 83       	std	Y+4, r19	; 0x04
l:\Projects\arduino\libraries\AESLib\src/AES.cpp:226
      byte ac = a8 ^ a4,bc = b8 ^ b4,cc = c8 ^ c4,dc = d8 ^ d4 ;
    148c:	07 27       	eor	r16, r23
    148e:	9e 27       	eor	r25, r30
    1490:	9d 83       	std	Y+5, r25	; 0x05
    1492:	24 26       	eor	r2, r20
    1494:	66 2e       	mov	r6, r22
    1496:	62 26       	eor	r6, r18
l:\Projects\arduino\libraries\AESLib\src/AES.cpp:228

      dt[i]         = is_box (ac^a2  ^  b9^b2  ^  cc^c1  ^  d9) ;
    1498:	91 2f       	mov	r25, r17
    149a:	90 27       	eor	r25, r16
    149c:	93 25       	eor	r25, r3
    149e:	9d 25       	eor	r25, r13
    14a0:	92 25       	eor	r25, r2
    14a2:	89 27       	eor	r24, r25
    14a4:	ea 0c       	add	r14, r10
    14a6:	fb 1c       	adc	r15, r11
    14a8:	83 27       	eor	r24, r19
    14aa:	0e 94 c1 09 	call	0x1382	; 0x1382 <is_box(unsigned char)>
    14ae:	f7 01       	movw	r30, r14
    14b0:	80 83       	st	Z, r24
l:\Projects\arduino\libraries\AESLib\src/AES.cpp:229
      dt[(i+5)&15]  = is_box (a9     ^  bc^b2  ^  c9^c2  ^  dc^d1) ;
    14b2:	8a 81       	ldd	r24, Y+2	; 0x02
    14b4:	fd 81       	ldd	r31, Y+5	; 0x05
    14b6:	8f 27       	eor	r24, r31
    14b8:	8d 25       	eor	r24, r13
    14ba:	3b 81       	ldd	r19, Y+3	; 0x03
    14bc:	83 27       	eor	r24, r19
    14be:	85 25       	eor	r24, r5
    14c0:	86 25       	eor	r24, r6
    14c2:	99 81       	ldd	r25, Y+1	; 0x01
    14c4:	e9 2e       	mov	r14, r25
    14c6:	f1 2c       	mov	r15, r1
    14c8:	67 01       	movw	r12, r14
    14ca:	e5 e0       	ldi	r30, 0x05	; 5
    14cc:	ce 0e       	add	r12, r30
    14ce:	d1 1c       	adc	r13, r1
    14d0:	ff e0       	ldi	r31, 0x0F	; 15
    14d2:	cf 22       	and	r12, r31
    14d4:	dd 24       	eor	r13, r13
    14d6:	ca 0c       	add	r12, r10
    14d8:	db 1c       	adc	r13, r11
    14da:	84 25       	eor	r24, r4
    14dc:	0e 94 c1 09 	call	0x1382	; 0x1382 <is_box(unsigned char)>
    14e0:	f6 01       	movw	r30, r12
    14e2:	80 83       	st	Z, r24
l:\Projects\arduino\libraries\AESLib\src/AES.cpp:230
      dt[(i+10)&15] = is_box (ac^a1  ^  b9     ^  cc^c2  ^  d9^d2) ;
    14e4:	8e 81       	ldd	r24, Y+6	; 0x06
    14e6:	80 27       	eor	r24, r16
    14e8:	83 25       	eor	r24, r3
    14ea:	82 25       	eor	r24, r2
    14ec:	85 25       	eor	r24, r5
    14ee:	fc 81       	ldd	r31, Y+4	; 0x04
    14f0:	8f 27       	eor	r24, r31
    14f2:	67 01       	movw	r12, r14
    14f4:	3a e0       	ldi	r19, 0x0A	; 10
    14f6:	c3 0e       	add	r12, r19
    14f8:	d1 1c       	adc	r13, r1
    14fa:	9f e0       	ldi	r25, 0x0F	; 15
    14fc:	c9 22       	and	r12, r25
    14fe:	dd 24       	eor	r13, r13
    1500:	ca 0c       	add	r12, r10
    1502:	db 1c       	adc	r13, r11
    1504:	87 25       	eor	r24, r7
    1506:	0e 94 c1 09 	call	0x1382	; 0x1382 <is_box(unsigned char)>
    150a:	f6 01       	movw	r30, r12
    150c:	80 83       	st	Z, r24
l:\Projects\arduino\libraries\AESLib\src/AES.cpp:231
      dt[(i+15)&15] = is_box (a9^a2  ^  bc^b1  ^  c9     ^  dc^d2) ;
    150e:	6a 81       	ldd	r22, Y+2	; 0x02
    1510:	61 27       	eor	r22, r17
    1512:	fd 81       	ldd	r31, Y+5	; 0x05
    1514:	6f 27       	eor	r22, r31
    1516:	3f 81       	ldd	r19, Y+7	; 0x07
    1518:	63 27       	eor	r22, r19
    151a:	8b 81       	ldd	r24, Y+3	; 0x03
    151c:	68 27       	eor	r22, r24
    151e:	66 25       	eor	r22, r6
    1520:	f7 01       	movw	r30, r14
    1522:	3f 96       	adiw	r30, 0x0f	; 15
    1524:	ef 70       	andi	r30, 0x0F	; 15
    1526:	ff 27       	eor	r31, r31
    1528:	ea 0d       	add	r30, r10
    152a:	fb 1d       	adc	r31, r11
    152c:	f8 87       	std	Y+8, r31	; 0x08
    152e:	ef 83       	std	Y+7, r30	; 0x07
    1530:	86 2f       	mov	r24, r22
    1532:	87 25       	eor	r24, r7
    1534:	0e 94 c1 09 	call	0x1382	; 0x1382 <is_box(unsigned char)>
    1538:	ef 81       	ldd	r30, Y+7	; 0x07
    153a:	f8 85       	ldd	r31, Y+8	; 0x08
    153c:	80 83       	st	Z, r24
l:\Projects\arduino\libraries\AESLib\src/AES.cpp:216
    }
}

static void inv_mix_sub_columns (byte dt[N_BLOCK], const byte st[N_BLOCK])
{
  for (byte i = 0 ; i < N_BLOCK ; i += N_COL)
    153e:	f9 81       	ldd	r31, Y+1	; 0x01
    1540:	fc 5f       	subi	r31, 0xFC	; 252
    1542:	f9 83       	std	Y+1, r31	; 0x01
    1544:	39 81       	ldd	r19, Y+1	; 0x01
    1546:	30 31       	cpi	r19, 0x10	; 16
    1548:	08 f0       	brcs	.+2      	; 0x154c <inv_mix_sub_columns(unsigned char*, unsigned char const*)+0x1be>
    154a:	4a c0       	rjmp	.+148    	; 0x15e0 <inv_mix_sub_columns(unsigned char*, unsigned char const*)+0x252>
l:\Projects\arduino\libraries\AESLib\src/AES.cpp:218
    {
      byte a1 = st [i] ;
    154c:	e3 2e       	mov	r14, r19
    154e:	f1 2c       	mov	r15, r1
    1550:	f4 01       	movw	r30, r8
    1552:	ee 0d       	add	r30, r14
    1554:	ff 1d       	adc	r31, r15
    1556:	80 81       	ld	r24, Z
    1558:	8e 83       	std	Y+6, r24	; 0x06
l:\Projects\arduino\libraries\AESLib\src/AES.cpp:219
      byte b1 = st [i+1] ;
    155a:	91 81       	ldd	r25, Z+1	; 0x01
    155c:	9f 83       	std	Y+7, r25	; 0x07
l:\Projects\arduino\libraries\AESLib\src/AES.cpp:220
      byte c1 = st [i+2] ;
    155e:	82 81       	ldd	r24, Z+2	; 0x02
l:\Projects\arduino\libraries\AESLib\src/AES.cpp:221
      byte d1 = st [i+3] ;
    1560:	43 80       	ldd	r4, Z+3	; 0x03
l:\Projects\arduino\libraries\AESLib\src/AES.cpp:222
      byte a2 = f2(a1), b2 = f2(b1), c2 = f2(c1), d2 = f2(d1) ;
    1562:	ee 81       	ldd	r30, Y+6	; 0x06
    1564:	ee 23       	and	r30, r30
    1566:	0c f4       	brge	.+2      	; 0x156a <inv_mix_sub_columns(unsigned char*, unsigned char const*)+0x1dc>
    1568:	30 cf       	rjmp	.-416    	; 0x13ca <inv_mix_sub_columns(unsigned char*, unsigned char const*)+0x3c>
    156a:	1e 81       	ldd	r17, Y+6	; 0x06
    156c:	11 0f       	add	r17, r17
    156e:	ff 81       	ldd	r31, Y+7	; 0x07
    1570:	ff 23       	and	r31, r31
    1572:	0c f4       	brge	.+2      	; 0x1576 <inv_mix_sub_columns(unsigned char*, unsigned char const*)+0x1e8>
    1574:	31 cf       	rjmp	.-414    	; 0x13d8 <inv_mix_sub_columns(unsigned char*, unsigned char const*)+0x4a>
    1576:	df 80       	ldd	r13, Y+7	; 0x07
    1578:	dd 0c       	add	r13, r13
    157a:	88 23       	and	r24, r24
    157c:	0c f4       	brge	.+2      	; 0x1580 <inv_mix_sub_columns(unsigned char*, unsigned char const*)+0x1f2>
    157e:	34 cf       	rjmp	.-408    	; 0x13e8 <inv_mix_sub_columns(unsigned char*, unsigned char const*)+0x5a>
    1580:	58 2e       	mov	r5, r24
    1582:	55 0c       	add	r5, r5
    1584:	44 20       	and	r4, r4
    1586:	0c f4       	brge	.+2      	; 0x158a <inv_mix_sub_columns(unsigned char*, unsigned char const*)+0x1fc>
    1588:	37 cf       	rjmp	.-402    	; 0x13f8 <inv_mix_sub_columns(unsigned char*, unsigned char const*)+0x6a>
    158a:	74 2c       	mov	r7, r4
    158c:	77 0c       	add	r7, r7
l:\Projects\arduino\libraries\AESLib\src/AES.cpp:223
      byte a4 = f2(a2), b4 = f2(b2), c4 = f2(c2), d4 = f2(d2) ;
    158e:	11 23       	and	r17, r17
    1590:	0c f4       	brge	.+2      	; 0x1594 <inv_mix_sub_columns(unsigned char*, unsigned char const*)+0x206>
    1592:	3a cf       	rjmp	.-396    	; 0x1408 <inv_mix_sub_columns(unsigned char*, unsigned char const*)+0x7a>
    1594:	01 2f       	mov	r16, r17
    1596:	00 0f       	add	r16, r16
    1598:	dd 20       	and	r13, r13
    159a:	0c f4       	brge	.+2      	; 0x159e <inv_mix_sub_columns(unsigned char*, unsigned char const*)+0x210>
    159c:	3c cf       	rjmp	.-392    	; 0x1416 <inv_mix_sub_columns(unsigned char*, unsigned char const*)+0x88>
    159e:	9d 2d       	mov	r25, r13
    15a0:	99 0f       	add	r25, r25
    15a2:	55 20       	and	r5, r5
    15a4:	0c f4       	brge	.+2      	; 0x15a8 <inv_mix_sub_columns(unsigned char*, unsigned char const*)+0x21a>
    15a6:	3e cf       	rjmp	.-388    	; 0x1424 <inv_mix_sub_columns(unsigned char*, unsigned char const*)+0x96>
    15a8:	25 2c       	mov	r2, r5
    15aa:	22 0c       	add	r2, r2
    15ac:	77 20       	and	r7, r7
    15ae:	0c f4       	brge	.+2      	; 0x15b2 <inv_mix_sub_columns(unsigned char*, unsigned char const*)+0x224>
    15b0:	40 cf       	rjmp	.-384    	; 0x1432 <inv_mix_sub_columns(unsigned char*, unsigned char const*)+0xa4>
    15b2:	67 2d       	mov	r22, r7
    15b4:	66 0f       	add	r22, r22
l:\Projects\arduino\libraries\AESLib\src/AES.cpp:224
      byte a8 = f2(a4), b8 = f2(b4), c8 = f2(c4), d8 = f2(d4) ;
    15b6:	00 23       	and	r16, r16
    15b8:	0c f4       	brge	.+2      	; 0x15bc <inv_mix_sub_columns(unsigned char*, unsigned char const*)+0x22e>
    15ba:	42 cf       	rjmp	.-380    	; 0x1440 <inv_mix_sub_columns(unsigned char*, unsigned char const*)+0xb2>
    15bc:	70 2f       	mov	r23, r16
    15be:	77 0f       	add	r23, r23
    15c0:	99 23       	and	r25, r25
    15c2:	0c f4       	brge	.+2      	; 0x15c6 <inv_mix_sub_columns(unsigned char*, unsigned char const*)+0x238>
    15c4:	44 cf       	rjmp	.-376    	; 0x144e <inv_mix_sub_columns(unsigned char*, unsigned char const*)+0xc0>
    15c6:	e9 2f       	mov	r30, r25
    15c8:	ee 0f       	add	r30, r30
    15ca:	22 20       	and	r2, r2
    15cc:	0c f4       	brge	.+2      	; 0x15d0 <inv_mix_sub_columns(unsigned char*, unsigned char const*)+0x242>
    15ce:	46 cf       	rjmp	.-372    	; 0x145c <inv_mix_sub_columns(unsigned char*, unsigned char const*)+0xce>
    15d0:	42 2d       	mov	r20, r2
    15d2:	44 0f       	add	r20, r20
    15d4:	66 23       	and	r22, r22
    15d6:	0c f4       	brge	.+2      	; 0x15da <inv_mix_sub_columns(unsigned char*, unsigned char const*)+0x24c>
    15d8:	48 cf       	rjmp	.-368    	; 0x146a <inv_mix_sub_columns(unsigned char*, unsigned char const*)+0xdc>
    15da:	26 2f       	mov	r18, r22
    15dc:	22 0f       	add	r18, r18
    15de:	4b cf       	rjmp	.-362    	; 0x1476 <inv_mix_sub_columns(unsigned char*, unsigned char const*)+0xe8>
l:\Projects\arduino\libraries\AESLib\src/AES.cpp:233
      dt[i]         = is_box (ac^a2  ^  b9^b2  ^  cc^c1  ^  d9) ;
      dt[(i+5)&15]  = is_box (a9     ^  bc^b2  ^  c9^c2  ^  dc^d1) ;
      dt[(i+10)&15] = is_box (ac^a1  ^  b9     ^  cc^c2  ^  d9^d2) ;
      dt[(i+15)&15] = is_box (a9^a2  ^  bc^b1  ^  c9     ^  dc^d2) ;
    }
}
    15e0:	28 96       	adiw	r28, 0x08	; 8
    15e2:	0f b6       	in	r0, 0x3f	; 63
    15e4:	f8 94       	cli
    15e6:	de bf       	out	0x3e, r29	; 62
    15e8:	0f be       	out	0x3f, r0	; 63
    15ea:	cd bf       	out	0x3d, r28	; 61
    15ec:	df 91       	pop	r29
    15ee:	cf 91       	pop	r28
    15f0:	1f 91       	pop	r17
    15f2:	0f 91       	pop	r16
    15f4:	ff 90       	pop	r15
    15f6:	ef 90       	pop	r14
    15f8:	df 90       	pop	r13
    15fa:	cf 90       	pop	r12
    15fc:	bf 90       	pop	r11
    15fe:	af 90       	pop	r10
    1600:	9f 90       	pop	r9
    1602:	8f 90       	pop	r8
    1604:	7f 90       	pop	r7
    1606:	6f 90       	pop	r6
    1608:	5f 90       	pop	r5
    160a:	4f 90       	pop	r4
    160c:	3f 90       	pop	r3
    160e:	2f 90       	pop	r2
    1610:	08 95       	ret

00001612 <inv_shift_sub_rows(unsigned char*)>:
_ZL18inv_shift_sub_rowsPh():
l:\Projects\arduino\libraries\AESLib\src/AES.cpp:176
  st [15] = s_box (st [11]) ; st [11] = s_box (st [7]) ;
  st [7]  = s_box (st [3]) ;  st [3]  = s_box (tt) ;
}

static void inv_shift_sub_rows (byte st[N_BLOCK])
{
    1612:	1f 93       	push	r17
    1614:	cf 93       	push	r28
    1616:	df 93       	push	r29
    1618:	ec 01       	movw	r28, r24
l:\Projects\arduino\libraries\AESLib\src/AES.cpp:177
  st [0] = is_box (st[0]) ; st [4] = is_box (st [4]);
    161a:	88 81       	ld	r24, Y
    161c:	0e 94 c1 09 	call	0x1382	; 0x1382 <is_box(unsigned char)>
    1620:	88 83       	st	Y, r24
    1622:	8c 81       	ldd	r24, Y+4	; 0x04
    1624:	0e 94 c1 09 	call	0x1382	; 0x1382 <is_box(unsigned char)>
    1628:	8c 83       	std	Y+4, r24	; 0x04
l:\Projects\arduino\libraries\AESLib\src/AES.cpp:178
  st [8] = is_box (st[8]) ; st [12] = is_box (st [12]);
    162a:	88 85       	ldd	r24, Y+8	; 0x08
    162c:	0e 94 c1 09 	call	0x1382	; 0x1382 <is_box(unsigned char)>
    1630:	88 87       	std	Y+8, r24	; 0x08
    1632:	8c 85       	ldd	r24, Y+12	; 0x0c
    1634:	0e 94 c1 09 	call	0x1382	; 0x1382 <is_box(unsigned char)>
    1638:	8c 87       	std	Y+12, r24	; 0x0c
l:\Projects\arduino\libraries\AESLib\src/AES.cpp:180

  byte tt = st[13] ;
    163a:	1d 85       	ldd	r17, Y+13	; 0x0d
l:\Projects\arduino\libraries\AESLib\src/AES.cpp:181
  st [13] = is_box (st [9]) ; st [9] = is_box (st [5]) ;
    163c:	89 85       	ldd	r24, Y+9	; 0x09
    163e:	0e 94 c1 09 	call	0x1382	; 0x1382 <is_box(unsigned char)>
    1642:	8d 87       	std	Y+13, r24	; 0x0d
    1644:	8d 81       	ldd	r24, Y+5	; 0x05
    1646:	0e 94 c1 09 	call	0x1382	; 0x1382 <is_box(unsigned char)>
    164a:	89 87       	std	Y+9, r24	; 0x09
l:\Projects\arduino\libraries\AESLib\src/AES.cpp:182
  st [5]  = is_box (st [1]) ; st [1] = is_box (tt) ;
    164c:	89 81       	ldd	r24, Y+1	; 0x01
    164e:	0e 94 c1 09 	call	0x1382	; 0x1382 <is_box(unsigned char)>
    1652:	8d 83       	std	Y+5, r24	; 0x05
    1654:	81 2f       	mov	r24, r17
    1656:	0e 94 c1 09 	call	0x1382	; 0x1382 <is_box(unsigned char)>
    165a:	89 83       	std	Y+1, r24	; 0x01
l:\Projects\arduino\libraries\AESLib\src/AES.cpp:184

  tt = st [2] ; st [2] = is_box (st [10]) ; st [10] = is_box (tt) ;
    165c:	1a 81       	ldd	r17, Y+2	; 0x02
    165e:	8a 85       	ldd	r24, Y+10	; 0x0a
    1660:	0e 94 c1 09 	call	0x1382	; 0x1382 <is_box(unsigned char)>
    1664:	8a 83       	std	Y+2, r24	; 0x02
    1666:	81 2f       	mov	r24, r17
    1668:	0e 94 c1 09 	call	0x1382	; 0x1382 <is_box(unsigned char)>
    166c:	8a 87       	std	Y+10, r24	; 0x0a
l:\Projects\arduino\libraries\AESLib\src/AES.cpp:185
  tt = st [6] ; st [6] = is_box (st [14]) ; st [14] = is_box (tt) ;
    166e:	1e 81       	ldd	r17, Y+6	; 0x06
    1670:	8e 85       	ldd	r24, Y+14	; 0x0e
    1672:	0e 94 c1 09 	call	0x1382	; 0x1382 <is_box(unsigned char)>
    1676:	8e 83       	std	Y+6, r24	; 0x06
    1678:	81 2f       	mov	r24, r17
    167a:	0e 94 c1 09 	call	0x1382	; 0x1382 <is_box(unsigned char)>
    167e:	8e 87       	std	Y+14, r24	; 0x0e
l:\Projects\arduino\libraries\AESLib\src/AES.cpp:187

  tt = st [3] ;
    1680:	1b 81       	ldd	r17, Y+3	; 0x03
l:\Projects\arduino\libraries\AESLib\src/AES.cpp:188
  st [3]  = is_box (st [7])  ; st [7]  = is_box (st [11]) ;
    1682:	8f 81       	ldd	r24, Y+7	; 0x07
    1684:	0e 94 c1 09 	call	0x1382	; 0x1382 <is_box(unsigned char)>
    1688:	8b 83       	std	Y+3, r24	; 0x03
    168a:	8b 85       	ldd	r24, Y+11	; 0x0b
    168c:	0e 94 c1 09 	call	0x1382	; 0x1382 <is_box(unsigned char)>
    1690:	8f 83       	std	Y+7, r24	; 0x07
l:\Projects\arduino\libraries\AESLib\src/AES.cpp:189
  st [11] = is_box (st [15]) ; st [15] = is_box (tt) ;
    1692:	8f 85       	ldd	r24, Y+15	; 0x0f
    1694:	0e 94 c1 09 	call	0x1382	; 0x1382 <is_box(unsigned char)>
    1698:	8b 87       	std	Y+11, r24	; 0x0b
    169a:	81 2f       	mov	r24, r17
    169c:	0e 94 c1 09 	call	0x1382	; 0x1382 <is_box(unsigned char)>
    16a0:	8f 87       	std	Y+15, r24	; 0x0f
l:\Projects\arduino\libraries\AESLib\src/AES.cpp:190
}
    16a2:	df 91       	pop	r29
    16a4:	cf 91       	pop	r28
    16a6:	1f 91       	pop	r17
    16a8:	08 95       	ret

000016aa <AES::decrypt(unsigned char const*, unsigned char*)>:
_ZN3AES7decryptEPKhPh():
l:\Projects\arduino\libraries\AESLib\src/AES.cpp:390
}

/******************************************************************************/

byte AES::decrypt (const byte plain [N_BLOCK], byte cipher [N_BLOCK])
{
    16aa:	cf 92       	push	r12
    16ac:	df 92       	push	r13
    16ae:	ef 92       	push	r14
    16b0:	ff 92       	push	r15
    16b2:	0f 93       	push	r16
    16b4:	1f 93       	push	r17
    16b6:	cf 93       	push	r28
    16b8:	df 93       	push	r29
    16ba:	cd b7       	in	r28, 0x3d	; 61
    16bc:	de b7       	in	r29, 0x3e	; 62
    16be:	a0 97       	sbiw	r28, 0x20	; 32
    16c0:	0f b6       	in	r0, 0x3f	; 63
    16c2:	f8 94       	cli
    16c4:	de bf       	out	0x3e, r29	; 62
    16c6:	0f be       	out	0x3f, r0	; 63
    16c8:	cd bf       	out	0x3d, r28	; 61
    16ca:	fc 01       	movw	r30, r24
l:\Projects\arduino\libraries\AESLib\src/AES.cpp:391
  if (round)
    16cc:	90 81       	ld	r25, Z
    16ce:	99 23       	and	r25, r25
    16d0:	09 f4       	brne	.+2      	; 0x16d4 <AES::decrypt(unsigned char const*, unsigned char*)+0x2a>
    16d2:	44 c0       	rjmp	.+136    	; 0x175c <AES::decrypt(unsigned char const*, unsigned char*)+0xb2>
    16d4:	6a 01       	movw	r12, r20
    16d6:	8f 01       	movw	r16, r30
l:\Projects\arduino\libraries\AESLib\src/AES.cpp:394
    {
      byte s1 [N_BLOCK] ;
      copy_and_key (s1, plain, (byte*) (key_sched + round * N_BLOCK)) ;
    16d8:	7f 01       	movw	r14, r30
    16da:	83 e0       	ldi	r24, 0x03	; 3
    16dc:	e8 0e       	add	r14, r24
    16de:	f1 1c       	adc	r15, r1
    16e0:	e0 e1       	ldi	r30, 0x10	; 16
    16e2:	9e 9f       	mul	r25, r30
    16e4:	a0 01       	movw	r20, r0
    16e6:	11 24       	eor	r1, r1
    16e8:	4e 0d       	add	r20, r14
    16ea:	5f 1d       	adc	r21, r15
    16ec:	ce 01       	movw	r24, r28
    16ee:	41 96       	adiw	r24, 0x11	; 17
    16f0:	0e 94 7b 09 	call	0x12f6	; 0x12f6 <copy_and_key(unsigned char*, unsigned char const*, unsigned char const*)>
l:\Projects\arduino\libraries\AESLib\src/AES.cpp:395
      inv_shift_sub_rows (s1) ;
    16f4:	ce 01       	movw	r24, r28
    16f6:	41 96       	adiw	r24, 0x11	; 17
    16f8:	0e 94 09 0b 	call	0x1612	; 0x1612 <inv_shift_sub_rows(unsigned char*)>
l:\Projects\arduino\libraries\AESLib\src/AES.cpp:397

      for (byte r = round ; --r ; )
    16fc:	f8 01       	movw	r30, r16
    16fe:	10 81       	ld	r17, Z
    1700:	11 50       	subi	r17, 0x01	; 1
    1702:	a9 f0       	breq	.+42     	; 0x172e <AES::decrypt(unsigned char const*, unsigned char*)+0x84>
l:\Projects\arduino\libraries\AESLib\src/AES.cpp:400
       {
         byte s2 [N_BLOCK] ;
         copy_and_key (s2, s1, (byte*) (key_sched + r * N_BLOCK)) ;
    1704:	f0 e1       	ldi	r31, 0x10	; 16
    1706:	1f 9f       	mul	r17, r31
    1708:	a0 01       	movw	r20, r0
    170a:	11 24       	eor	r1, r1
    170c:	4e 0d       	add	r20, r14
    170e:	5f 1d       	adc	r21, r15
    1710:	be 01       	movw	r22, r28
    1712:	6f 5e       	subi	r22, 0xEF	; 239
    1714:	7f 4f       	sbci	r23, 0xFF	; 255
    1716:	ce 01       	movw	r24, r28
    1718:	01 96       	adiw	r24, 0x01	; 1
    171a:	0e 94 7b 09 	call	0x12f6	; 0x12f6 <copy_and_key(unsigned char*, unsigned char const*, unsigned char const*)>
l:\Projects\arduino\libraries\AESLib\src/AES.cpp:401
         inv_mix_sub_columns (s1, s2) ;
    171e:	be 01       	movw	r22, r28
    1720:	6f 5f       	subi	r22, 0xFF	; 255
    1722:	7f 4f       	sbci	r23, 0xFF	; 255
    1724:	ce 01       	movw	r24, r28
    1726:	41 96       	adiw	r24, 0x11	; 17
    1728:	0e 94 c7 09 	call	0x138e	; 0x138e <inv_mix_sub_columns(unsigned char*, unsigned char const*)>
    172c:	e9 cf       	rjmp	.-46     	; 0x1700 <AES::decrypt(unsigned char const*, unsigned char*)+0x56>
l:\Projects\arduino\libraries\AESLib\src/AES.cpp:403
       }
      copy_and_key (cipher, s1, (byte*) (key_sched)) ;
    172e:	a7 01       	movw	r20, r14
    1730:	be 01       	movw	r22, r28
    1732:	6f 5e       	subi	r22, 0xEF	; 239
    1734:	7f 4f       	sbci	r23, 0xFF	; 255
    1736:	c6 01       	movw	r24, r12
    1738:	0e 94 7b 09 	call	0x12f6	; 0x12f6 <copy_and_key(unsigned char*, unsigned char const*, unsigned char const*)>
l:\Projects\arduino\libraries\AESLib\src/AES.cpp:408
    }
  else
    return FAILURE ;
  return SUCCESS ;
}
    173c:	81 2f       	mov	r24, r17
    173e:	a0 96       	adiw	r28, 0x20	; 32
    1740:	0f b6       	in	r0, 0x3f	; 63
    1742:	f8 94       	cli
    1744:	de bf       	out	0x3e, r29	; 62
    1746:	0f be       	out	0x3f, r0	; 63
    1748:	cd bf       	out	0x3d, r28	; 61
    174a:	df 91       	pop	r29
    174c:	cf 91       	pop	r28
    174e:	1f 91       	pop	r17
    1750:	0f 91       	pop	r16
    1752:	ff 90       	pop	r15
    1754:	ef 90       	pop	r14
    1756:	df 90       	pop	r13
    1758:	cf 90       	pop	r12
    175a:	08 95       	ret
l:\Projects\arduino\libraries\AESLib\src/AES.cpp:406
         inv_mix_sub_columns (s1, s2) ;
       }
      copy_and_key (cipher, s1, (byte*) (key_sched)) ;
    }
  else
    return FAILURE ;
    175c:	1f ef       	ldi	r17, 0xFF	; 255
    175e:	ee cf       	rjmp	.-36     	; 0x173c <AES::decrypt(unsigned char const*, unsigned char*)+0x92>

00001760 <AES::cbc_decrypt(unsigned char const*, unsigned char*, int, unsigned char*)>:
_ZN3AES11cbc_decryptEPKhPhiS2_():
l:\Projects\arduino\libraries\AESLib\src/AES.cpp:413
}

/******************************************************************************/

byte AES::cbc_decrypt (const byte * cipher, byte * plain, int n_block, byte iv [N_BLOCK])
{
    1760:	8f 92       	push	r8
    1762:	9f 92       	push	r9
    1764:	af 92       	push	r10
    1766:	bf 92       	push	r11
    1768:	cf 92       	push	r12
    176a:	df 92       	push	r13
    176c:	ef 92       	push	r14
    176e:	ff 92       	push	r15
    1770:	0f 93       	push	r16
    1772:	1f 93       	push	r17
    1774:	cf 93       	push	r28
    1776:	df 93       	push	r29
    1778:	cd b7       	in	r28, 0x3d	; 61
    177a:	de b7       	in	r29, 0x3e	; 62
    177c:	60 97       	sbiw	r28, 0x10	; 16
    177e:	0f b6       	in	r0, 0x3f	; 63
    1780:	f8 94       	cli
    1782:	de bf       	out	0x3e, r29	; 62
    1784:	0f be       	out	0x3f, r0	; 63
    1786:	cd bf       	out	0x3d, r28	; 61
    1788:	5c 01       	movw	r10, r24
    178a:	7b 01       	movw	r14, r22
    178c:	6a 01       	movw	r12, r20
l:\Projects\arduino\libraries\AESLib\src/AES.cpp:414
  while (n_block--)
    178e:	49 01       	movw	r8, r18
    1790:	81 e0       	ldi	r24, 0x01	; 1
    1792:	88 1a       	sub	r8, r24
    1794:	91 08       	sbc	r9, r1
    1796:	23 2b       	or	r18, r19
    1798:	29 f1       	breq	.+74     	; 0x17e4 <AES::cbc_decrypt(unsigned char const*, unsigned char*, int, unsigned char*)+0x84>
l:\Projects\arduino\libraries\AESLib\src/AES.cpp:417
    {
      byte tmp [N_BLOCK] ;
      copy_n_bytes (tmp, cipher, N_BLOCK) ;
    179a:	20 e1       	ldi	r18, 0x10	; 16
    179c:	a7 01       	movw	r20, r14
    179e:	be 01       	movw	r22, r28
    17a0:	6f 5f       	subi	r22, 0xFF	; 255
    17a2:	7f 4f       	sbci	r23, 0xFF	; 255
    17a4:	c5 01       	movw	r24, r10
    17a6:	0e 94 26 09 	call	0x124c	; 0x124c <AES::copy_n_bytes(unsigned char*, unsigned char const*, unsigned char)>
l:\Projects\arduino\libraries\AESLib\src/AES.cpp:418
      if (decrypt (cipher, plain) != SUCCESS)
    17aa:	a6 01       	movw	r20, r12
    17ac:	b7 01       	movw	r22, r14
    17ae:	c5 01       	movw	r24, r10
    17b0:	0e 94 55 0b 	call	0x16aa	; 0x16aa <AES::decrypt(unsigned char const*, unsigned char*)>
    17b4:	81 11       	cpse	r24, r1
    17b6:	14 c0       	rjmp	.+40     	; 0x17e0 <AES::cbc_decrypt(unsigned char const*, unsigned char*, int, unsigned char*)+0x80>
l:\Projects\arduino\libraries\AESLib\src/AES.cpp:420
        return FAILURE ;
      xor_block (plain, iv) ;
    17b8:	b8 01       	movw	r22, r16
    17ba:	c6 01       	movw	r24, r12
    17bc:	0e 94 a1 09 	call	0x1342	; 0x1342 <xor_block(unsigned char*, unsigned char const*)>
l:\Projects\arduino\libraries\AESLib\src/AES.cpp:421
      copy_n_bytes (iv, tmp, N_BLOCK) ;
    17c0:	20 e1       	ldi	r18, 0x10	; 16
    17c2:	ae 01       	movw	r20, r28
    17c4:	4f 5f       	subi	r20, 0xFF	; 255
    17c6:	5f 4f       	sbci	r21, 0xFF	; 255
    17c8:	b8 01       	movw	r22, r16
    17ca:	c5 01       	movw	r24, r10
    17cc:	0e 94 26 09 	call	0x124c	; 0x124c <AES::copy_n_bytes(unsigned char*, unsigned char const*, unsigned char)>
l:\Projects\arduino\libraries\AESLib\src/AES.cpp:422
      plain  += N_BLOCK ;
    17d0:	80 e1       	ldi	r24, 0x10	; 16
    17d2:	c8 0e       	add	r12, r24
    17d4:	d1 1c       	adc	r13, r1
l:\Projects\arduino\libraries\AESLib\src/AES.cpp:423
      cipher += N_BLOCK;
    17d6:	80 e1       	ldi	r24, 0x10	; 16
    17d8:	e8 0e       	add	r14, r24
    17da:	f1 1c       	adc	r15, r1
l:\Projects\arduino\libraries\AESLib\src/AES.cpp:414

/******************************************************************************/

byte AES::cbc_decrypt (const byte * cipher, byte * plain, int n_block, byte iv [N_BLOCK])
{
  while (n_block--)
    17dc:	94 01       	movw	r18, r8
    17de:	d7 cf       	rjmp	.-82     	; 0x178e <AES::cbc_decrypt(unsigned char const*, unsigned char*, int, unsigned char*)+0x2e>
l:\Projects\arduino\libraries\AESLib\src/AES.cpp:419
    {
      byte tmp [N_BLOCK] ;
      copy_n_bytes (tmp, cipher, N_BLOCK) ;
      if (decrypt (cipher, plain) != SUCCESS)
        return FAILURE ;
    17e0:	8f ef       	ldi	r24, 0xFF	; 255
    17e2:	01 c0       	rjmp	.+2      	; 0x17e6 <AES::cbc_decrypt(unsigned char const*, unsigned char*, int, unsigned char*)+0x86>
l:\Projects\arduino\libraries\AESLib\src/AES.cpp:425
      xor_block (plain, iv) ;
      copy_n_bytes (iv, tmp, N_BLOCK) ;
      plain  += N_BLOCK ;
      cipher += N_BLOCK;
    }
  return SUCCESS ;
    17e4:	80 e0       	ldi	r24, 0x00	; 0
l:\Projects\arduino\libraries\AESLib\src/AES.cpp:426
}
    17e6:	60 96       	adiw	r28, 0x10	; 16
    17e8:	0f b6       	in	r0, 0x3f	; 63
    17ea:	f8 94       	cli
    17ec:	de bf       	out	0x3e, r29	; 62
    17ee:	0f be       	out	0x3f, r0	; 63
    17f0:	cd bf       	out	0x3d, r28	; 61
    17f2:	df 91       	pop	r29
    17f4:	cf 91       	pop	r28
    17f6:	1f 91       	pop	r17
    17f8:	0f 91       	pop	r16
    17fa:	ff 90       	pop	r15
    17fc:	ef 90       	pop	r14
    17fe:	df 90       	pop	r13
    1800:	cf 90       	pop	r12
    1802:	bf 90       	pop	r11
    1804:	af 90       	pop	r10
    1806:	9f 90       	pop	r9
    1808:	8f 90       	pop	r8
    180a:	08 95       	ret

0000180c <s_box(unsigned char)>:
_ZL5s_boxh():
l:\Projects\arduino\libraries\AESLib\src/AES.cpp:117
static byte s_box (byte x)
{
#if defined(__x86_64)
  return s_fwd[x];
#else
  return pgm_read_byte (& s_fwd [x]) ;
    180c:	e8 2f       	mov	r30, r24
    180e:	f0 e0       	ldi	r31, 0x00	; 0
    1810:	e6 55       	subi	r30, 0x56	; 86
    1812:	fc 4f       	sbci	r31, 0xFC	; 252
    1814:	84 91       	lpm	r24, Z
l:\Projects\arduino\libraries\AESLib\src/AES.cpp:119
#endif
}
    1816:	08 95       	ret

00001818 <AES::set_key(unsigned char const*, unsigned int)>:
_ZN3AES7set_keyEPKhj():
l:\Projects\arduino\libraries\AESLib\src/AES.cpp:262
}

/******************************************************************************/

byte AES::set_key (const byte key [], uint16_t keylen)
{
    1818:	6f 92       	push	r6
    181a:	7f 92       	push	r7
    181c:	8f 92       	push	r8
    181e:	9f 92       	push	r9
    1820:	af 92       	push	r10
    1822:	bf 92       	push	r11
    1824:	cf 92       	push	r12
    1826:	df 92       	push	r13
    1828:	ef 92       	push	r14
    182a:	ff 92       	push	r15
    182c:	0f 93       	push	r16
    182e:	1f 93       	push	r17
    1830:	cf 93       	push	r28
    1832:	df 93       	push	r29
    1834:	00 d0       	rcall	.+0      	; 0x1836 <AES::set_key(unsigned char const*, unsigned int)+0x1e>
    1836:	00 d0       	rcall	.+0      	; 0x1838 <AES::set_key(unsigned char const*, unsigned int)+0x20>
    1838:	cd b7       	in	r28, 0x3d	; 61
    183a:	de b7       	in	r29, 0x3e	; 62
l:\Projects\arduino\libraries\AESLib\src/AES.cpp:264
  byte hi ;
  switch (keylen)
    183c:	40 32       	cpi	r20, 0x20	; 32
    183e:	51 05       	cpc	r21, r1
    1840:	c1 f1       	breq	.+112    	; 0x18b2 <AES::set_key(unsigned char const*, unsigned int)+0x9a>
    1842:	70 f0       	brcs	.+28     	; 0x1860 <AES::set_key(unsigned char const*, unsigned int)+0x48>
    1844:	40 3c       	cpi	r20, 0xC0	; 192
    1846:	51 05       	cpc	r21, r1
    1848:	89 f0       	breq	.+34     	; 0x186c <AES::set_key(unsigned char const*, unsigned int)+0x54>
    184a:	41 15       	cp	r20, r1
    184c:	21 e0       	ldi	r18, 0x01	; 1
    184e:	52 07       	cpc	r21, r18
    1850:	81 f1       	breq	.+96     	; 0x18b2 <AES::set_key(unsigned char const*, unsigned int)+0x9a>
    1852:	40 38       	cpi	r20, 0x80	; 128
    1854:	51 05       	cpc	r21, r1
    1856:	99 f0       	breq	.+38     	; 0x187e <AES::set_key(unsigned char const*, unsigned int)+0x66>
l:\Projects\arduino\libraries\AESLib\src/AES.cpp:282
    case 256:
      keylen = 32; // 14 rounds
      round = 14 ;
      break;
    default:
      round = 0;
    1858:	fc 01       	movw	r30, r24
    185a:	10 82       	st	Z, r1
l:\Projects\arduino\libraries\AESLib\src/AES.cpp:283
      return FAILURE;
    185c:	8f ef       	ldi	r24, 0xFF	; 255
    185e:	aa c0       	rjmp	.+340    	; 0x19b4 <AES::set_key(unsigned char const*, unsigned int)+0x19c>
l:\Projects\arduino\libraries\AESLib\src/AES.cpp:264
/******************************************************************************/

byte AES::set_key (const byte key [], uint16_t keylen)
{
  byte hi ;
  switch (keylen)
    1860:	40 31       	cpi	r20, 0x10	; 16
    1862:	51 05       	cpc	r21, r1
    1864:	61 f0       	breq	.+24     	; 0x187e <AES::set_key(unsigned char const*, unsigned int)+0x66>
    1866:	48 31       	cpi	r20, 0x18	; 24
    1868:	51 05       	cpc	r21, r1
    186a:	b1 f7       	brne	.-20     	; 0x1858 <AES::set_key(unsigned char const*, unsigned int)+0x40>
l:\Projects\arduino\libraries\AESLib\src/AES.cpp:274
      round = 10 ;
      break;
    case 24:
    case 192:
      keylen = 24; // 12 rounds
      round = 12 ;
    186c:	2c e0       	ldi	r18, 0x0C	; 12
    186e:	fc 01       	movw	r30, r24
    1870:	20 83       	st	Z, r18
l:\Projects\arduino\libraries\AESLib\src/AES.cpp:273
      keylen = 16; // 10 rounds
      round = 10 ;
      break;
    case 24:
    case 192:
      keylen = 24; // 12 rounds
    1872:	0f 2e       	mov	r0, r31
    1874:	f8 e1       	ldi	r31, 0x18	; 24
    1876:	cf 2e       	mov	r12, r31
    1878:	d1 2c       	mov	r13, r1
    187a:	f0 2d       	mov	r31, r0
    187c:	07 c0       	rjmp	.+14     	; 0x188c <AES::set_key(unsigned char const*, unsigned int)+0x74>
l:\Projects\arduino\libraries\AESLib\src/AES.cpp:269
  switch (keylen)
    {
    case 16:
    case 128:
      keylen = 16; // 10 rounds
      round = 10 ;
    187e:	2a e0       	ldi	r18, 0x0A	; 10
    1880:	fc 01       	movw	r30, r24
    1882:	20 83       	st	Z, r18
l:\Projects\arduino\libraries\AESLib\src/AES.cpp:268
  byte hi ;
  switch (keylen)
    {
    case 16:
    case 128:
      keylen = 16; // 10 rounds
    1884:	68 94       	set
    1886:	cc 24       	eor	r12, r12
    1888:	c4 f8       	bld	r12, 4
    188a:	d1 2c       	mov	r13, r1
    188c:	ab 01       	movw	r20, r22
    188e:	7c 01       	movw	r14, r24
l:\Projects\arduino\libraries\AESLib\src/AES.cpp:285
      break;
    default:
      round = 0;
      return FAILURE;
    }
  hi = (round + 1) << 4 ;
    1890:	fc 01       	movw	r30, r24
    1892:	00 81       	ld	r16, Z
    1894:	0f 5f       	subi	r16, 0xFF	; 255
    1896:	02 95       	swap	r16
    1898:	00 7f       	andi	r16, 0xF0	; 240
l:\Projects\arduino\libraries\AESLib\src/AES.cpp:286
  copy_n_bytes (key_sched, key, keylen) ;
    189a:	ac 2c       	mov	r10, r12
    189c:	bc 01       	movw	r22, r24
    189e:	6d 5f       	subi	r22, 0xFD	; 253
    18a0:	7f 4f       	sbci	r23, 0xFF	; 255
    18a2:	2c 2d       	mov	r18, r12
    18a4:	0e 94 26 09 	call	0x124c	; 0x124c <AES::copy_n_bytes(unsigned char*, unsigned char const*, unsigned char)>
l:\Projects\arduino\libraries\AESLib\src/AES.cpp:289
  byte t[4] ;
  byte next = keylen ;
  for (byte cc = keylen, rc = 1 ; cc < hi ; cc += N_COL)
    18a8:	1c 2d       	mov	r17, r12
l:\Projects\arduino\libraries\AESLib\src/AES.cpp:288
      return FAILURE;
    }
  hi = (round + 1) << 4 ;
  copy_n_bytes (key_sched, key, keylen) ;
  byte t[4] ;
  byte next = keylen ;
    18aa:	bc 2c       	mov	r11, r12
l:\Projects\arduino\libraries\AESLib\src/AES.cpp:289
  for (byte cc = keylen, rc = 1 ; cc < hi ; cc += N_COL)
    18ac:	77 24       	eor	r7, r7
    18ae:	73 94       	inc	r7
    18b0:	65 c0       	rjmp	.+202    	; 0x197c <AES::set_key(unsigned char const*, unsigned int)+0x164>
l:\Projects\arduino\libraries\AESLib\src/AES.cpp:279
      round = 12 ;
      break;
    case 32:
    case 256:
      keylen = 32; // 14 rounds
      round = 14 ;
    18b2:	2e e0       	ldi	r18, 0x0E	; 14
    18b4:	fc 01       	movw	r30, r24
    18b6:	20 83       	st	Z, r18
l:\Projects\arduino\libraries\AESLib\src/AES.cpp:278
      keylen = 24; // 12 rounds
      round = 12 ;
      break;
    case 32:
    case 256:
      keylen = 32; // 14 rounds
    18b8:	68 94       	set
    18ba:	cc 24       	eor	r12, r12
    18bc:	c5 f8       	bld	r12, 5
    18be:	d1 2c       	mov	r13, r1
    18c0:	e5 cf       	rjmp	.-54     	; 0x188c <AES::set_key(unsigned char const*, unsigned int)+0x74>
l:\Projects\arduino\libraries\AESLib\src/AES.cpp:293
  byte next = keylen ;
  for (byte cc = keylen, rc = 1 ; cc < hi ; cc += N_COL)
    {
      for (byte i = 0 ; i < N_COL ; i++)
        t[i] = key_sched [cc-4+i] ;
      if (cc == next)
    18c2:	b1 16       	cp	r11, r17
    18c4:	11 f1       	breq	.+68     	; 0x190a <AES::set_key(unsigned char const*, unsigned int)+0xf2>
l:\Projects\arduino\libraries\AESLib\src/AES.cpp:303
          t[1] = s_box (t[2]) ;
          t[2] = s_box (t[3]) ;
          t[3] = s_box (ttt) ;
          rc = f2 (rc) ;
        }
      else if (keylen == 32 && (cc & 31) == 16)
    18c6:	f0 e2       	ldi	r31, 0x20	; 32
    18c8:	cf 16       	cp	r12, r31
    18ca:	d1 04       	cpc	r13, r1
    18cc:	e9 f1       	breq	.+122    	; 0x1948 <AES::set_key(unsigned char const*, unsigned int)+0x130>
l:\Projects\arduino\libraries\AESLib\src/AES.cpp:308
        {
          for (byte i = 0 ; i < 4 ; i++)
            t[i] = s_box (t[i]) ;
        }
      byte tt = cc - keylen ;
    18ce:	51 2f       	mov	r21, r17
    18d0:	5a 19       	sub	r21, r10
l:\Projects\arduino\libraries\AESLib\src/AES.cpp:309
      for (byte i = 0 ; i < N_COL ; i++)
    18d2:	80 e0       	ldi	r24, 0x00	; 0
    18d4:	84 30       	cpi	r24, 0x04	; 4
    18d6:	08 f0       	brcs	.+2      	; 0x18da <AES::set_key(unsigned char const*, unsigned int)+0xc2>
    18d8:	50 c0       	rjmp	.+160    	; 0x197a <AES::set_key(unsigned char const*, unsigned int)+0x162>
l:\Projects\arduino\libraries\AESLib\src/AES.cpp:310
        key_sched [cc + i] = key_sched [tt + i] ^ t[i] ;
    18da:	28 2f       	mov	r18, r24
    18dc:	30 e0       	ldi	r19, 0x00	; 0
    18de:	f9 01       	movw	r30, r18
    18e0:	e5 0f       	add	r30, r21
    18e2:	f1 1d       	adc	r31, r1
    18e4:	ee 0d       	add	r30, r14
    18e6:	ff 1d       	adc	r31, r15
    18e8:	93 81       	ldd	r25, Z+3	; 0x03
    18ea:	e1 e0       	ldi	r30, 0x01	; 1
    18ec:	f0 e0       	ldi	r31, 0x00	; 0
    18ee:	ec 0f       	add	r30, r28
    18f0:	fd 1f       	adc	r31, r29
    18f2:	e2 0f       	add	r30, r18
    18f4:	f3 1f       	adc	r31, r19
    18f6:	40 81       	ld	r20, Z
    18f8:	21 0f       	add	r18, r17
    18fa:	31 1d       	adc	r19, r1
    18fc:	94 27       	eor	r25, r20
    18fe:	f7 01       	movw	r30, r14
    1900:	e2 0f       	add	r30, r18
    1902:	f3 1f       	adc	r31, r19
    1904:	93 83       	std	Z+3, r25	; 0x03
l:\Projects\arduino\libraries\AESLib\src/AES.cpp:309
        {
          for (byte i = 0 ; i < 4 ; i++)
            t[i] = s_box (t[i]) ;
        }
      byte tt = cc - keylen ;
      for (byte i = 0 ; i < N_COL ; i++)
    1906:	8f 5f       	subi	r24, 0xFF	; 255
    1908:	e5 cf       	rjmp	.-54     	; 0x18d4 <AES::set_key(unsigned char const*, unsigned int)+0xbc>
l:\Projects\arduino\libraries\AESLib\src/AES.cpp:295
    {
      for (byte i = 0 ; i < N_COL ; i++)
        t[i] = key_sched [cc-4+i] ;
      if (cc == next)
        {
          next += keylen ;
    190a:	ba 0c       	add	r11, r10
l:\Projects\arduino\libraries\AESLib\src/AES.cpp:296
          byte ttt = t[0] ;
    190c:	99 80       	ldd	r9, Y+1	; 0x01
l:\Projects\arduino\libraries\AESLib\src/AES.cpp:297
          t[0] = s_box (t[1]) ^ rc ;
    190e:	8a 81       	ldd	r24, Y+2	; 0x02
    1910:	0e 94 06 0c 	call	0x180c	; 0x180c <s_box(unsigned char)>
    1914:	87 25       	eor	r24, r7
    1916:	89 83       	std	Y+1, r24	; 0x01
l:\Projects\arduino\libraries\AESLib\src/AES.cpp:298
          t[1] = s_box (t[2]) ;
    1918:	8b 81       	ldd	r24, Y+3	; 0x03
    191a:	0e 94 06 0c 	call	0x180c	; 0x180c <s_box(unsigned char)>
    191e:	8a 83       	std	Y+2, r24	; 0x02
l:\Projects\arduino\libraries\AESLib\src/AES.cpp:299
          t[2] = s_box (t[3]) ;
    1920:	8c 81       	ldd	r24, Y+4	; 0x04
    1922:	0e 94 06 0c 	call	0x180c	; 0x180c <s_box(unsigned char)>
    1926:	8b 83       	std	Y+3, r24	; 0x03
l:\Projects\arduino\libraries\AESLib\src/AES.cpp:300
          t[3] = s_box (ttt) ;
    1928:	89 2d       	mov	r24, r9
    192a:	0e 94 06 0c 	call	0x180c	; 0x180c <s_box(unsigned char)>
    192e:	8c 83       	std	Y+4, r24	; 0x04
l:\Projects\arduino\libraries\AESLib\src/AES.cpp:301
          rc = f2 (rc) ;
    1930:	77 20       	and	r7, r7
    1932:	14 f0       	brlt	.+4      	; 0x1938 <AES::set_key(unsigned char const*, unsigned int)+0x120>
    1934:	77 0c       	add	r7, r7
    1936:	cb cf       	rjmp	.-106    	; 0x18ce <AES::set_key(unsigned char const*, unsigned int)+0xb6>
    1938:	87 2d       	mov	r24, r7
    193a:	90 e0       	ldi	r25, 0x00	; 0
    193c:	88 0f       	add	r24, r24
    193e:	99 1f       	adc	r25, r25
    1940:	9b e1       	ldi	r25, 0x1B	; 27
    1942:	78 2e       	mov	r7, r24
    1944:	79 26       	eor	r7, r25
    1946:	c3 cf       	rjmp	.-122    	; 0x18ce <AES::set_key(unsigned char const*, unsigned int)+0xb6>
l:\Projects\arduino\libraries\AESLib\src/AES.cpp:303
        }
      else if (keylen == 32 && (cc & 31) == 16)
    1948:	81 2f       	mov	r24, r17
    194a:	8f 71       	andi	r24, 0x1F	; 31
    194c:	80 31       	cpi	r24, 0x10	; 16
    194e:	09 f0       	breq	.+2      	; 0x1952 <AES::set_key(unsigned char const*, unsigned int)+0x13a>
    1950:	be cf       	rjmp	.-132    	; 0x18ce <AES::set_key(unsigned char const*, unsigned int)+0xb6>
l:\Projects\arduino\libraries\AESLib\src/AES.cpp:305
        {
          for (byte i = 0 ; i < 4 ; i++)
    1952:	61 2c       	mov	r6, r1
    1954:	23 e0       	ldi	r18, 0x03	; 3
    1956:	26 15       	cp	r18, r6
    1958:	08 f4       	brcc	.+2      	; 0x195c <AES::set_key(unsigned char const*, unsigned int)+0x144>
    195a:	b9 cf       	rjmp	.-142    	; 0x18ce <AES::set_key(unsigned char const*, unsigned int)+0xb6>
l:\Projects\arduino\libraries\AESLib\src/AES.cpp:306
            t[i] = s_box (t[i]) ;
    195c:	88 24       	eor	r8, r8
    195e:	83 94       	inc	r8
    1960:	91 2c       	mov	r9, r1
    1962:	8c 0e       	add	r8, r28
    1964:	9d 1e       	adc	r9, r29
    1966:	86 0c       	add	r8, r6
    1968:	91 1c       	adc	r9, r1
    196a:	f4 01       	movw	r30, r8
    196c:	80 81       	ld	r24, Z
    196e:	0e 94 06 0c 	call	0x180c	; 0x180c <s_box(unsigned char)>
    1972:	f4 01       	movw	r30, r8
    1974:	80 83       	st	Z, r24
l:\Projects\arduino\libraries\AESLib\src/AES.cpp:305
          t[3] = s_box (ttt) ;
          rc = f2 (rc) ;
        }
      else if (keylen == 32 && (cc & 31) == 16)
        {
          for (byte i = 0 ; i < 4 ; i++)
    1976:	63 94       	inc	r6
    1978:	ed cf       	rjmp	.-38     	; 0x1954 <AES::set_key(unsigned char const*, unsigned int)+0x13c>
l:\Projects\arduino\libraries\AESLib\src/AES.cpp:289
    }
  hi = (round + 1) << 4 ;
  copy_n_bytes (key_sched, key, keylen) ;
  byte t[4] ;
  byte next = keylen ;
  for (byte cc = keylen, rc = 1 ; cc < hi ; cc += N_COL)
    197a:	1c 5f       	subi	r17, 0xFC	; 252
    197c:	10 17       	cp	r17, r16
    197e:	c8 f4       	brcc	.+50     	; 0x19b2 <AES::set_key(unsigned char const*, unsigned int)+0x19a>
l:\Projects\arduino\libraries\AESLib\src/AES.cpp:291
    {
      for (byte i = 0 ; i < N_COL ; i++)
    1980:	20 e0       	ldi	r18, 0x00	; 0
    1982:	24 30       	cpi	r18, 0x04	; 4
    1984:	08 f0       	brcs	.+2      	; 0x1988 <AES::set_key(unsigned char const*, unsigned int)+0x170>
    1986:	9d cf       	rjmp	.-198    	; 0x18c2 <AES::set_key(unsigned char const*, unsigned int)+0xaa>
l:\Projects\arduino\libraries\AESLib\src/AES.cpp:292
        t[i] = key_sched [cc-4+i] ;
    1988:	82 2f       	mov	r24, r18
    198a:	90 e0       	ldi	r25, 0x00	; 0
    198c:	41 2f       	mov	r20, r17
    198e:	44 50       	subi	r20, 0x04	; 4
    1990:	55 0b       	sbc	r21, r21
    1992:	fa 01       	movw	r30, r20
    1994:	e8 0f       	add	r30, r24
    1996:	f9 1f       	adc	r31, r25
    1998:	ee 0d       	add	r30, r14
    199a:	ff 1d       	adc	r31, r15
    199c:	33 81       	ldd	r19, Z+3	; 0x03
    199e:	e1 e0       	ldi	r30, 0x01	; 1
    19a0:	f0 e0       	ldi	r31, 0x00	; 0
    19a2:	ec 0f       	add	r30, r28
    19a4:	fd 1f       	adc	r31, r29
    19a6:	8e 0f       	add	r24, r30
    19a8:	9f 1f       	adc	r25, r31
    19aa:	fc 01       	movw	r30, r24
    19ac:	30 83       	st	Z, r19
l:\Projects\arduino\libraries\AESLib\src/AES.cpp:291
  copy_n_bytes (key_sched, key, keylen) ;
  byte t[4] ;
  byte next = keylen ;
  for (byte cc = keylen, rc = 1 ; cc < hi ; cc += N_COL)
    {
      for (byte i = 0 ; i < N_COL ; i++)
    19ae:	2f 5f       	subi	r18, 0xFF	; 255
    19b0:	e8 cf       	rjmp	.-48     	; 0x1982 <AES::set_key(unsigned char const*, unsigned int)+0x16a>
l:\Projects\arduino\libraries\AESLib\src/AES.cpp:312
        }
      byte tt = cc - keylen ;
      for (byte i = 0 ; i < N_COL ; i++)
        key_sched [cc + i] = key_sched [tt + i] ^ t[i] ;
    }
  return SUCCESS ;
    19b2:	80 e0       	ldi	r24, 0x00	; 0
l:\Projects\arduino\libraries\AESLib\src/AES.cpp:313
}
    19b4:	0f 90       	pop	r0
    19b6:	0f 90       	pop	r0
    19b8:	0f 90       	pop	r0
    19ba:	0f 90       	pop	r0
    19bc:	df 91       	pop	r29
    19be:	cf 91       	pop	r28
    19c0:	1f 91       	pop	r17
    19c2:	0f 91       	pop	r16
    19c4:	ff 90       	pop	r15
    19c6:	ef 90       	pop	r14
    19c8:	df 90       	pop	r13
    19ca:	cf 90       	pop	r12
    19cc:	bf 90       	pop	r11
    19ce:	af 90       	pop	r10
    19d0:	9f 90       	pop	r9
    19d2:	8f 90       	pop	r8
    19d4:	7f 90       	pop	r7
    19d6:	6f 90       	pop	r6
    19d8:	08 95       	ret

000019da <AES::do_aes_decrypt(unsigned char const*, int, unsigned char*, unsigned char const*, int, unsigned char*)>:
_ZN3AES14do_aes_decryptEPKhiPhS1_iS2_():
l:\Projects\arduino\libraries\AESLib\src/AES.cpp:648
  cbc_encrypt (plain_p, cipher, blocks, ivl);
}

/******************************************************************************/

int AES::do_aes_decrypt(const byte *cipher,int size_c,byte *plain,const byte *key, int bits, byte ivl [N_BLOCK]){
    19da:	4f 92       	push	r4
    19dc:	5f 92       	push	r5
    19de:	6f 92       	push	r6
    19e0:	7f 92       	push	r7
    19e2:	8f 92       	push	r8
    19e4:	9f 92       	push	r9
    19e6:	af 92       	push	r10
    19e8:	bf 92       	push	r11
    19ea:	cf 92       	push	r12
    19ec:	df 92       	push	r13
    19ee:	ef 92       	push	r14
    19f0:	ff 92       	push	r15
    19f2:	0f 93       	push	r16
    19f4:	1f 93       	push	r17
    19f6:	cf 93       	push	r28
    19f8:	df 93       	push	r29
    19fa:	5c 01       	movw	r10, r24
    19fc:	3b 01       	movw	r6, r22
    19fe:	ea 01       	movw	r28, r20
    1a00:	49 01       	movw	r8, r18
    1a02:	26 01       	movw	r4, r12
l:\Projects\arduino\libraries\AESLib\src/AES.cpp:649
  set_size(size_c);
    1a04:	ba 01       	movw	r22, r20
    1a06:	0e 94 20 09 	call	0x1240	; 0x1240 <AES::set_size(int)>
l:\Projects\arduino\libraries\AESLib\src/AES.cpp:650
  int blocks = size_c / N_BLOCK;
    1a0a:	6e 01       	movw	r12, r28
    1a0c:	dd 23       	and	r29, r29
    1a0e:	54 f1       	brlt	.+84     	; 0x1a64 <AES::do_aes_decrypt(unsigned char const*, int, unsigned char*, unsigned char const*, int, unsigned char*)+0x8a>
    1a10:	d5 94       	asr	r13
    1a12:	c7 94       	ror	r12
    1a14:	d5 94       	asr	r13
    1a16:	c7 94       	ror	r12
    1a18:	d5 94       	asr	r13
    1a1a:	c7 94       	ror	r12
    1a1c:	d5 94       	asr	r13
    1a1e:	c7 94       	ror	r12
l:\Projects\arduino\libraries\AESLib\src/AES.cpp:651
  set_key (key, bits);
    1a20:	a7 01       	movw	r20, r14
    1a22:	b8 01       	movw	r22, r16
    1a24:	c5 01       	movw	r24, r10
    1a26:	0e 94 0c 0c 	call	0x1818	; 0x1818 <AES::set_key(unsigned char const*, unsigned int)>
l:\Projects\arduino\libraries\AESLib\src/AES.cpp:652
  cbc_decrypt (cipher,plain, blocks, ivl);
    1a2a:	82 01       	movw	r16, r4
    1a2c:	96 01       	movw	r18, r12
    1a2e:	a4 01       	movw	r20, r8
    1a30:	b3 01       	movw	r22, r6
    1a32:	c5 01       	movw	r24, r10
    1a34:	0e 94 b0 0b 	call	0x1760	; 0x1760 <AES::cbc_decrypt(unsigned char const*, unsigned char*, int, unsigned char*)>
l:\Projects\arduino\libraries\AESLib\src/AES.cpp:653
  return get_unpadded_len(plain,size_c);
    1a38:	ae 01       	movw	r20, r28
    1a3a:	b4 01       	movw	r22, r8
    1a3c:	c5 01       	movw	r24, r10
    1a3e:	0e 94 c0 08 	call	0x1180	; 0x1180 <AES::get_unpadded_len(unsigned char const*, int)>
l:\Projects\arduino\libraries\AESLib\src/AES.cpp:654
}
    1a42:	df 91       	pop	r29
    1a44:	cf 91       	pop	r28
    1a46:	1f 91       	pop	r17
    1a48:	0f 91       	pop	r16
    1a4a:	ff 90       	pop	r15
    1a4c:	ef 90       	pop	r14
    1a4e:	df 90       	pop	r13
    1a50:	cf 90       	pop	r12
    1a52:	bf 90       	pop	r11
    1a54:	af 90       	pop	r10
    1a56:	9f 90       	pop	r9
    1a58:	8f 90       	pop	r8
    1a5a:	7f 90       	pop	r7
    1a5c:	6f 90       	pop	r6
    1a5e:	5f 90       	pop	r5
    1a60:	4f 90       	pop	r4
    1a62:	08 95       	ret
l:\Projects\arduino\libraries\AESLib\src/AES.cpp:650

/******************************************************************************/

int AES::do_aes_decrypt(const byte *cipher,int size_c,byte *plain,const byte *key, int bits, byte ivl [N_BLOCK]){
  set_size(size_c);
  int blocks = size_c / N_BLOCK;
    1a64:	8f e0       	ldi	r24, 0x0F	; 15
    1a66:	c8 0e       	add	r12, r24
    1a68:	d1 1c       	adc	r13, r1
    1a6a:	d2 cf       	rjmp	.-92     	; 0x1a10 <AES::do_aes_decrypt(unsigned char const*, int, unsigned char*, unsigned char const*, int, unsigned char*)+0x36>

00001a6c <mix_sub_columns(unsigned char*, unsigned char const*)>:
_ZL15mix_sub_columnsPhPKh():
l:\Projects\arduino\libraries\AESLib\src/AES.cpp:195
}

/* SUB COLUMNS PHASE */

static void mix_sub_columns (byte dt[N_BLOCK], const byte st[N_BLOCK])
{
    1a6c:	6f 92       	push	r6
    1a6e:	7f 92       	push	r7
    1a70:	8f 92       	push	r8
    1a72:	9f 92       	push	r9
    1a74:	af 92       	push	r10
    1a76:	bf 92       	push	r11
    1a78:	cf 92       	push	r12
    1a7a:	df 92       	push	r13
    1a7c:	ef 92       	push	r14
    1a7e:	ff 92       	push	r15
    1a80:	0f 93       	push	r16
    1a82:	1f 93       	push	r17
    1a84:	cf 93       	push	r28
    1a86:	df 93       	push	r29
    1a88:	7c 01       	movw	r14, r24
    1a8a:	8b 01       	movw	r16, r22
l:\Projects\arduino\libraries\AESLib\src/AES.cpp:199
  byte j = 5 ;
  byte k = 10 ;
  byte l = 15 ;
  for (byte i = 0 ; i < N_BLOCK ; i += N_COL)
    1a8c:	a1 2c       	mov	r10, r1
l:\Projects\arduino\libraries\AESLib\src/AES.cpp:198

static void mix_sub_columns (byte dt[N_BLOCK], const byte st[N_BLOCK])
{
  byte j = 5 ;
  byte k = 10 ;
  byte l = 15 ;
    1a8e:	0f 2e       	mov	r0, r31
    1a90:	ff e0       	ldi	r31, 0x0F	; 15
    1a92:	bf 2e       	mov	r11, r31
    1a94:	f0 2d       	mov	r31, r0
l:\Projects\arduino\libraries\AESLib\src/AES.cpp:197
/* SUB COLUMNS PHASE */

static void mix_sub_columns (byte dt[N_BLOCK], const byte st[N_BLOCK])
{
  byte j = 5 ;
  byte k = 10 ;
    1a96:	0f 2e       	mov	r0, r31
    1a98:	fa e0       	ldi	r31, 0x0A	; 10
    1a9a:	cf 2e       	mov	r12, r31
    1a9c:	f0 2d       	mov	r31, r0
l:\Projects\arduino\libraries\AESLib\src/AES.cpp:196

/* SUB COLUMNS PHASE */

static void mix_sub_columns (byte dt[N_BLOCK], const byte st[N_BLOCK])
{
  byte j = 5 ;
    1a9e:	0f 2e       	mov	r0, r31
    1aa0:	f5 e0       	ldi	r31, 0x05	; 5
    1aa2:	df 2e       	mov	r13, r31
    1aa4:	f0 2d       	mov	r31, r0
    1aa6:	41 c0       	rjmp	.+130    	; 0x1b2a <mix_sub_columns(unsigned char*, unsigned char const*)+0xbe>
l:\Projects\arduino\libraries\AESLib\src/AES.cpp:206
      byte a = st [i] ;
      byte b = st [j] ;  j = (j+N_COL) & 15 ;
      byte c = st [k] ;  k = (k+N_COL) & 15 ;
      byte d = st [l] ;  l = (l+N_COL) & 15 ;
      byte a1 = s_box (a), b1 = s_box (b), c1 = s_box (c), d1 = s_box (d) ;
      byte a2 = f2(a1),    b2 = f2(b1),    c2 = f2(c1),    d2 = f2(d1) ;
    1aa8:	47 2d       	mov	r20, r7
    1aaa:	50 e0       	ldi	r21, 0x00	; 0
    1aac:	44 0f       	add	r20, r20
    1aae:	55 1f       	adc	r21, r21
    1ab0:	9b e1       	ldi	r25, 0x1B	; 27
    1ab2:	49 27       	eor	r20, r25
    1ab4:	6f c0       	rjmp	.+222    	; 0x1b94 <mix_sub_columns(unsigned char*, unsigned char const*)+0x128>
    1ab6:	28 2d       	mov	r18, r8
    1ab8:	30 e0       	ldi	r19, 0x00	; 0
    1aba:	22 0f       	add	r18, r18
    1abc:	33 1f       	adc	r19, r19
    1abe:	9b e1       	ldi	r25, 0x1B	; 27
    1ac0:	92 27       	eor	r25, r18
    1ac2:	6d c0       	rjmp	.+218    	; 0x1b9e <mix_sub_columns(unsigned char*, unsigned char const*)+0x132>
    1ac4:	29 2d       	mov	r18, r9
    1ac6:	30 e0       	ldi	r19, 0x00	; 0
    1ac8:	22 0f       	add	r18, r18
    1aca:	33 1f       	adc	r19, r19
    1acc:	5b e1       	ldi	r21, 0x1B	; 27
    1ace:	52 27       	eor	r21, r18
    1ad0:	6b c0       	rjmp	.+214    	; 0x1ba8 <mix_sub_columns(unsigned char*, unsigned char const*)+0x13c>
    1ad2:	28 2f       	mov	r18, r24
    1ad4:	30 e0       	ldi	r19, 0x00	; 0
    1ad6:	22 0f       	add	r18, r18
    1ad8:	33 1f       	adc	r19, r19
    1ada:	3b e1       	ldi	r19, 0x1B	; 27
    1adc:	32 27       	eor	r19, r18
l:\Projects\arduino\libraries\AESLib\src/AES.cpp:207
      dt[i]   = a2     ^  b2^b1  ^  c1     ^  d1 ;
    1ade:	24 2f       	mov	r18, r20
    1ae0:	29 27       	eor	r18, r25
    1ae2:	28 25       	eor	r18, r8
    1ae4:	29 25       	eor	r18, r9
    1ae6:	f7 01       	movw	r30, r14
    1ae8:	ec 0f       	add	r30, r28
    1aea:	fd 1f       	adc	r31, r29
    1aec:	28 27       	eor	r18, r24
    1aee:	20 83       	st	Z, r18
l:\Projects\arduino\libraries\AESLib\src/AES.cpp:208
      dt[i+1] = a1     ^  b2     ^  c2^c1  ^  d1 ;
    1af0:	97 25       	eor	r25, r7
    1af2:	95 27       	eor	r25, r21
    1af4:	99 25       	eor	r25, r9
    1af6:	fe 01       	movw	r30, r28
    1af8:	31 96       	adiw	r30, 0x01	; 1
    1afa:	ee 0d       	add	r30, r14
    1afc:	ff 1d       	adc	r31, r15
    1afe:	98 27       	eor	r25, r24
    1b00:	90 83       	st	Z, r25
l:\Projects\arduino\libraries\AESLib\src/AES.cpp:209
      dt[i+2] = a1     ^  b1     ^  c2     ^  d2^d1 ;
    1b02:	97 2d       	mov	r25, r7
    1b04:	98 25       	eor	r25, r8
    1b06:	95 27       	eor	r25, r21
    1b08:	93 27       	eor	r25, r19
    1b0a:	fe 01       	movw	r30, r28
    1b0c:	32 96       	adiw	r30, 0x02	; 2
    1b0e:	ee 0d       	add	r30, r14
    1b10:	ff 1d       	adc	r31, r15
    1b12:	89 27       	eor	r24, r25
    1b14:	80 83       	st	Z, r24
l:\Projects\arduino\libraries\AESLib\src/AES.cpp:210
      dt[i+3] = a2^a1  ^  b1     ^  c1     ^  d2 ;
    1b16:	74 26       	eor	r7, r20
    1b18:	87 24       	eor	r8, r7
    1b1a:	98 24       	eor	r9, r8
    1b1c:	23 96       	adiw	r28, 0x03	; 3
    1b1e:	ce 0d       	add	r28, r14
    1b20:	df 1d       	adc	r29, r15
    1b22:	93 26       	eor	r9, r19
    1b24:	98 82       	st	Y, r9
l:\Projects\arduino\libraries\AESLib\src/AES.cpp:199
static void mix_sub_columns (byte dt[N_BLOCK], const byte st[N_BLOCK])
{
  byte j = 5 ;
  byte k = 10 ;
  byte l = 15 ;
  for (byte i = 0 ; i < N_BLOCK ; i += N_COL)
    1b26:	84 e0       	ldi	r24, 0x04	; 4
    1b28:	a8 0e       	add	r10, r24
    1b2a:	8f e0       	ldi	r24, 0x0F	; 15
    1b2c:	8a 15       	cp	r24, r10
    1b2e:	08 f4       	brcc	.+2      	; 0x1b32 <mix_sub_columns(unsigned char*, unsigned char const*)+0xc6>
    1b30:	41 c0       	rjmp	.+130    	; 0x1bb4 <mix_sub_columns(unsigned char*, unsigned char const*)+0x148>
l:\Projects\arduino\libraries\AESLib\src/AES.cpp:201
    {
      byte a = st [i] ;
    1b32:	ca 2d       	mov	r28, r10
    1b34:	d0 e0       	ldi	r29, 0x00	; 0
    1b36:	f8 01       	movw	r30, r16
    1b38:	ec 0f       	add	r30, r28
    1b3a:	fd 1f       	adc	r31, r29
l:\Projects\arduino\libraries\AESLib\src/AES.cpp:202
      byte b = st [j] ;  j = (j+N_COL) & 15 ;
    1b3c:	d8 01       	movw	r26, r16
    1b3e:	ad 0d       	add	r26, r13
    1b40:	b1 1d       	adc	r27, r1
    1b42:	8c 90       	ld	r8, X
    1b44:	84 e0       	ldi	r24, 0x04	; 4
    1b46:	8d 0d       	add	r24, r13
    1b48:	8f 70       	andi	r24, 0x0F	; 15
    1b4a:	d8 2e       	mov	r13, r24
l:\Projects\arduino\libraries\AESLib\src/AES.cpp:203
      byte c = st [k] ;  k = (k+N_COL) & 15 ;
    1b4c:	d8 01       	movw	r26, r16
    1b4e:	ac 0d       	add	r26, r12
    1b50:	b1 1d       	adc	r27, r1
    1b52:	9c 90       	ld	r9, X
    1b54:	84 e0       	ldi	r24, 0x04	; 4
    1b56:	8c 0d       	add	r24, r12
    1b58:	8f 70       	andi	r24, 0x0F	; 15
    1b5a:	c8 2e       	mov	r12, r24
l:\Projects\arduino\libraries\AESLib\src/AES.cpp:204
      byte d = st [l] ;  l = (l+N_COL) & 15 ;
    1b5c:	d8 01       	movw	r26, r16
    1b5e:	ab 0d       	add	r26, r11
    1b60:	b1 1d       	adc	r27, r1
    1b62:	6c 90       	ld	r6, X
    1b64:	84 e0       	ldi	r24, 0x04	; 4
    1b66:	8b 0d       	add	r24, r11
    1b68:	8f 70       	andi	r24, 0x0F	; 15
    1b6a:	b8 2e       	mov	r11, r24
l:\Projects\arduino\libraries\AESLib\src/AES.cpp:205
      byte a1 = s_box (a), b1 = s_box (b), c1 = s_box (c), d1 = s_box (d) ;
    1b6c:	80 81       	ld	r24, Z
    1b6e:	0e 94 06 0c 	call	0x180c	; 0x180c <s_box(unsigned char)>
    1b72:	78 2e       	mov	r7, r24
    1b74:	88 2d       	mov	r24, r8
    1b76:	0e 94 06 0c 	call	0x180c	; 0x180c <s_box(unsigned char)>
    1b7a:	88 2e       	mov	r8, r24
    1b7c:	89 2d       	mov	r24, r9
    1b7e:	0e 94 06 0c 	call	0x180c	; 0x180c <s_box(unsigned char)>
    1b82:	98 2e       	mov	r9, r24
    1b84:	86 2d       	mov	r24, r6
    1b86:	0e 94 06 0c 	call	0x180c	; 0x180c <s_box(unsigned char)>
l:\Projects\arduino\libraries\AESLib\src/AES.cpp:206
      byte a2 = f2(a1),    b2 = f2(b1),    c2 = f2(c1),    d2 = f2(d1) ;
    1b8a:	77 20       	and	r7, r7
    1b8c:	0c f4       	brge	.+2      	; 0x1b90 <mix_sub_columns(unsigned char*, unsigned char const*)+0x124>
    1b8e:	8c cf       	rjmp	.-232    	; 0x1aa8 <mix_sub_columns(unsigned char*, unsigned char const*)+0x3c>
    1b90:	47 2d       	mov	r20, r7
    1b92:	44 0f       	add	r20, r20
    1b94:	88 20       	and	r8, r8
    1b96:	0c f4       	brge	.+2      	; 0x1b9a <mix_sub_columns(unsigned char*, unsigned char const*)+0x12e>
    1b98:	8e cf       	rjmp	.-228    	; 0x1ab6 <mix_sub_columns(unsigned char*, unsigned char const*)+0x4a>
    1b9a:	98 2d       	mov	r25, r8
    1b9c:	99 0f       	add	r25, r25
    1b9e:	99 20       	and	r9, r9
    1ba0:	0c f4       	brge	.+2      	; 0x1ba4 <mix_sub_columns(unsigned char*, unsigned char const*)+0x138>
    1ba2:	90 cf       	rjmp	.-224    	; 0x1ac4 <mix_sub_columns(unsigned char*, unsigned char const*)+0x58>
    1ba4:	59 2d       	mov	r21, r9
    1ba6:	55 0f       	add	r21, r21
    1ba8:	88 23       	and	r24, r24
    1baa:	0c f4       	brge	.+2      	; 0x1bae <mix_sub_columns(unsigned char*, unsigned char const*)+0x142>
    1bac:	92 cf       	rjmp	.-220    	; 0x1ad2 <mix_sub_columns(unsigned char*, unsigned char const*)+0x66>
    1bae:	38 2f       	mov	r19, r24
    1bb0:	33 0f       	add	r19, r19
    1bb2:	95 cf       	rjmp	.-214    	; 0x1ade <mix_sub_columns(unsigned char*, unsigned char const*)+0x72>
l:\Projects\arduino\libraries\AESLib\src/AES.cpp:212
      dt[i]   = a2     ^  b2^b1  ^  c1     ^  d1 ;
      dt[i+1] = a1     ^  b2     ^  c2^c1  ^  d1 ;
      dt[i+2] = a1     ^  b1     ^  c2     ^  d2^d1 ;
      dt[i+3] = a2^a1  ^  b1     ^  c1     ^  d2 ;
    }
}
    1bb4:	df 91       	pop	r29
    1bb6:	cf 91       	pop	r28
    1bb8:	1f 91       	pop	r17
    1bba:	0f 91       	pop	r16
    1bbc:	ff 90       	pop	r15
    1bbe:	ef 90       	pop	r14
    1bc0:	df 90       	pop	r13
    1bc2:	cf 90       	pop	r12
    1bc4:	bf 90       	pop	r11
    1bc6:	af 90       	pop	r10
    1bc8:	9f 90       	pop	r9
    1bca:	8f 90       	pop	r8
    1bcc:	7f 90       	pop	r7
    1bce:	6f 90       	pop	r6
    1bd0:	08 95       	ret

00001bd2 <shift_sub_rows(unsigned char*)>:
_ZL14shift_sub_rowsPh():
l:\Projects\arduino\libraries\AESLib\src/AES.cpp:159
// #define add_round_key(d, k) xor_block (d, k)

/* SUB ROW PHASE */

static void shift_sub_rows (byte st [N_BLOCK])
{
    1bd2:	1f 93       	push	r17
    1bd4:	cf 93       	push	r28
    1bd6:	df 93       	push	r29
    1bd8:	ec 01       	movw	r28, r24
l:\Projects\arduino\libraries\AESLib\src/AES.cpp:160
  st [0] = s_box (st [0]) ; st [4]  = s_box (st [4]) ;
    1bda:	88 81       	ld	r24, Y
    1bdc:	0e 94 06 0c 	call	0x180c	; 0x180c <s_box(unsigned char)>
    1be0:	88 83       	st	Y, r24
    1be2:	8c 81       	ldd	r24, Y+4	; 0x04
    1be4:	0e 94 06 0c 	call	0x180c	; 0x180c <s_box(unsigned char)>
    1be8:	8c 83       	std	Y+4, r24	; 0x04
l:\Projects\arduino\libraries\AESLib\src/AES.cpp:161
  st [8] = s_box (st [8]) ; st [12] = s_box (st [12]) ;
    1bea:	88 85       	ldd	r24, Y+8	; 0x08
    1bec:	0e 94 06 0c 	call	0x180c	; 0x180c <s_box(unsigned char)>
    1bf0:	88 87       	std	Y+8, r24	; 0x08
    1bf2:	8c 85       	ldd	r24, Y+12	; 0x0c
    1bf4:	0e 94 06 0c 	call	0x180c	; 0x180c <s_box(unsigned char)>
    1bf8:	8c 87       	std	Y+12, r24	; 0x0c
l:\Projects\arduino\libraries\AESLib\src/AES.cpp:163

  byte tt = st [1] ;
    1bfa:	19 81       	ldd	r17, Y+1	; 0x01
l:\Projects\arduino\libraries\AESLib\src/AES.cpp:164
  st [1] = s_box (st [5]) ;  st [5]  = s_box (st [9]) ;
    1bfc:	8d 81       	ldd	r24, Y+5	; 0x05
    1bfe:	0e 94 06 0c 	call	0x180c	; 0x180c <s_box(unsigned char)>
    1c02:	89 83       	std	Y+1, r24	; 0x01
    1c04:	89 85       	ldd	r24, Y+9	; 0x09
    1c06:	0e 94 06 0c 	call	0x180c	; 0x180c <s_box(unsigned char)>
    1c0a:	8d 83       	std	Y+5, r24	; 0x05
l:\Projects\arduino\libraries\AESLib\src/AES.cpp:165
  st [9] = s_box (st [13]) ; st [13] = s_box (tt) ;
    1c0c:	8d 85       	ldd	r24, Y+13	; 0x0d
    1c0e:	0e 94 06 0c 	call	0x180c	; 0x180c <s_box(unsigned char)>
    1c12:	89 87       	std	Y+9, r24	; 0x09
    1c14:	81 2f       	mov	r24, r17
    1c16:	0e 94 06 0c 	call	0x180c	; 0x180c <s_box(unsigned char)>
    1c1a:	8d 87       	std	Y+13, r24	; 0x0d
l:\Projects\arduino\libraries\AESLib\src/AES.cpp:167

  tt = st[2] ; st [2] = s_box (st [10]) ; st [10] = s_box (tt) ;
    1c1c:	1a 81       	ldd	r17, Y+2	; 0x02
    1c1e:	8a 85       	ldd	r24, Y+10	; 0x0a
    1c20:	0e 94 06 0c 	call	0x180c	; 0x180c <s_box(unsigned char)>
    1c24:	8a 83       	std	Y+2, r24	; 0x02
    1c26:	81 2f       	mov	r24, r17
    1c28:	0e 94 06 0c 	call	0x180c	; 0x180c <s_box(unsigned char)>
    1c2c:	8a 87       	std	Y+10, r24	; 0x0a
l:\Projects\arduino\libraries\AESLib\src/AES.cpp:168
  tt = st[6] ; st [6] = s_box (st [14]) ; st [14] = s_box (tt) ;
    1c2e:	1e 81       	ldd	r17, Y+6	; 0x06
    1c30:	8e 85       	ldd	r24, Y+14	; 0x0e
    1c32:	0e 94 06 0c 	call	0x180c	; 0x180c <s_box(unsigned char)>
    1c36:	8e 83       	std	Y+6, r24	; 0x06
    1c38:	81 2f       	mov	r24, r17
    1c3a:	0e 94 06 0c 	call	0x180c	; 0x180c <s_box(unsigned char)>
    1c3e:	8e 87       	std	Y+14, r24	; 0x0e
l:\Projects\arduino\libraries\AESLib\src/AES.cpp:170

  tt = st[15] ;
    1c40:	1f 85       	ldd	r17, Y+15	; 0x0f
l:\Projects\arduino\libraries\AESLib\src/AES.cpp:171
  st [15] = s_box (st [11]) ; st [11] = s_box (st [7]) ;
    1c42:	8b 85       	ldd	r24, Y+11	; 0x0b
    1c44:	0e 94 06 0c 	call	0x180c	; 0x180c <s_box(unsigned char)>
    1c48:	8f 87       	std	Y+15, r24	; 0x0f
    1c4a:	8f 81       	ldd	r24, Y+7	; 0x07
    1c4c:	0e 94 06 0c 	call	0x180c	; 0x180c <s_box(unsigned char)>
    1c50:	8b 87       	std	Y+11, r24	; 0x0b
l:\Projects\arduino\libraries\AESLib\src/AES.cpp:172
  st [7]  = s_box (st [3]) ;  st [3]  = s_box (tt) ;
    1c52:	8b 81       	ldd	r24, Y+3	; 0x03
    1c54:	0e 94 06 0c 	call	0x180c	; 0x180c <s_box(unsigned char)>
    1c58:	8f 83       	std	Y+7, r24	; 0x07
    1c5a:	81 2f       	mov	r24, r17
    1c5c:	0e 94 06 0c 	call	0x180c	; 0x180c <s_box(unsigned char)>
    1c60:	8b 83       	std	Y+3, r24	; 0x03
l:\Projects\arduino\libraries\AESLib\src/AES.cpp:173
}
    1c62:	df 91       	pop	r29
    1c64:	cf 91       	pop	r28
    1c66:	1f 91       	pop	r17
    1c68:	08 95       	ret

00001c6a <AES::encrypt(unsigned char const*, unsigned char*)>:
_ZN3AES7encryptEPKhPh():
l:\Projects\arduino\libraries\AESLib\src/AES.cpp:351
}

/******************************************************************************/

byte AES::encrypt (const byte plain [N_BLOCK], byte cipher [N_BLOCK])
{
    1c6a:	af 92       	push	r10
    1c6c:	bf 92       	push	r11
    1c6e:	cf 92       	push	r12
    1c70:	df 92       	push	r13
    1c72:	ef 92       	push	r14
    1c74:	ff 92       	push	r15
    1c76:	1f 93       	push	r17
    1c78:	cf 93       	push	r28
    1c7a:	df 93       	push	r29
    1c7c:	cd b7       	in	r28, 0x3d	; 61
    1c7e:	de b7       	in	r29, 0x3e	; 62
    1c80:	a0 97       	sbiw	r28, 0x20	; 32
    1c82:	0f b6       	in	r0, 0x3f	; 63
    1c84:	f8 94       	cli
    1c86:	de bf       	out	0x3e, r29	; 62
    1c88:	0f be       	out	0x3f, r0	; 63
    1c8a:	cd bf       	out	0x3d, r28	; 61
l:\Projects\arduino\libraries\AESLib\src/AES.cpp:352
  if (round)
    1c8c:	fc 01       	movw	r30, r24
    1c8e:	20 81       	ld	r18, Z
    1c90:	22 23       	and	r18, r18
    1c92:	09 f4       	brne	.+2      	; 0x1c96 <AES::encrypt(unsigned char const*, unsigned char*)+0x2c>
    1c94:	47 c0       	rjmp	.+142    	; 0x1d24 <AES::encrypt(unsigned char const*, unsigned char*)+0xba>
    1c96:	6a 01       	movw	r12, r20
    1c98:	5c 01       	movw	r10, r24
l:\Projects\arduino\libraries\AESLib\src/AES.cpp:355
    {
      byte s1 [N_BLOCK], r ;
      copy_and_key (s1, plain, (byte*) (key_sched)) ;
    1c9a:	7c 01       	movw	r14, r24
    1c9c:	f3 e0       	ldi	r31, 0x03	; 3
    1c9e:	ef 0e       	add	r14, r31
    1ca0:	f1 1c       	adc	r15, r1
    1ca2:	a7 01       	movw	r20, r14
    1ca4:	ce 01       	movw	r24, r28
    1ca6:	41 96       	adiw	r24, 0x11	; 17
    1ca8:	0e 94 7b 09 	call	0x12f6	; 0x12f6 <copy_and_key(unsigned char*, unsigned char const*, unsigned char const*)>
l:\Projects\arduino\libraries\AESLib\src/AES.cpp:357

      for (r = 1 ; r < round ; r++)
    1cac:	11 e0       	ldi	r17, 0x01	; 1
    1cae:	f5 01       	movw	r30, r10
    1cb0:	80 81       	ld	r24, Z
    1cb2:	18 17       	cp	r17, r24
    1cb4:	b0 f4       	brcc	.+44     	; 0x1ce2 <AES::encrypt(unsigned char const*, unsigned char*)+0x78>
l:\Projects\arduino\libraries\AESLib\src/AES.cpp:360
        {
          byte s2 [N_BLOCK] ;
          mix_sub_columns (s2, s1) ;
    1cb6:	be 01       	movw	r22, r28
    1cb8:	6f 5e       	subi	r22, 0xEF	; 239
    1cba:	7f 4f       	sbci	r23, 0xFF	; 255
    1cbc:	ce 01       	movw	r24, r28
    1cbe:	01 96       	adiw	r24, 0x01	; 1
    1cc0:	0e 94 36 0d 	call	0x1a6c	; 0x1a6c <mix_sub_columns(unsigned char*, unsigned char const*)>
l:\Projects\arduino\libraries\AESLib\src/AES.cpp:361
          copy_and_key (s1, s2, (byte*) (key_sched + r * N_BLOCK)) ;
    1cc4:	f0 e1       	ldi	r31, 0x10	; 16
    1cc6:	1f 9f       	mul	r17, r31
    1cc8:	a0 01       	movw	r20, r0
    1cca:	11 24       	eor	r1, r1
    1ccc:	4e 0d       	add	r20, r14
    1cce:	5f 1d       	adc	r21, r15
    1cd0:	be 01       	movw	r22, r28
    1cd2:	6f 5f       	subi	r22, 0xFF	; 255
    1cd4:	7f 4f       	sbci	r23, 0xFF	; 255
    1cd6:	ce 01       	movw	r24, r28
    1cd8:	41 96       	adiw	r24, 0x11	; 17
    1cda:	0e 94 7b 09 	call	0x12f6	; 0x12f6 <copy_and_key(unsigned char*, unsigned char const*, unsigned char const*)>
l:\Projects\arduino\libraries\AESLib\src/AES.cpp:357
  if (round)
    {
      byte s1 [N_BLOCK], r ;
      copy_and_key (s1, plain, (byte*) (key_sched)) ;

      for (r = 1 ; r < round ; r++)
    1cde:	1f 5f       	subi	r17, 0xFF	; 255
    1ce0:	e6 cf       	rjmp	.-52     	; 0x1cae <AES::encrypt(unsigned char const*, unsigned char*)+0x44>
l:\Projects\arduino\libraries\AESLib\src/AES.cpp:363
        {
          byte s2 [N_BLOCK] ;
          mix_sub_columns (s2, s1) ;
          copy_and_key (s1, s2, (byte*) (key_sched + r * N_BLOCK)) ;
        }
      shift_sub_rows (s1) ;
    1ce2:	ce 01       	movw	r24, r28
    1ce4:	41 96       	adiw	r24, 0x11	; 17
    1ce6:	0e 94 e9 0d 	call	0x1bd2	; 0x1bd2 <shift_sub_rows(unsigned char*)>
l:\Projects\arduino\libraries\AESLib\src/AES.cpp:364
      copy_and_key (cipher, s1, (byte*) (key_sched + r * N_BLOCK)) ;
    1cea:	80 e1       	ldi	r24, 0x10	; 16
    1cec:	18 9f       	mul	r17, r24
    1cee:	a0 01       	movw	r20, r0
    1cf0:	11 24       	eor	r1, r1
    1cf2:	4e 0d       	add	r20, r14
    1cf4:	5f 1d       	adc	r21, r15
    1cf6:	be 01       	movw	r22, r28
    1cf8:	6f 5e       	subi	r22, 0xEF	; 239
    1cfa:	7f 4f       	sbci	r23, 0xFF	; 255
    1cfc:	c6 01       	movw	r24, r12
    1cfe:	0e 94 7b 09 	call	0x12f6	; 0x12f6 <copy_and_key(unsigned char*, unsigned char const*, unsigned char const*)>
l:\Projects\arduino\libraries\AESLib\src/AES.cpp:368
    }
  else
    return FAILURE ;
  return SUCCESS ;
    1d02:	80 e0       	ldi	r24, 0x00	; 0
l:\Projects\arduino\libraries\AESLib\src/AES.cpp:369
}
    1d04:	a0 96       	adiw	r28, 0x20	; 32
    1d06:	0f b6       	in	r0, 0x3f	; 63
    1d08:	f8 94       	cli
    1d0a:	de bf       	out	0x3e, r29	; 62
    1d0c:	0f be       	out	0x3f, r0	; 63
    1d0e:	cd bf       	out	0x3d, r28	; 61
    1d10:	df 91       	pop	r29
    1d12:	cf 91       	pop	r28
    1d14:	1f 91       	pop	r17
    1d16:	ff 90       	pop	r15
    1d18:	ef 90       	pop	r14
    1d1a:	df 90       	pop	r13
    1d1c:	cf 90       	pop	r12
    1d1e:	bf 90       	pop	r11
    1d20:	af 90       	pop	r10
    1d22:	08 95       	ret
l:\Projects\arduino\libraries\AESLib\src/AES.cpp:367
        }
      shift_sub_rows (s1) ;
      copy_and_key (cipher, s1, (byte*) (key_sched + r * N_BLOCK)) ;
    }
  else
    return FAILURE ;
    1d24:	8f ef       	ldi	r24, 0xFF	; 255
    1d26:	ee cf       	rjmp	.-36     	; 0x1d04 <AES::encrypt(unsigned char const*, unsigned char*)+0x9a>

00001d28 <__static_initialization_and_destruction_0(int, int) [clone .lto_priv.0]>:
_Z41__static_initialization_and_destruction_0ii.lto_priv.0():
L:\Programs\psp\Pandora\Arduino_v4_61/Arduino_v4_61.ino:587

  testLed();
#if enableSleep
  checkDowntime();
#endif
}
    1d28:	0f 93       	push	r16
    1d2a:	1f 93       	push	r17
    1d2c:	cf 93       	push	r28
    1d2e:	df 93       	push	r29
    1d30:	ec 01       	movw	r28, r24
    1d32:	8b 01       	movw	r16, r22
    1d34:	01 97       	sbiw	r24, 0x01	; 1
    1d36:	51 f0       	breq	.+20     	; 0x1d4c <__static_initialization_and_destruction_0(int, int) [clone .lto_priv.0]+0x24>
L:\Programs\psp\Pandora\Arduino_v4_61/Arduino_v4_61.ino:27
#define min_volt_led 3400 // min mv alarm debug led
#define max_charge_value 900 // ? maximum charge percentage value
#define battery_capacity 1000 // battery capacity ma
#define timeToSleep 10000 // waiting time before bed

SoftwareSerialParity pspSerial(pin_pspSerial_rx, pin_pspSerial_tx); // RX, TX
    1d38:	cd 2b       	or	r28, r29
    1d3a:	19 f4       	brne	.+6      	; 0x1d42 <__static_initialization_and_destruction_0(int, int) [clone .lto_priv.0]+0x1a>
    1d3c:	0f 3f       	cpi	r16, 0xFF	; 255
    1d3e:	1f 4f       	sbci	r17, 0xFF	; 255
    1d40:	81 f0       	breq	.+32     	; 0x1d62 <__static_initialization_and_destruction_0(int, int) [clone .lto_priv.0]+0x3a>
L:\Programs\psp\Pandora\Arduino_v4_61/Arduino_v4_61.ino:587

  testLed();
#if enableSleep
  checkDowntime();
#endif
}
    1d42:	df 91       	pop	r29
    1d44:	cf 91       	pop	r28
    1d46:	1f 91       	pop	r17
    1d48:	0f 91       	pop	r16
    1d4a:	08 95       	ret
    1d4c:	6f 3f       	cpi	r22, 0xFF	; 255
    1d4e:	7f 4f       	sbci	r23, 0xFF	; 255
    1d50:	99 f7       	brne	.-26     	; 0x1d38 <__static_initialization_and_destruction_0(int, int) [clone .lto_priv.0]+0x10>
L:\Programs\psp\Pandora\Arduino_v4_61/Arduino_v4_61.ino:27
#define min_volt_led 3400 // min mv alarm debug led
#define max_charge_value 900 // ? maximum charge percentage value
#define battery_capacity 1000 // battery capacity ma
#define timeToSleep 10000 // waiting time before bed

SoftwareSerialParity pspSerial(pin_pspSerial_rx, pin_pspSerial_tx); // RX, TX
    1d52:	20 e0       	ldi	r18, 0x00	; 0
    1d54:	43 e0       	ldi	r20, 0x03	; 3
    1d56:	62 e0       	ldi	r22, 0x02	; 2
    1d58:	83 ee       	ldi	r24, 0xE3	; 227
    1d5a:	91 e0       	ldi	r25, 0x01	; 1
    1d5c:	0e 94 6e 07 	call	0xedc	; 0xedc <SoftwareSerialParity::SoftwareSerialParity(unsigned char, unsigned char, bool)>
    1d60:	eb cf       	rjmp	.-42     	; 0x1d38 <__static_initialization_and_destruction_0(int, int) [clone .lto_priv.0]+0x10>
    1d62:	83 ee       	ldi	r24, 0xE3	; 227
    1d64:	91 e0       	ldi	r25, 0x01	; 1
    1d66:	0e 94 be 07 	call	0xf7c	; 0xf7c <SoftwareSerialParity::~SoftwareSerialParity()>
    1d6a:	eb cf       	rjmp	.-42     	; 0x1d42 <__static_initialization_and_destruction_0(int, int) [clone .lto_priv.0]+0x1a>

00001d6c <do_aes_decrypt(unsigned char*, int, unsigned char*, unsigned char*)>:
_Z14do_aes_decryptPhiS_S_():
L:\Programs\psp\Pandora\Arduino_v4_61/Arduino_v4_61.ino:282
  aes.set_key(key, sizeKey);
  aes.encrypt(plain, cipher);
}

void do_aes_decrypt(byte* cipher, int size, byte* plain, byte* key)
{
    1d6c:	6f 92       	push	r6
    1d6e:	7f 92       	push	r7
    1d70:	8f 92       	push	r8
    1d72:	9f 92       	push	r9
    1d74:	af 92       	push	r10
    1d76:	bf 92       	push	r11
    1d78:	cf 92       	push	r12
    1d7a:	df 92       	push	r13
    1d7c:	ef 92       	push	r14
    1d7e:	ff 92       	push	r15
    1d80:	0f 93       	push	r16
    1d82:	1f 93       	push	r17
    1d84:	cf 93       	push	r28
    1d86:	df 93       	push	r29
    1d88:	cd b7       	in	r28, 0x3d	; 61
    1d8a:	de b7       	in	r29, 0x3e	; 62
    1d8c:	c6 51       	subi	r28, 0x16	; 22
    1d8e:	d1 40       	sbci	r29, 0x01	; 1
    1d90:	0f b6       	in	r0, 0x3f	; 63
    1d92:	f8 94       	cli
    1d94:	de bf       	out	0x3e, r29	; 62
    1d96:	0f be       	out	0x3f, r0	; 63
    1d98:	cd bf       	out	0x3d, r28	; 61
    1d9a:	5c 01       	movw	r10, r24
    1d9c:	4b 01       	movw	r8, r22
    1d9e:	3a 01       	movw	r6, r20
    1da0:	89 01       	movw	r16, r18
L:\Programs\psp\Pandora\Arduino_v4_61/Arduino_v4_61.ino:283
  AES aes;
    1da2:	ce 01       	movw	r24, r28
    1da4:	01 96       	adiw	r24, 0x01	; 1
    1da6:	0e 94 47 09 	call	0x128e	; 0x128e <AES::AES()>
L:\Programs\psp\Pandora\Arduino_v4_61/Arduino_v4_61.ino:284
  byte dec_iv_B[16] = {0};
    1daa:	6e 01       	movw	r12, r28
    1dac:	89 ef       	ldi	r24, 0xF9	; 249
    1dae:	c8 1a       	sub	r12, r24
    1db0:	8e ef       	ldi	r24, 0xFE	; 254
    1db2:	d8 0a       	sbc	r13, r24
    1db4:	80 e1       	ldi	r24, 0x10	; 16
    1db6:	f6 01       	movw	r30, r12
    1db8:	11 92       	st	Z+, r1
    1dba:	8a 95       	dec	r24
    1dbc:	e9 f7       	brne	.-6      	; 0x1db8 <do_aes_decrypt(unsigned char*, int, unsigned char*, unsigned char*)+0x4c>
L:\Programs\psp\Pandora\Arduino_v4_61/Arduino_v4_61.ino:286

  aes.set_key(key, 16);
    1dbe:	40 e1       	ldi	r20, 0x10	; 16
    1dc0:	50 e0       	ldi	r21, 0x00	; 0
    1dc2:	b8 01       	movw	r22, r16
    1dc4:	ce 01       	movw	r24, r28
    1dc6:	01 96       	adiw	r24, 0x01	; 1
    1dc8:	0e 94 0c 0c 	call	0x1818	; 0x1818 <AES::set_key(unsigned char const*, unsigned int)>
L:\Programs\psp\Pandora\Arduino_v4_61/Arduino_v4_61.ino:287
  aes.do_aes_decrypt(cipher, size, plain, key, 128, dec_iv_B);
    1dcc:	68 94       	set
    1dce:	ee 24       	eor	r14, r14
    1dd0:	e7 f8       	bld	r14, 7
    1dd2:	f1 2c       	mov	r15, r1
    1dd4:	93 01       	movw	r18, r6
    1dd6:	a4 01       	movw	r20, r8
    1dd8:	b5 01       	movw	r22, r10
    1dda:	ce 01       	movw	r24, r28
    1ddc:	01 96       	adiw	r24, 0x01	; 1
    1dde:	0e 94 ed 0c 	call	0x19da	; 0x19da <AES::do_aes_decrypt(unsigned char const*, int, unsigned char*, unsigned char const*, int, unsigned char*)>
L:\Programs\psp\Pandora\Arduino_v4_61/Arduino_v4_61.ino:288
}
    1de2:	ca 5e       	subi	r28, 0xEA	; 234
    1de4:	de 4f       	sbci	r29, 0xFE	; 254
    1de6:	0f b6       	in	r0, 0x3f	; 63
    1de8:	f8 94       	cli
    1dea:	de bf       	out	0x3e, r29	; 62
    1dec:	0f be       	out	0x3f, r0	; 63
    1dee:	cd bf       	out	0x3d, r28	; 61
    1df0:	df 91       	pop	r29
    1df2:	cf 91       	pop	r28
    1df4:	1f 91       	pop	r17
    1df6:	0f 91       	pop	r16
    1df8:	ff 90       	pop	r15
    1dfa:	ef 90       	pop	r14
    1dfc:	df 90       	pop	r13
    1dfe:	cf 90       	pop	r12
    1e00:	bf 90       	pop	r11
    1e02:	af 90       	pop	r10
    1e04:	9f 90       	pop	r9
    1e06:	8f 90       	pop	r8
    1e08:	7f 90       	pop	r7
    1e0a:	6f 90       	pop	r6
    1e0c:	08 95       	ret

00001e0e <ecb_encrypt(unsigned char*, unsigned char*, unsigned char*, int)>:
_Z11ecb_encryptPhS_S_i():
L:\Programs\psp\Pandora\Arduino_v4_61/Arduino_v4_61.ino:274

  memcpy(data, temp, length);
}

void ecb_encrypt(byte* plain, byte* cipher, byte* key, int sizeKey)
{
    1e0e:	af 92       	push	r10
    1e10:	bf 92       	push	r11
    1e12:	cf 92       	push	r12
    1e14:	df 92       	push	r13
    1e16:	ef 92       	push	r14
    1e18:	ff 92       	push	r15
    1e1a:	0f 93       	push	r16
    1e1c:	1f 93       	push	r17
    1e1e:	cf 93       	push	r28
    1e20:	df 93       	push	r29
    1e22:	cd b7       	in	r28, 0x3d	; 61
    1e24:	de b7       	in	r29, 0x3e	; 62
    1e26:	c6 50       	subi	r28, 0x06	; 6
    1e28:	d1 40       	sbci	r29, 0x01	; 1
    1e2a:	0f b6       	in	r0, 0x3f	; 63
    1e2c:	f8 94       	cli
    1e2e:	de bf       	out	0x3e, r29	; 62
    1e30:	0f be       	out	0x3f, r0	; 63
    1e32:	cd bf       	out	0x3d, r28	; 61
    1e34:	8c 01       	movw	r16, r24
    1e36:	7b 01       	movw	r14, r22
    1e38:	6a 01       	movw	r12, r20
    1e3a:	59 01       	movw	r10, r18
L:\Programs\psp\Pandora\Arduino_v4_61/Arduino_v4_61.ino:275
  AES aes;
    1e3c:	ce 01       	movw	r24, r28
    1e3e:	01 96       	adiw	r24, 0x01	; 1
    1e40:	0e 94 47 09 	call	0x128e	; 0x128e <AES::AES()>
L:\Programs\psp\Pandora\Arduino_v4_61/Arduino_v4_61.ino:277

  aes.set_key(key, sizeKey);
    1e44:	a5 01       	movw	r20, r10
    1e46:	b6 01       	movw	r22, r12
    1e48:	ce 01       	movw	r24, r28
    1e4a:	01 96       	adiw	r24, 0x01	; 1
    1e4c:	0e 94 0c 0c 	call	0x1818	; 0x1818 <AES::set_key(unsigned char const*, unsigned int)>
L:\Programs\psp\Pandora\Arduino_v4_61/Arduino_v4_61.ino:278
  aes.encrypt(plain, cipher);
    1e50:	a7 01       	movw	r20, r14
    1e52:	b8 01       	movw	r22, r16
    1e54:	ce 01       	movw	r24, r28
    1e56:	01 96       	adiw	r24, 0x01	; 1
    1e58:	0e 94 35 0e 	call	0x1c6a	; 0x1c6a <AES::encrypt(unsigned char const*, unsigned char*)>
L:\Programs\psp\Pandora\Arduino_v4_61/Arduino_v4_61.ino:279
}
    1e5c:	ca 5f       	subi	r28, 0xFA	; 250
    1e5e:	de 4f       	sbci	r29, 0xFE	; 254
    1e60:	0f b6       	in	r0, 0x3f	; 63
    1e62:	f8 94       	cli
    1e64:	de bf       	out	0x3e, r29	; 62
    1e66:	0f be       	out	0x3f, r0	; 63
    1e68:	cd bf       	out	0x3d, r28	; 61
    1e6a:	df 91       	pop	r29
    1e6c:	cf 91       	pop	r28
    1e6e:	1f 91       	pop	r17
    1e70:	0f 91       	pop	r16
    1e72:	ff 90       	pop	r15
    1e74:	ef 90       	pop	r14
    1e76:	df 90       	pop	r13
    1e78:	cf 90       	pop	r12
    1e7a:	bf 90       	pop	r11
    1e7c:	af 90       	pop	r10
    1e7e:	08 95       	ret

00001e80 <GeneratePacketChecksum(unsigned char*, unsigned char)>:
_Z22GeneratePacketChecksumPhh():
L:\Programs\psp\Pandora\Arduino_v4_61/Arduino_v4_61.ino:205
    log_byte(tempCS[0]);
  debugSerial.println();
}

unsigned char GeneratePacketChecksum(byte *inputArray, uint8_t len) 
{
    1e80:	ac 01       	movw	r20, r24
L:\Programs\psp\Pandora\Arduino_v4_61/Arduino_v4_61.ino:208
  uint8_t sum = 0;

  for (uint8_t i = 0; i < len; i++)
    1e82:	90 e0       	ldi	r25, 0x00	; 0
L:\Programs\psp\Pandora\Arduino_v4_61/Arduino_v4_61.ino:206
  debugSerial.println();
}

unsigned char GeneratePacketChecksum(byte *inputArray, uint8_t len) 
{
  uint8_t sum = 0;
    1e84:	80 e0       	ldi	r24, 0x00	; 0
L:\Programs\psp\Pandora\Arduino_v4_61/Arduino_v4_61.ino:208

  for (uint8_t i = 0; i < len; i++)
    1e86:	96 17       	cp	r25, r22
    1e88:	38 f4       	brcc	.+14     	; 0x1e98 <GeneratePacketChecksum(unsigned char*, unsigned char)+0x18>
L:\Programs\psp\Pandora\Arduino_v4_61/Arduino_v4_61.ino:209
    sum += inputArray[i];
    1e8a:	fa 01       	movw	r30, r20
    1e8c:	e9 0f       	add	r30, r25
    1e8e:	f1 1d       	adc	r31, r1
    1e90:	30 81       	ld	r19, Z
    1e92:	83 0f       	add	r24, r19
L:\Programs\psp\Pandora\Arduino_v4_61/Arduino_v4_61.ino:208

unsigned char GeneratePacketChecksum(byte *inputArray, uint8_t len) 
{
  uint8_t sum = 0;

  for (uint8_t i = 0; i < len; i++)
    1e94:	9f 5f       	subi	r25, 0xFF	; 255
    1e96:	f7 cf       	rjmp	.-18     	; 0x1e86 <GeneratePacketChecksum(unsigned char*, unsigned char)+0x6>
L:\Programs\psp\Pandora\Arduino_v4_61/Arduino_v4_61.ino:212
    sum += inputArray[i];

  return ((sum & 0xFF) ^ 0xFF);
}
    1e98:	80 95       	com	r24
    1e9a:	08 95       	ret

00001e9c <getVoltage()>:
_Z10getVoltagev():
L:\Programs\psp\Pandora\Arduino_v4_61/Arduino_v4_61.ino:127
    fallASleep();  
}
#endif

void getVoltage()
{
    1e9c:	af 92       	push	r10
    1e9e:	bf 92       	push	r11
    1ea0:	cf 92       	push	r12
    1ea2:	df 92       	push	r13
    1ea4:	ef 92       	push	r14
    1ea6:	ff 92       	push	r15
    1ea8:	0f 93       	push	r16
    1eaa:	1f 93       	push	r17
L:\Programs\psp\Pandora\Arduino_v4_61/Arduino_v4_61.ino:128
  batteryVoltage = map(analogRead(pin_power), 0, 1023, 0, max_voltage_battery_in);
    1eac:	8f e0       	ldi	r24, 0x0F	; 15
    1eae:	0e 94 d3 03 	call	0x7a6	; 0x7a6 <analogRead>
    1eb2:	bc 01       	movw	r22, r24
    1eb4:	99 0f       	add	r25, r25
    1eb6:	88 0b       	sbc	r24, r24
    1eb8:	99 0b       	sbc	r25, r25
    1eba:	1f 92       	push	r1
    1ebc:	1f 92       	push	r1
    1ebe:	21 e1       	ldi	r18, 0x11	; 17
    1ec0:	2f 93       	push	r18
    1ec2:	20 e3       	ldi	r18, 0x30	; 48
    1ec4:	2f 93       	push	r18
    1ec6:	a1 2c       	mov	r10, r1
    1ec8:	b1 2c       	mov	r11, r1
    1eca:	65 01       	movw	r12, r10
    1ecc:	ee 24       	eor	r14, r14
    1ece:	ea 94       	dec	r14
    1ed0:	13 e0       	ldi	r17, 0x03	; 3
    1ed2:	f1 2e       	mov	r15, r17
    1ed4:	00 e0       	ldi	r16, 0x00	; 0
    1ed6:	10 e0       	ldi	r17, 0x00	; 0
    1ed8:	20 e0       	ldi	r18, 0x00	; 0
    1eda:	30 e0       	ldi	r19, 0x00	; 0
    1edc:	a9 01       	movw	r20, r18
    1ede:	0e 94 34 04 	call	0x868	; 0x868 <map(long, long, long, long, long)>
    1ee2:	0f 90       	pop	r0
    1ee4:	0f 90       	pop	r0
    1ee6:	0f 90       	pop	r0
    1ee8:	0f 90       	pop	r0
    1eea:	70 93 44 01 	sts	0x0144, r23	; 0x800144 <batteryVoltage+0x1>
    1eee:	60 93 43 01 	sts	0x0143, r22	; 0x800143 <batteryVoltage>
L:\Programs\psp\Pandora\Arduino_v4_61/Arduino_v4_61.ino:129
}
    1ef2:	1f 91       	pop	r17
    1ef4:	0f 91       	pop	r16
    1ef6:	ff 90       	pop	r15
    1ef8:	ef 90       	pop	r14
    1efa:	df 90       	pop	r13
    1efc:	cf 90       	pop	r12
    1efe:	bf 90       	pop	r11
    1f00:	af 90       	pop	r10
    1f02:	08 95       	ret

00001f04 <operator delete(void*)>:
_ZdlPv():
C:\Users\Kirpich\AppData\Local\Arduino15\packages\MiniCore\hardware\avr\3.1.1\cores\MCUdude_corefiles/new.cpp:88
void * operator new[](std::size_t size, void *place) noexcept {
  return operator new(size, place);
}

[[gnu::weak]] void operator delete(void * ptr) noexcept {
  free(ptr);
    1f04:	0e 94 0e 1b 	call	0x361c	; 0x361c <free>
C:\Users\Kirpich\AppData\Local\Arduino15\packages\MiniCore\hardware\avr\3.1.1\cores\MCUdude_corefiles/new.cpp:89
}
    1f08:	08 95       	ret

00001f0a <operator delete[](void*)>:
_ZdaPv():
C:\Users\Kirpich\AppData\Local\Arduino15\packages\MiniCore\hardware\avr\3.1.1\cores\MCUdude_corefiles/new.cpp:91
[[gnu::weak]] void operator delete[](void * ptr) noexcept {
  operator delete(ptr);
    1f0a:	0e 94 82 0f 	call	0x1f04	; 0x1f04 <operator delete(void*)>
C:\Users\Kirpich\AppData\Local\Arduino15\packages\MiniCore\hardware\avr\3.1.1\cores\MCUdude_corefiles/new.cpp:92
}
    1f0e:	08 95       	ret

00001f10 <Print::printNumber(unsigned long, unsigned char)>:
_ZN5Print11printNumberEmh():
C:\Users\Kirpich\AppData\Local\Arduino15\packages\MiniCore\hardware\avr\3.1.1\cores\MCUdude_corefiles/Print.cpp:233
}

// Private Methods /////////////////////////////////////////////////////////////

size_t Print::printNumber(unsigned long n, uint8_t base)
{
    1f10:	df 92       	push	r13
    1f12:	ef 92       	push	r14
    1f14:	ff 92       	push	r15
    1f16:	0f 93       	push	r16
    1f18:	1f 93       	push	r17
    1f1a:	cf 93       	push	r28
    1f1c:	df 93       	push	r29
    1f1e:	cd b7       	in	r28, 0x3d	; 61
    1f20:	de b7       	in	r29, 0x3e	; 62
    1f22:	a1 97       	sbiw	r28, 0x21	; 33
    1f24:	0f b6       	in	r0, 0x3f	; 63
    1f26:	f8 94       	cli
    1f28:	de bf       	out	0x3e, r29	; 62
    1f2a:	0f be       	out	0x3f, r0	; 63
    1f2c:	cd bf       	out	0x3d, r28	; 61
    1f2e:	7c 01       	movw	r14, r24
    1f30:	cb 01       	movw	r24, r22
    1f32:	ba 01       	movw	r22, r20
    1f34:	d2 2e       	mov	r13, r18
C:\Users\Kirpich\AppData\Local\Arduino15\packages\MiniCore\hardware\avr\3.1.1\cores\MCUdude_corefiles/Print.cpp:237
  char buf[8 * sizeof(long) + 1]; // Assumes 8-bit chars plus zero byte.
  char *str = &buf[sizeof(buf) - 1];

  *str = '\0';
    1f36:	19 a2       	std	Y+33, r1	; 0x21
C:\Users\Kirpich\AppData\Local\Arduino15\packages\MiniCore\hardware\avr\3.1.1\cores\MCUdude_corefiles/Print.cpp:240

  // prevent crash if called with base == 1
  if (base < 2) base = 10;
    1f38:	21 e0       	ldi	r18, 0x01	; 1
    1f3a:	2d 15       	cp	r18, r13
    1f3c:	20 f4       	brcc	.+8      	; 0x1f46 <Print::printNumber(unsigned long, unsigned char)+0x36>
    1f3e:	8e 01       	movw	r16, r28
    1f40:	0f 5d       	subi	r16, 0xDF	; 223
    1f42:	1f 4f       	sbci	r17, 0xFF	; 255
    1f44:	0e c0       	rjmp	.+28     	; 0x1f62 <Print::printNumber(unsigned long, unsigned char)+0x52>
    1f46:	0f 2e       	mov	r0, r31
    1f48:	fa e0       	ldi	r31, 0x0A	; 10
    1f4a:	df 2e       	mov	r13, r31
    1f4c:	f0 2d       	mov	r31, r0
    1f4e:	f7 cf       	rjmp	.-18     	; 0x1f3e <Print::printNumber(unsigned long, unsigned char)+0x2e>
C:\Users\Kirpich\AppData\Local\Arduino15\packages\MiniCore\hardware\avr\3.1.1\cores\MCUdude_corefiles/Print.cpp:246

  do {
    char c = n % base;
    n /= base;

    *--str = c < 10 ? c + '0' : c + 'A' - 10;
    1f50:	e9 5c       	subi	r30, 0xC9	; 201
    1f52:	d8 01       	movw	r26, r16
    1f54:	ee 93       	st	-X, r30
    1f56:	8d 01       	movw	r16, r26
C:\Users\Kirpich\AppData\Local\Arduino15\packages\MiniCore\hardware\avr\3.1.1\cores\MCUdude_corefiles/Print.cpp:247
  } while(n);
    1f58:	61 15       	cp	r22, r1
    1f5a:	71 05       	cpc	r23, r1
    1f5c:	81 05       	cpc	r24, r1
    1f5e:	91 05       	cpc	r25, r1
    1f60:	79 f0       	breq	.+30     	; 0x1f80 <Print::printNumber(unsigned long, unsigned char)+0x70>
C:\Users\Kirpich\AppData\Local\Arduino15\packages\MiniCore\hardware\avr\3.1.1\cores\MCUdude_corefiles/Print.cpp:243

  // prevent crash if called with base == 1
  if (base < 2) base = 10;

  do {
    char c = n % base;
    1f62:	2d 2d       	mov	r18, r13
    1f64:	30 e0       	ldi	r19, 0x00	; 0
    1f66:	50 e0       	ldi	r21, 0x00	; 0
    1f68:	40 e0       	ldi	r20, 0x00	; 0
    1f6a:	0e 94 2b 1a 	call	0x3456	; 0x3456 <__udivmodsi4>
    1f6e:	e6 2f       	mov	r30, r22
C:\Users\Kirpich\AppData\Local\Arduino15\packages\MiniCore\hardware\avr\3.1.1\cores\MCUdude_corefiles/Print.cpp:244
    n /= base;
    1f70:	62 2f       	mov	r22, r18
    1f72:	73 2f       	mov	r23, r19
    1f74:	84 2f       	mov	r24, r20
    1f76:	95 2f       	mov	r25, r21
C:\Users\Kirpich\AppData\Local\Arduino15\packages\MiniCore\hardware\avr\3.1.1\cores\MCUdude_corefiles/Print.cpp:246

    *--str = c < 10 ? c + '0' : c + 'A' - 10;
    1f78:	ea 30       	cpi	r30, 0x0A	; 10
    1f7a:	54 f7       	brge	.-44     	; 0x1f50 <Print::printNumber(unsigned long, unsigned char)+0x40>
    1f7c:	e0 5d       	subi	r30, 0xD0	; 208
    1f7e:	e9 cf       	rjmp	.-46     	; 0x1f52 <Print::printNumber(unsigned long, unsigned char)+0x42>
write():
C:\Users\Kirpich\AppData\Local\Arduino15\packages\MiniCore\hardware\avr\3.1.1\cores\MCUdude_corefiles/Print.h:53
    int getWriteError() { return write_error; }
    void clearWriteError() { setWriteError(0); }

    virtual size_t write(uint8_t) = 0;
    size_t write(const char *str) {
      if (str == NULL) return 0;
    1f80:	10 97       	sbiw	r26, 0x00	; 0
    1f82:	f9 f0       	breq	.+62     	; 0x1fc2 <Print::printNumber(unsigned long, unsigned char)+0xb2>
C:\Users\Kirpich\AppData\Local\Arduino15\packages\MiniCore\hardware\avr\3.1.1\cores\MCUdude_corefiles/Print.h:54
      return write((const uint8_t *)str, strlen(str));
    1f84:	fd 01       	movw	r30, r26
    1f86:	01 90       	ld	r0, Z+
    1f88:	00 20       	and	r0, r0
    1f8a:	e9 f7       	brne	.-6      	; 0x1f86 <Print::printNumber(unsigned long, unsigned char)+0x76>
    1f8c:	31 97       	sbiw	r30, 0x01	; 1
    1f8e:	af 01       	movw	r20, r30
    1f90:	4a 1b       	sub	r20, r26
    1f92:	5b 0b       	sbc	r21, r27
    1f94:	d7 01       	movw	r26, r14
    1f96:	ed 91       	ld	r30, X+
    1f98:	fc 91       	ld	r31, X
    1f9a:	02 80       	ldd	r0, Z+2	; 0x02
    1f9c:	f3 81       	ldd	r31, Z+3	; 0x03
    1f9e:	e0 2d       	mov	r30, r0
    1fa0:	b8 01       	movw	r22, r16
    1fa2:	c7 01       	movw	r24, r14
    1fa4:	09 95       	icall
_ZN5Print11printNumberEmh():
C:\Users\Kirpich\AppData\Local\Arduino15\packages\MiniCore\hardware\avr\3.1.1\cores\MCUdude_corefiles/Print.cpp:250
  } while(n);

  return write(str);
}
    1fa6:	a1 96       	adiw	r28, 0x21	; 33
    1fa8:	0f b6       	in	r0, 0x3f	; 63
    1faa:	f8 94       	cli
    1fac:	de bf       	out	0x3e, r29	; 62
    1fae:	0f be       	out	0x3f, r0	; 63
    1fb0:	cd bf       	out	0x3d, r28	; 61
    1fb2:	df 91       	pop	r29
    1fb4:	cf 91       	pop	r28
    1fb6:	1f 91       	pop	r17
    1fb8:	0f 91       	pop	r16
    1fba:	ff 90       	pop	r15
    1fbc:	ef 90       	pop	r14
    1fbe:	df 90       	pop	r13
    1fc0:	08 95       	ret
C:\Users\Kirpich\AppData\Local\Arduino15\packages\MiniCore\hardware\avr\3.1.1\cores\MCUdude_corefiles/Print.h:53
    int getWriteError() { return write_error; }
    void clearWriteError() { setWriteError(0); }

    virtual size_t write(uint8_t) = 0;
    size_t write(const char *str) {
      if (str == NULL) return 0;
    1fc2:	90 e0       	ldi	r25, 0x00	; 0
    1fc4:	80 e0       	ldi	r24, 0x00	; 0
    1fc6:	ef cf       	rjmp	.-34     	; 0x1fa6 <Print::printNumber(unsigned long, unsigned char)+0x96>

00001fc8 <Print::print(unsigned long, int)>:
_ZN5Print5printEmi():
C:\Users\Kirpich\AppData\Local\Arduino15\packages\MiniCore\hardware\avr\3.1.1\cores\MCUdude_corefiles/Print.cpp:105
  }
}

size_t Print::print(unsigned long n, int base)
{
  if (base == 0) return write(n);
    1fc8:	21 15       	cp	r18, r1
    1fca:	31 05       	cpc	r19, r1
    1fcc:	49 f4       	brne	.+18     	; 0x1fe0 <Print::print(unsigned long, int)+0x18>
    1fce:	dc 01       	movw	r26, r24
    1fd0:	ed 91       	ld	r30, X+
    1fd2:	fc 91       	ld	r31, X
    1fd4:	01 90       	ld	r0, Z+
    1fd6:	f0 81       	ld	r31, Z
    1fd8:	e0 2d       	mov	r30, r0
    1fda:	64 2f       	mov	r22, r20
    1fdc:	09 95       	icall
    1fde:	08 95       	ret
C:\Users\Kirpich\AppData\Local\Arduino15\packages\MiniCore\hardware\avr\3.1.1\cores\MCUdude_corefiles/Print.cpp:106
  else return printNumber(n, base);
    1fe0:	0e 94 88 0f 	call	0x1f10	; 0x1f10 <Print::printNumber(unsigned long, unsigned char)>
C:\Users\Kirpich\AppData\Local\Arduino15\packages\MiniCore\hardware\avr\3.1.1\cores\MCUdude_corefiles/Print.cpp:107
}
    1fe4:	08 95       	ret

00001fe6 <Print::print(unsigned char, int)>:
_ZN5Print5printEhi():
C:\Users\Kirpich\AppData\Local\Arduino15\packages\MiniCore\hardware\avr\3.1.1\cores\MCUdude_corefiles/Print.cpp:73
{
  return write(c);
}

size_t Print::print(unsigned char b, int base)
{
    1fe6:	9a 01       	movw	r18, r20
C:\Users\Kirpich\AppData\Local\Arduino15\packages\MiniCore\hardware\avr\3.1.1\cores\MCUdude_corefiles/Print.cpp:74
  return print((unsigned long) b, base);
    1fe8:	46 2f       	mov	r20, r22
    1fea:	50 e0       	ldi	r21, 0x00	; 0
    1fec:	70 e0       	ldi	r23, 0x00	; 0
    1fee:	60 e0       	ldi	r22, 0x00	; 0
    1ff0:	0e 94 e4 0f 	call	0x1fc8	; 0x1fc8 <Print::print(unsigned long, int)>
C:\Users\Kirpich\AppData\Local\Arduino15\packages\MiniCore\hardware\avr\3.1.1\cores\MCUdude_corefiles/Print.cpp:75
}
    1ff4:	08 95       	ret

00001ff6 <log_byte(unsigned char)>:
_Z8log_byteh():
L:\Programs\psp\Pandora\Arduino_v4_61/Arduino_v4_61.ino:173
    //debugSerial.println(F("N"));
  }
}

void log_byte(byte b)
{
    1ff6:	cf 93       	push	r28
    1ff8:	c8 2f       	mov	r28, r24
L:\Programs\psp\Pandora\Arduino_v4_61/Arduino_v4_61.ino:174
  if (b < 0x10)
    1ffa:	80 31       	cpi	r24, 0x10	; 16
    1ffc:	78 f0       	brcs	.+30     	; 0x201c <log_byte(unsigned char)+0x26>
L:\Programs\psp\Pandora\Arduino_v4_61/Arduino_v4_61.ino:177
    debugSerial.print(F("0"));

  debugSerial.print(b, HEX);
    1ffe:	40 e1       	ldi	r20, 0x10	; 16
    2000:	50 e0       	ldi	r21, 0x00	; 0
    2002:	6c 2f       	mov	r22, r28
    2004:	88 e4       	ldi	r24, 0x48	; 72
    2006:	92 e0       	ldi	r25, 0x02	; 2
    2008:	0e 94 f3 0f 	call	0x1fe6	; 0x1fe6 <Print::print(unsigned char, int)>
L:\Programs\psp\Pandora\Arduino_v4_61/Arduino_v4_61.ino:178
  debugSerial.print(F(" "));
    200c:	6d e9       	ldi	r22, 0x9D	; 157
    200e:	72 e0       	ldi	r23, 0x02	; 2
    2010:	88 e4       	ldi	r24, 0x48	; 72
    2012:	92 e0       	ldi	r25, 0x02	; 2
    2014:	0e 94 75 04 	call	0x8ea	; 0x8ea <Print::print(__FlashStringHelper const*)>
L:\Programs\psp\Pandora\Arduino_v4_61/Arduino_v4_61.ino:181

  //debugSerial.printf("%#02X ", b);
}
    2018:	cf 91       	pop	r28
    201a:	08 95       	ret
L:\Programs\psp\Pandora\Arduino_v4_61/Arduino_v4_61.ino:175
}

void log_byte(byte b)
{
  if (b < 0x10)
    debugSerial.print(F("0"));
    201c:	6f e9       	ldi	r22, 0x9F	; 159
    201e:	72 e0       	ldi	r23, 0x02	; 2
    2020:	88 e4       	ldi	r24, 0x48	; 72
    2022:	92 e0       	ldi	r25, 0x02	; 2
    2024:	0e 94 75 04 	call	0x8ea	; 0x8ea <Print::print(__FlashStringHelper const*)>
    2028:	ea cf       	rjmp	.-44     	; 0x1ffe <log_byte(unsigned char)+0x8>

0000202a <Print::println()>:
_ZN5Print7printlnEv():
C:\Users\Kirpich\AppData\Local\Arduino15\packages\MiniCore\hardware\avr\3.1.1\cores\MCUdude_corefiles/Print.h:54
      return write((const uint8_t *)str, strlen(str));
    202a:	dc 01       	movw	r26, r24
    202c:	ed 91       	ld	r30, X+
    202e:	fc 91       	ld	r31, X
    2030:	02 80       	ldd	r0, Z+2	; 0x02
    2032:	f3 81       	ldd	r31, Z+3	; 0x03
    2034:	e0 2d       	mov	r30, r0
    2036:	42 e0       	ldi	r20, 0x02	; 2
    2038:	50 e0       	ldi	r21, 0x00	; 0
    203a:	6b e2       	ldi	r22, 0x2B	; 43
    203c:	71 e0       	ldi	r23, 0x01	; 1
    203e:	09 95       	icall
C:\Users\Kirpich\AppData\Local\Arduino15\packages\MiniCore\hardware\avr\3.1.1\cores\MCUdude_corefiles/Print.cpp:129
}

size_t Print::println(void)
{
  return write("\r\n");
}
    2040:	08 95       	ret

00002042 <Print::println(__FlashStringHelper const*)>:
_ZN5Print7printlnEPK19__FlashStringHelper():
C:\Users\Kirpich\AppData\Local\Arduino15\packages\MiniCore\hardware\avr\3.1.1\cores\MCUdude_corefiles/Print.cpp:115
{
  return printFloat(n, digits);
}

size_t Print::println(const __FlashStringHelper *ifsh)
{
    2042:	0f 93       	push	r16
    2044:	1f 93       	push	r17
    2046:	cf 93       	push	r28
    2048:	df 93       	push	r29
    204a:	ec 01       	movw	r28, r24
C:\Users\Kirpich\AppData\Local\Arduino15\packages\MiniCore\hardware\avr\3.1.1\cores\MCUdude_corefiles/Print.cpp:116
  size_t n = print(ifsh);
    204c:	0e 94 75 04 	call	0x8ea	; 0x8ea <Print::print(__FlashStringHelper const*)>
    2050:	8c 01       	movw	r16, r24
C:\Users\Kirpich\AppData\Local\Arduino15\packages\MiniCore\hardware\avr\3.1.1\cores\MCUdude_corefiles/Print.cpp:117
  n += println();
    2052:	ce 01       	movw	r24, r28
    2054:	0e 94 15 10 	call	0x202a	; 0x202a <Print::println()>
C:\Users\Kirpich\AppData\Local\Arduino15\packages\MiniCore\hardware\avr\3.1.1\cores\MCUdude_corefiles/Print.cpp:119
  return n;
}
    2058:	80 0f       	add	r24, r16
    205a:	91 1f       	adc	r25, r17
    205c:	df 91       	pop	r29
    205e:	cf 91       	pop	r28
    2060:	1f 91       	pop	r17
    2062:	0f 91       	pop	r16
    2064:	08 95       	ret

00002066 <testLed()>:
_Z7testLedv():
L:\Programs\psp\Pandora\Arduino_v4_61/Arduino_v4_61.ino:132
{
  batteryVoltage = map(analogRead(pin_power), 0, 1023, 0, max_voltage_battery_in);
}

void testLed()
{
    2066:	0f 93       	push	r16
    2068:	1f 93       	push	r17
L:\Programs\psp\Pandora\Arduino_v4_61/Arduino_v4_61.ino:134
  // Low Power
  if (batteryVoltage < min_volt_led)
    206a:	80 91 43 01 	lds	r24, 0x0143	; 0x800143 <batteryVoltage>
    206e:	90 91 44 01 	lds	r25, 0x0144	; 0x800144 <batteryVoltage+0x1>
    2072:	88 34       	cpi	r24, 0x48	; 72
    2074:	9d 40       	sbci	r25, 0x0D	; 13
    2076:	50 f0       	brcs	.+20     	; 0x208c <testLed()+0x26>
L:\Programs\psp\Pandora\Arduino_v4_61/Arduino_v4_61.ino:150

      debugSerial.println(F("LOW POWER"));
    }  
  }
  // Service mode
  else if (serial_code[3] == 0xFF)
    2078:	80 91 99 01 	lds	r24, 0x0199	; 0x800199 <serial_code+0x3>
    207c:	8f 3f       	cpi	r24, 0xFF	; 255
    207e:	c9 f1       	breq	.+114    	; 0x20f2 <testLed()+0x8c>
L:\Programs\psp\Pandora\Arduino_v4_61/Arduino_v4_61.ino:167
    }
  }
  // Normal
  else
  {
    PORTB &= ~pin_debugLed;
    2080:	85 b1       	in	r24, 0x05	; 5
    2082:	87 7f       	andi	r24, 0xF7	; 247
    2084:	85 b9       	out	0x05, r24	; 5
L:\Programs\psp\Pandora\Arduino_v4_61/Arduino_v4_61.ino:170
    //debugSerial.println(F("N"));
  }
}
    2086:	1f 91       	pop	r17
    2088:	0f 91       	pop	r16
    208a:	08 95       	ret
L:\Programs\psp\Pandora\Arduino_v4_61/Arduino_v4_61.ino:136
void testLed()
{
  // Low Power
  if (batteryVoltage < min_volt_led)
  {
    if(millis() - ledTime > led_lowPowerBlinkingInterval) 
    208c:	0e 94 27 04 	call	0x84e	; 0x84e <millis>
    2090:	00 91 2f 01 	lds	r16, 0x012F	; 0x80012f <ledTime>
    2094:	10 91 30 01 	lds	r17, 0x0130	; 0x800130 <ledTime+0x1>
    2098:	20 91 31 01 	lds	r18, 0x0131	; 0x800131 <ledTime+0x2>
    209c:	30 91 32 01 	lds	r19, 0x0132	; 0x800132 <ledTime+0x3>
    20a0:	60 1b       	sub	r22, r16
    20a2:	71 0b       	sbc	r23, r17
    20a4:	82 0b       	sbc	r24, r18
    20a6:	93 0b       	sbc	r25, r19
    20a8:	6b 3f       	cpi	r22, 0xFB	; 251
    20aa:	71 05       	cpc	r23, r1
    20ac:	81 05       	cpc	r24, r1
    20ae:	91 05       	cpc	r25, r1
    20b0:	50 f3       	brcs	.-44     	; 0x2086 <testLed()+0x20>
L:\Programs\psp\Pandora\Arduino_v4_61/Arduino_v4_61.ino:138
    {
      ledTime = millis();
    20b2:	0e 94 27 04 	call	0x84e	; 0x84e <millis>
    20b6:	60 93 2f 01 	sts	0x012F, r22	; 0x80012f <ledTime>
    20ba:	70 93 30 01 	sts	0x0130, r23	; 0x800130 <ledTime+0x1>
    20be:	80 93 31 01 	sts	0x0131, r24	; 0x800131 <ledTime+0x2>
    20c2:	90 93 32 01 	sts	0x0132, r25	; 0x800132 <ledTime+0x3>
L:\Programs\psp\Pandora\Arduino_v4_61/Arduino_v4_61.ino:139
      ledOn = !ledOn;
    20c6:	80 91 2e 01 	lds	r24, 0x012E	; 0x80012e <__data_end>
    20ca:	91 e0       	ldi	r25, 0x01	; 1
    20cc:	89 27       	eor	r24, r25
    20ce:	80 93 2e 01 	sts	0x012E, r24	; 0x80012e <__data_end>
L:\Programs\psp\Pandora\Arduino_v4_61/Arduino_v4_61.ino:141

      if(ledOn)
    20d2:	88 23       	and	r24, r24
    20d4:	51 f0       	breq	.+20     	; 0x20ea <testLed()+0x84>
L:\Programs\psp\Pandora\Arduino_v4_61/Arduino_v4_61.ino:142
        PORTB |= pin_debugLed;
    20d6:	85 b1       	in	r24, 0x05	; 5
    20d8:	88 60       	ori	r24, 0x08	; 8
    20da:	85 b9       	out	0x05, r24	; 5
L:\Programs\psp\Pandora\Arduino_v4_61/Arduino_v4_61.ino:146
      else
        PORTB &= ~pin_debugLed;

      debugSerial.println(F("LOW POWER"));
    20dc:	63 e9       	ldi	r22, 0x93	; 147
    20de:	72 e0       	ldi	r23, 0x02	; 2
    20e0:	88 e4       	ldi	r24, 0x48	; 72
    20e2:	92 e0       	ldi	r25, 0x02	; 2
    20e4:	0e 94 21 10 	call	0x2042	; 0x2042 <Print::println(__FlashStringHelper const*)>
    20e8:	ce cf       	rjmp	.-100    	; 0x2086 <testLed()+0x20>
L:\Programs\psp\Pandora\Arduino_v4_61/Arduino_v4_61.ino:144
      ledOn = !ledOn;

      if(ledOn)
        PORTB |= pin_debugLed;
      else
        PORTB &= ~pin_debugLed;
    20ea:	85 b1       	in	r24, 0x05	; 5
    20ec:	87 7f       	andi	r24, 0xF7	; 247
    20ee:	85 b9       	out	0x05, r24	; 5
    20f0:	f5 cf       	rjmp	.-22     	; 0x20dc <testLed()+0x76>
L:\Programs\psp\Pandora\Arduino_v4_61/Arduino_v4_61.ino:153
  }
  // Service mode
  else if (serial_code[3] == 0xFF)
  {
    //debugSerial.println(F("S"));
    if(millis() - ledTime > led_serviceModeBlinkingInterval)
    20f2:	0e 94 27 04 	call	0x84e	; 0x84e <millis>
    20f6:	00 91 2f 01 	lds	r16, 0x012F	; 0x80012f <ledTime>
    20fa:	10 91 30 01 	lds	r17, 0x0130	; 0x800130 <ledTime+0x1>
    20fe:	20 91 31 01 	lds	r18, 0x0131	; 0x800131 <ledTime+0x2>
    2102:	30 91 32 01 	lds	r19, 0x0132	; 0x800132 <ledTime+0x3>
    2106:	60 1b       	sub	r22, r16
    2108:	71 0b       	sbc	r23, r17
    210a:	82 0b       	sbc	r24, r18
    210c:	93 0b       	sbc	r25, r19
    210e:	69 3e       	cpi	r22, 0xE9	; 233
    2110:	73 40       	sbci	r23, 0x03	; 3
    2112:	81 05       	cpc	r24, r1
    2114:	91 05       	cpc	r25, r1
    2116:	08 f4       	brcc	.+2      	; 0x211a <testLed()+0xb4>
    2118:	b6 cf       	rjmp	.-148    	; 0x2086 <testLed()+0x20>
L:\Programs\psp\Pandora\Arduino_v4_61/Arduino_v4_61.ino:155
    {
      ledTime = millis();
    211a:	0e 94 27 04 	call	0x84e	; 0x84e <millis>
    211e:	60 93 2f 01 	sts	0x012F, r22	; 0x80012f <ledTime>
    2122:	70 93 30 01 	sts	0x0130, r23	; 0x800130 <ledTime+0x1>
    2126:	80 93 31 01 	sts	0x0131, r24	; 0x800131 <ledTime+0x2>
    212a:	90 93 32 01 	sts	0x0132, r25	; 0x800132 <ledTime+0x3>
L:\Programs\psp\Pandora\Arduino_v4_61/Arduino_v4_61.ino:156
      ledOn = !ledOn;
    212e:	80 91 2e 01 	lds	r24, 0x012E	; 0x80012e <__data_end>
    2132:	91 e0       	ldi	r25, 0x01	; 1
    2134:	89 27       	eor	r24, r25
    2136:	80 93 2e 01 	sts	0x012E, r24	; 0x80012e <__data_end>
L:\Programs\psp\Pandora\Arduino_v4_61/Arduino_v4_61.ino:158

      if(ledOn)
    213a:	88 23       	and	r24, r24
    213c:	21 f0       	breq	.+8      	; 0x2146 <testLed()+0xe0>
L:\Programs\psp\Pandora\Arduino_v4_61/Arduino_v4_61.ino:159
        PORTB |= pin_debugLed;
    213e:	85 b1       	in	r24, 0x05	; 5
    2140:	88 60       	ori	r24, 0x08	; 8
    2142:	85 b9       	out	0x05, r24	; 5
    2144:	a0 cf       	rjmp	.-192    	; 0x2086 <testLed()+0x20>
L:\Programs\psp\Pandora\Arduino_v4_61/Arduino_v4_61.ino:161
      else
        PORTB &= ~pin_debugLed;
    2146:	85 b1       	in	r24, 0x05	; 5
    2148:	87 7f       	andi	r24, 0xF7	; 247
    214a:	85 b9       	out	0x05, r24	; 5
    214c:	9c cf       	rjmp	.-200    	; 0x2086 <testLed()+0x20>

0000214e <setup>:
setup():
L:\Programs\psp\Pandora\Arduino_v4_61/Arduino_v4_61.ino:50

uint16_t batteryVoltage = 0; //mv

void setup()
{
  pspSerial.begin(19200, EVEN);
    214e:	22 e0       	ldi	r18, 0x02	; 2
    2150:	40 e0       	ldi	r20, 0x00	; 0
    2152:	5b e4       	ldi	r21, 0x4B	; 75
    2154:	60 e0       	ldi	r22, 0x00	; 0
    2156:	70 e0       	ldi	r23, 0x00	; 0
    2158:	83 ee       	ldi	r24, 0xE3	; 227
    215a:	91 e0       	ldi	r25, 0x01	; 1
    215c:	0e 94 f4 07 	call	0xfe8	; 0xfe8 <SoftwareSerialParity::begin(long, unsigned char)>
L:\Programs\psp\Pandora\Arduino_v4_61/Arduino_v4_61.ino:51
  analogReference(INTERNAL);
    2160:	83 e0       	ldi	r24, 0x03	; 3
    2162:	0e 94 f1 03 	call	0x7e2	; 0x7e2 <analogReference>
_ZN14HardwareSerial5beginEm():
C:\Users\Kirpich\AppData\Local\Arduino15\packages\MiniCore\hardware\avr\3.1.1\cores\MCUdude_corefiles/HardwareSerial.h:121
  public:
    inline HardwareSerial(
      volatile uint8_t *ubrrh, volatile uint8_t *ubrrl,
      volatile uint8_t *ucsra, volatile uint8_t *ucsrb,
      volatile uint8_t *ucsrc, volatile uint8_t *udr);
    void begin(unsigned long baud) { begin(baud, SERIAL_8N1); }
    2166:	26 e0       	ldi	r18, 0x06	; 6
    2168:	40 e0       	ldi	r20, 0x00	; 0
    216a:	52 ec       	ldi	r21, 0xC2	; 194
    216c:	61 e0       	ldi	r22, 0x01	; 1
    216e:	70 e0       	ldi	r23, 0x00	; 0
    2170:	88 e4       	ldi	r24, 0x48	; 72
    2172:	92 e0       	ldi	r25, 0x02	; 2
    2174:	0e 94 48 05 	call	0xa90	; 0xa90 <HardwareSerial::begin(unsigned long, unsigned char)>
setup():
L:\Programs\psp\Pandora\Arduino_v4_61/Arduino_v4_61.ino:57
  debugSerial.begin(115200);
#if enableSleep 
  attachInterrupt(digitalPinToInterrupt(pin_pspSerial_rx), wakeUp, LOW);
#endif

  DDRD &= ~(pin_butOk);
    2178:	8a b1       	in	r24, 0x0a	; 10
    217a:	8f 77       	andi	r24, 0x7F	; 127
    217c:	8a b9       	out	0x0a, r24	; 10
L:\Programs\psp\Pandora\Arduino_v4_61/Arduino_v4_61.ino:58
  DDRB |= (pin_debugLed);
    217e:	84 b1       	in	r24, 0x04	; 4
    2180:	88 60       	ori	r24, 0x08	; 8
    2182:	84 b9       	out	0x04, r24	; 4
L:\Programs\psp\Pandora\Arduino_v4_61/Arduino_v4_61.ino:59
  PORTB |= pin_debugLed;
    2184:	85 b1       	in	r24, 0x05	; 5
    2186:	88 60       	ori	r24, 0x08	; 8
    2188:	85 b9       	out	0x05, r24	; 5
L:\Programs\psp\Pandora\Arduino_v4_61/Arduino_v4_61.ino:61

  if (PIND & pin_butOk)
    218a:	4f 99       	sbic	0x09, 7	; 9
    218c:	15 c0       	rjmp	.+42     	; 0x21b8 <setup+0x6a>
L:\Programs\psp\Pandora\Arduino_v4_61/Arduino_v4_61.ino:77
    debugSerial.println(F("Start service"));
  }
  else
  {
    // 34 12 78 56
    serial_code[0] = 0xA5;
    218e:	e6 e9       	ldi	r30, 0x96	; 150
    2190:	f1 e0       	ldi	r31, 0x01	; 1
    2192:	85 ea       	ldi	r24, 0xA5	; 165
    2194:	80 83       	st	Z, r24
L:\Programs\psp\Pandora\Arduino_v4_61/Arduino_v4_61.ino:78
    serial_code[1] = 0x06;
    2196:	86 e0       	ldi	r24, 0x06	; 6
    2198:	81 83       	std	Z+1, r24	; 0x01
L:\Programs\psp\Pandora\Arduino_v4_61/Arduino_v4_61.ino:79
    serial_code[2] = 0x06;
    219a:	82 83       	std	Z+2, r24	; 0x02
L:\Programs\psp\Pandora\Arduino_v4_61/Arduino_v4_61.ino:80
    serial_code[3] = 0x56;
    219c:	86 e5       	ldi	r24, 0x56	; 86
    219e:	83 83       	std	Z+3, r24	; 0x03
L:\Programs\psp\Pandora\Arduino_v4_61/Arduino_v4_61.ino:81
    serial_code[4] = 0x00;
    21a0:	14 82       	std	Z+4, r1	; 0x04
L:\Programs\psp\Pandora\Arduino_v4_61/Arduino_v4_61.ino:82
    serial_code[5] = 0x00;
    21a2:	15 82       	std	Z+5, r1	; 0x05
L:\Programs\psp\Pandora\Arduino_v4_61/Arduino_v4_61.ino:83
    serial_code[6] = 0x00;
    21a4:	16 82       	std	Z+6, r1	; 0x06
L:\Programs\psp\Pandora\Arduino_v4_61/Arduino_v4_61.ino:84
    serial_code[7] = 0x4E;
    21a6:	8e e4       	ldi	r24, 0x4E	; 78
    21a8:	87 83       	std	Z+7, r24	; 0x07
L:\Programs\psp\Pandora\Arduino_v4_61/Arduino_v4_61.ino:86

    debugSerial.println(F("Start normal"));
    21aa:	68 e7       	ldi	r22, 0x78	; 120
    21ac:	72 e0       	ldi	r23, 0x02	; 2
    21ae:	88 e4       	ldi	r24, 0x48	; 72
    21b0:	92 e0       	ldi	r25, 0x02	; 2
    21b2:	0e 94 21 10 	call	0x2042	; 0x2042 <Print::println(__FlashStringHelper const*)>
L:\Programs\psp\Pandora\Arduino_v4_61/Arduino_v4_61.ino:88
  }
}
    21b6:	08 95       	ret
L:\Programs\psp\Pandora\Arduino_v4_61/Arduino_v4_61.ino:63
  DDRB |= (pin_debugLed);
  PORTB |= pin_debugLed;

  if (PIND & pin_butOk)
  {
    serial_code[0] = 0xA5;
    21b8:	e6 e9       	ldi	r30, 0x96	; 150
    21ba:	f1 e0       	ldi	r31, 0x01	; 1
    21bc:	85 ea       	ldi	r24, 0xA5	; 165
    21be:	80 83       	st	Z, r24
L:\Programs\psp\Pandora\Arduino_v4_61/Arduino_v4_61.ino:64
    serial_code[1] = 0x06;
    21c0:	86 e0       	ldi	r24, 0x06	; 6
    21c2:	81 83       	std	Z+1, r24	; 0x01
L:\Programs\psp\Pandora\Arduino_v4_61/Arduino_v4_61.ino:65
    serial_code[2] = 0x06;
    21c4:	82 83       	std	Z+2, r24	; 0x02
L:\Programs\psp\Pandora\Arduino_v4_61/Arduino_v4_61.ino:66
    serial_code[3] = 0xFF;
    21c6:	8f ef       	ldi	r24, 0xFF	; 255
    21c8:	83 83       	std	Z+3, r24	; 0x03
L:\Programs\psp\Pandora\Arduino_v4_61/Arduino_v4_61.ino:67
    serial_code[4] = 0xFF;
    21ca:	84 83       	std	Z+4, r24	; 0x04
L:\Programs\psp\Pandora\Arduino_v4_61/Arduino_v4_61.ino:68
    serial_code[5] = 0xFF;
    21cc:	85 83       	std	Z+5, r24	; 0x05
L:\Programs\psp\Pandora\Arduino_v4_61/Arduino_v4_61.ino:69
    serial_code[6] = 0xFF;
    21ce:	86 83       	std	Z+6, r24	; 0x06
L:\Programs\psp\Pandora\Arduino_v4_61/Arduino_v4_61.ino:70
    serial_code[7] = 0x52;
    21d0:	82 e5       	ldi	r24, 0x52	; 82
    21d2:	87 83       	std	Z+7, r24	; 0x07
L:\Programs\psp\Pandora\Arduino_v4_61/Arduino_v4_61.ino:72

    debugSerial.println(F("Start service"));
    21d4:	65 e8       	ldi	r22, 0x85	; 133
    21d6:	72 e0       	ldi	r23, 0x02	; 2
    21d8:	88 e4       	ldi	r24, 0x48	; 72
    21da:	92 e0       	ldi	r25, 0x02	; 2
    21dc:	0e 94 21 10 	call	0x2042	; 0x2042 <Print::println(__FlashStringHelper const*)>
    21e0:	08 95       	ret

000021e2 <psp_write(unsigned char*, unsigned char, bool)>:
_Z9psp_writePhhb():
L:\Programs\psp\Pandora\Arduino_v4_61/Arduino_v4_61.ino:184

  //debugSerial.printf("%#02X ", b);
}

void psp_write(byte *b, uint8_t len, bool generateChecksum)
{
    21e2:	df 92       	push	r13
    21e4:	ef 92       	push	r14
    21e6:	ff 92       	push	r15
    21e8:	0f 93       	push	r16
    21ea:	1f 93       	push	r17
    21ec:	cf 93       	push	r28
    21ee:	df 93       	push	r29
    21f0:	1f 92       	push	r1
    21f2:	cd b7       	in	r28, 0x3d	; 61
    21f4:	de b7       	in	r29, 0x3e	; 62
    21f6:	7c 01       	movw	r14, r24
    21f8:	06 2f       	mov	r16, r22
    21fa:	d4 2e       	mov	r13, r20
L:\Programs\psp\Pandora\Arduino_v4_61/Arduino_v4_61.ino:185
  byte tempCS[1] = {0};
    21fc:	19 82       	std	Y+1, r1	; 0x01
L:\Programs\psp\Pandora\Arduino_v4_61/Arduino_v4_61.ino:187

  pspSerial.write(b, len);
    21fe:	e0 91 e3 01 	lds	r30, 0x01E3	; 0x8001e3 <pspSerial>
    2202:	f0 91 e4 01 	lds	r31, 0x01E4	; 0x8001e4 <pspSerial+0x1>
    2206:	02 80       	ldd	r0, Z+2	; 0x02
    2208:	f3 81       	ldd	r31, Z+3	; 0x03
    220a:	e0 2d       	mov	r30, r0
    220c:	46 2f       	mov	r20, r22
    220e:	50 e0       	ldi	r21, 0x00	; 0
    2210:	bc 01       	movw	r22, r24
    2212:	83 ee       	ldi	r24, 0xE3	; 227
    2214:	91 e0       	ldi	r25, 0x01	; 1
    2216:	09 95       	icall
L:\Programs\psp\Pandora\Arduino_v4_61/Arduino_v4_61.ino:189

  if (generateChecksum)
    2218:	dd 20       	and	r13, r13
    221a:	a1 f0       	breq	.+40     	; 0x2244 <psp_write(unsigned char*, unsigned char, bool)+0x62>
L:\Programs\psp\Pandora\Arduino_v4_61/Arduino_v4_61.ino:191
  {
    tempCS[0] = GeneratePacketChecksum(b, len);
    221c:	60 2f       	mov	r22, r16
    221e:	c7 01       	movw	r24, r14
    2220:	0e 94 40 0f 	call	0x1e80	; 0x1e80 <GeneratePacketChecksum(unsigned char*, unsigned char)>
    2224:	89 83       	std	Y+1, r24	; 0x01
L:\Programs\psp\Pandora\Arduino_v4_61/Arduino_v4_61.ino:192
    pspSerial.write(tempCS, 1);
    2226:	e0 91 e3 01 	lds	r30, 0x01E3	; 0x8001e3 <pspSerial>
    222a:	f0 91 e4 01 	lds	r31, 0x01E4	; 0x8001e4 <pspSerial+0x1>
    222e:	02 80       	ldd	r0, Z+2	; 0x02
    2230:	f3 81       	ldd	r31, Z+3	; 0x03
    2232:	e0 2d       	mov	r30, r0
    2234:	41 e0       	ldi	r20, 0x01	; 1
    2236:	50 e0       	ldi	r21, 0x00	; 0
    2238:	be 01       	movw	r22, r28
    223a:	6f 5f       	subi	r22, 0xFF	; 255
    223c:	7f 4f       	sbci	r23, 0xFF	; 255
    223e:	83 ee       	ldi	r24, 0xE3	; 227
    2240:	91 e0       	ldi	r25, 0x01	; 1
    2242:	09 95       	icall
L:\Programs\psp\Pandora\Arduino_v4_61/Arduino_v4_61.ino:196
  }

  // log
  debugSerial.print(F("Arduino: "));
    2244:	61 ea       	ldi	r22, 0xA1	; 161
    2246:	72 e0       	ldi	r23, 0x02	; 2
    2248:	88 e4       	ldi	r24, 0x48	; 72
    224a:	92 e0       	ldi	r25, 0x02	; 2
    224c:	0e 94 75 04 	call	0x8ea	; 0x8ea <Print::print(__FlashStringHelper const*)>
L:\Programs\psp\Pandora\Arduino_v4_61/Arduino_v4_61.ino:197
  for (uint8_t i = 0; i < len; i++)
    2250:	10 e0       	ldi	r17, 0x00	; 0
    2252:	10 17       	cp	r17, r16
    2254:	40 f4       	brcc	.+16     	; 0x2266 <psp_write(unsigned char*, unsigned char, bool)+0x84>
L:\Programs\psp\Pandora\Arduino_v4_61/Arduino_v4_61.ino:198
    log_byte(b[i]);
    2256:	f7 01       	movw	r30, r14
    2258:	e1 0f       	add	r30, r17
    225a:	f1 1d       	adc	r31, r1
    225c:	80 81       	ld	r24, Z
    225e:	0e 94 fb 0f 	call	0x1ff6	; 0x1ff6 <log_byte(unsigned char)>
L:\Programs\psp\Pandora\Arduino_v4_61/Arduino_v4_61.ino:197
    pspSerial.write(tempCS, 1);
  }

  // log
  debugSerial.print(F("Arduino: "));
  for (uint8_t i = 0; i < len; i++)
    2262:	1f 5f       	subi	r17, 0xFF	; 255
    2264:	f6 cf       	rjmp	.-20     	; 0x2252 <psp_write(unsigned char*, unsigned char, bool)+0x70>
L:\Programs\psp\Pandora\Arduino_v4_61/Arduino_v4_61.ino:199
    log_byte(b[i]);
  if (generateChecksum)
    2266:	d1 10       	cpse	r13, r1
    2268:	0d c0       	rjmp	.+26     	; 0x2284 <psp_write(unsigned char*, unsigned char, bool)+0xa2>
L:\Programs\psp\Pandora\Arduino_v4_61/Arduino_v4_61.ino:201
    log_byte(tempCS[0]);
  debugSerial.println();
    226a:	88 e4       	ldi	r24, 0x48	; 72
    226c:	92 e0       	ldi	r25, 0x02	; 2
    226e:	0e 94 15 10 	call	0x202a	; 0x202a <Print::println()>
L:\Programs\psp\Pandora\Arduino_v4_61/Arduino_v4_61.ino:202
}
    2272:	0f 90       	pop	r0
    2274:	df 91       	pop	r29
    2276:	cf 91       	pop	r28
    2278:	1f 91       	pop	r17
    227a:	0f 91       	pop	r16
    227c:	ff 90       	pop	r15
    227e:	ef 90       	pop	r14
    2280:	df 90       	pop	r13
    2282:	08 95       	ret
L:\Programs\psp\Pandora\Arduino_v4_61/Arduino_v4_61.ino:200
  // log
  debugSerial.print(F("Arduino: "));
  for (uint8_t i = 0; i < len; i++)
    log_byte(b[i]);
  if (generateChecksum)
    log_byte(tempCS[0]);
    2284:	89 81       	ldd	r24, Y+1	; 0x01
    2286:	0e 94 fb 0f 	call	0x1ff6	; 0x1ff6 <log_byte(unsigned char)>
    228a:	ef cf       	rjmp	.-34     	; 0x226a <psp_write(unsigned char*, unsigned char, bool)+0x88>

0000228c <sendRequiredCurrent()>:
_Z19sendRequiredCurrentv():
L:\Programs\psp\Pandora\Arduino_v4_61/Arduino_v4_61.ino:352

void sendRequiredCurrent()
{
  //unsigned short c = map(batteryVoltage, 0, max_voltage_charging_battery, 65535, 0);

  memcpy_P(tempBuffer, answer_04, 5);
    228c:	45 e0       	ldi	r20, 0x05	; 5
    228e:	50 e0       	ldi	r21, 0x00	; 0
    2290:	64 ec       	ldi	r22, 0xC4	; 196
    2292:	72 e0       	ldi	r23, 0x02	; 2
    2294:	86 e5       	ldi	r24, 0x56	; 86
    2296:	91 e0       	ldi	r25, 0x01	; 1
    2298:	0e 94 f8 19 	call	0x33f0	; 0x33f0 <memcpy_P>
L:\Programs\psp\Pandora\Arduino_v4_61/Arduino_v4_61.ino:356
  //tempBuffer[4] = (c >> 8) & 0xFF; //  
  //tempBuffer[3] = c & 0xFF;        //  

  psp_write(tempBuffer, 5, true);
    229c:	41 e0       	ldi	r20, 0x01	; 1
    229e:	65 e0       	ldi	r22, 0x05	; 5
    22a0:	86 e5       	ldi	r24, 0x56	; 86
    22a2:	91 e0       	ldi	r25, 0x01	; 1
    22a4:	0e 94 f1 10 	call	0x21e2	; 0x21e2 <psp_write(unsigned char*, unsigned char, bool)>
L:\Programs\psp\Pandora\Arduino_v4_61/Arduino_v4_61.ino:357
}
    22a8:	08 95       	ret

000022aa <sendCharge()>:
_Z10sendChargev():
L:\Programs\psp\Pandora\Arduino_v4_61/Arduino_v4_61.ino:338

  psp_write(tempBuffer, 5, true);
}

void sendCharge()
{
    22aa:	af 92       	push	r10
    22ac:	bf 92       	push	r11
    22ae:	cf 92       	push	r12
    22b0:	df 92       	push	r13
    22b2:	ef 92       	push	r14
    22b4:	ff 92       	push	r15
    22b6:	0f 93       	push	r16
    22b8:	1f 93       	push	r17
    22ba:	cf 93       	push	r28
    22bc:	df 93       	push	r29
L:\Programs\psp\Pandora\Arduino_v4_61/Arduino_v4_61.ino:339
  uint16_t charge = map(batteryVoltage, min_voltage_charging_battery, max_voltage_charging_battery, 0, max_charge_value);
    22be:	60 91 43 01 	lds	r22, 0x0143	; 0x800143 <batteryVoltage>
    22c2:	70 91 44 01 	lds	r23, 0x0144	; 0x800144 <batteryVoltage+0x1>
    22c6:	90 e0       	ldi	r25, 0x00	; 0
    22c8:	80 e0       	ldi	r24, 0x00	; 0
    22ca:	1f 92       	push	r1
    22cc:	1f 92       	push	r1
    22ce:	23 e0       	ldi	r18, 0x03	; 3
    22d0:	2f 93       	push	r18
    22d2:	24 e8       	ldi	r18, 0x84	; 132
    22d4:	2f 93       	push	r18
    22d6:	a1 2c       	mov	r10, r1
    22d8:	b1 2c       	mov	r11, r1
    22da:	65 01       	movw	r12, r10
    22dc:	16 e3       	ldi	r17, 0x36	; 54
    22de:	e1 2e       	mov	r14, r17
    22e0:	10 e1       	ldi	r17, 0x10	; 16
    22e2:	f1 2e       	mov	r15, r17
    22e4:	00 e0       	ldi	r16, 0x00	; 0
    22e6:	10 e0       	ldi	r17, 0x00	; 0
    22e8:	2c e1       	ldi	r18, 0x1C	; 28
    22ea:	3c e0       	ldi	r19, 0x0C	; 12
    22ec:	40 e0       	ldi	r20, 0x00	; 0
    22ee:	50 e0       	ldi	r21, 0x00	; 0
    22f0:	0e 94 34 04 	call	0x868	; 0x868 <map(long, long, long, long, long)>
    22f4:	0f 90       	pop	r0
    22f6:	0f 90       	pop	r0
    22f8:	0f 90       	pop	r0
    22fa:	0f 90       	pop	r0
    22fc:	c6 2f       	mov	r28, r22
    22fe:	d7 2f       	mov	r29, r23
L:\Programs\psp\Pandora\Arduino_v4_61/Arduino_v4_61.ino:341

  memcpy_P(tempBuffer, answer_01, 6);  
    2300:	46 e0       	ldi	r20, 0x06	; 6
    2302:	50 e0       	ldi	r21, 0x00	; 0
    2304:	6e eb       	ldi	r22, 0xBE	; 190
    2306:	72 e0       	ldi	r23, 0x02	; 2
    2308:	86 e5       	ldi	r24, 0x56	; 86
    230a:	91 e0       	ldi	r25, 0x01	; 1
    230c:	0e 94 f8 19 	call	0x33f0	; 0x33f0 <memcpy_P>
L:\Programs\psp\Pandora\Arduino_v4_61/Arduino_v4_61.ino:342
  tempBuffer[5] = (charge >> 8) & 0xFF; //  
    2310:	e6 e5       	ldi	r30, 0x56	; 86
    2312:	f1 e0       	ldi	r31, 0x01	; 1
    2314:	d5 83       	std	Z+5, r29	; 0x05
L:\Programs\psp\Pandora\Arduino_v4_61/Arduino_v4_61.ino:343
  tempBuffer[4] = charge & 0xFF;        //  
    2316:	c4 83       	std	Z+4, r28	; 0x04
L:\Programs\psp\Pandora\Arduino_v4_61/Arduino_v4_61.ino:345

  psp_write(tempBuffer, 6, true);
    2318:	41 e0       	ldi	r20, 0x01	; 1
    231a:	66 e0       	ldi	r22, 0x06	; 6
    231c:	cf 01       	movw	r24, r30
    231e:	0e 94 f1 10 	call	0x21e2	; 0x21e2 <psp_write(unsigned char*, unsigned char, bool)>
L:\Programs\psp\Pandora\Arduino_v4_61/Arduino_v4_61.ino:346
}
    2322:	df 91       	pop	r29
    2324:	cf 91       	pop	r28
    2326:	1f 91       	pop	r17
    2328:	0f 91       	pop	r16
    232a:	ff 90       	pop	r15
    232c:	ef 90       	pop	r14
    232e:	df 90       	pop	r13
    2330:	cf 90       	pop	r12
    2332:	bf 90       	pop	r11
    2334:	af 90       	pop	r10
    2336:	08 95       	ret

00002338 <sendVoltage()>:
_Z11sendVoltagev():
L:\Programs\psp\Pandora\Arduino_v4_61/Arduino_v4_61.ino:329
  memcpy(tempBuffer + 3 + 8, challenge1b, 8);
}

void sendVoltage()
{
  memcpy_P(tempBuffer, answer_03, 5);
    2338:	45 e0       	ldi	r20, 0x05	; 5
    233a:	50 e0       	ldi	r21, 0x00	; 0
    233c:	69 eb       	ldi	r22, 0xB9	; 185
    233e:	72 e0       	ldi	r23, 0x02	; 2
    2340:	86 e5       	ldi	r24, 0x56	; 86
    2342:	91 e0       	ldi	r25, 0x01	; 1
    2344:	0e 94 f8 19 	call	0x33f0	; 0x33f0 <memcpy_P>
L:\Programs\psp\Pandora\Arduino_v4_61/Arduino_v4_61.ino:331

  tempBuffer[4] = (batteryVoltage >> 8) & 0xFF; //  
    2348:	80 91 43 01 	lds	r24, 0x0143	; 0x800143 <batteryVoltage>
    234c:	90 91 44 01 	lds	r25, 0x0144	; 0x800144 <batteryVoltage+0x1>
    2350:	e6 e5       	ldi	r30, 0x56	; 86
    2352:	f1 e0       	ldi	r31, 0x01	; 1
    2354:	94 83       	std	Z+4, r25	; 0x04
L:\Programs\psp\Pandora\Arduino_v4_61/Arduino_v4_61.ino:332
  tempBuffer[3] = batteryVoltage & 0xFF;        //  
    2356:	83 83       	std	Z+3, r24	; 0x03
L:\Programs\psp\Pandora\Arduino_v4_61/Arduino_v4_61.ino:334

  psp_write(tempBuffer, 5, true);
    2358:	41 e0       	ldi	r20, 0x01	; 1
    235a:	65 e0       	ldi	r22, 0x05	; 5
    235c:	cf 01       	movw	r24, r30
    235e:	0e 94 f1 10 	call	0x21e2	; 0x21e2 <psp_write(unsigned char*, unsigned char, bool)>
L:\Programs\psp\Pandora\Arduino_v4_61/Arduino_v4_61.ino:335
}
    2362:	08 95       	ret

00002364 <get_challenge2_secret(unsigned char*, unsigned char)>:
_Z21get_challenge2_secretPhh():
L:\Programs\psp\Pandora\Arduino_v4_61/keys.h:202
  }
}

void get_challenge2_secret(byte *buffer, byte version)
{
  switch (version)
    2364:	68 30       	cpi	r22, 0x08	; 8
    2366:	09 f4       	brne	.+2      	; 0x236a <get_challenge2_secret(unsigned char*, unsigned char)+0x6>
    2368:	5f c0       	rjmp	.+190    	; 0x2428 <get_challenge2_secret(unsigned char*, unsigned char)+0xc4>
    236a:	d8 f4       	brcc	.+54     	; 0x23a2 <get_challenge2_secret(unsigned char*, unsigned char)+0x3e>
    236c:	63 30       	cpi	r22, 0x03	; 3
    236e:	09 f4       	brne	.+2      	; 0x2372 <get_challenge2_secret(unsigned char*, unsigned char)+0xe>
    2370:	46 c0       	rjmp	.+140    	; 0x23fe <get_challenge2_secret(unsigned char*, unsigned char)+0x9a>
    2372:	50 f4       	brcc	.+20     	; 0x2388 <get_challenge2_secret(unsigned char*, unsigned char)+0x24>
    2374:	61 30       	cpi	r22, 0x01	; 1
    2376:	a9 f1       	breq	.+106    	; 0x23e2 <get_challenge2_secret(unsigned char*, unsigned char)+0x7e>
    2378:	d8 f5       	brcc	.+118    	; 0x23f0 <get_challenge2_secret(unsigned char*, unsigned char)+0x8c>
L:\Programs\psp\Pandora\Arduino_v4_61/keys.h:205
  {
    case 0:
      memcpy_P(buffer, challenge2_secret[0], 8);
    237a:	48 e0       	ldi	r20, 0x08	; 8
    237c:	50 e0       	ldi	r21, 0x00	; 0
    237e:	60 e0       	ldi	r22, 0x00	; 0
    2380:	72 e0       	ldi	r23, 0x02	; 2
    2382:	0e 94 f8 19 	call	0x33f0	; 0x33f0 <memcpy_P>
    2386:	08 95       	ret
L:\Programs\psp\Pandora\Arduino_v4_61/keys.h:202
  }
}

void get_challenge2_secret(byte *buffer, byte version)
{
  switch (version)
    2388:	65 30       	cpi	r22, 0x05	; 5
    238a:	09 f4       	brne	.+2      	; 0x238e <get_challenge2_secret(unsigned char*, unsigned char)+0x2a>
    238c:	46 c0       	rjmp	.+140    	; 0x241a <get_challenge2_secret(unsigned char*, unsigned char)+0xb6>
    238e:	f0 f1       	brcs	.+124    	; 0x240c <get_challenge2_secret(unsigned char*, unsigned char)+0xa8>
    2390:	66 30       	cpi	r22, 0x06	; 6
    2392:	99 f4       	brne	.+38     	; 0x23ba <get_challenge2_secret(unsigned char*, unsigned char)+0x56>
L:\Programs\psp\Pandora\Arduino_v4_61/keys.h:223
      break;
    case 5:
      memcpy_P(buffer, challenge2_secret[5], 8);
      break;
    case 6:
      memcpy_P(buffer, challenge2_secret[6], 8);
    2394:	48 e0       	ldi	r20, 0x08	; 8
    2396:	50 e0       	ldi	r21, 0x00	; 0
    2398:	60 e3       	ldi	r22, 0x30	; 48
    239a:	72 e0       	ldi	r23, 0x02	; 2
    239c:	0e 94 f8 19 	call	0x33f0	; 0x33f0 <memcpy_P>
    23a0:	08 95       	ret
L:\Programs\psp\Pandora\Arduino_v4_61/keys.h:202
  }
}

void get_challenge2_secret(byte *buffer, byte version)
{
  switch (version)
    23a2:	67 39       	cpi	r22, 0x97	; 151
    23a4:	09 f4       	brne	.+2      	; 0x23a8 <get_challenge2_secret(unsigned char*, unsigned char)+0x44>
    23a6:	5c c0       	rjmp	.+184    	; 0x2460 <get_challenge2_secret(unsigned char*, unsigned char)+0xfc>
    23a8:	68 f4       	brcc	.+26     	; 0x23c4 <get_challenge2_secret(unsigned char*, unsigned char)+0x60>
    23aa:	6d 30       	cpi	r22, 0x0D	; 13
    23ac:	09 f4       	brne	.+2      	; 0x23b0 <get_challenge2_secret(unsigned char*, unsigned char)+0x4c>
    23ae:	4a c0       	rjmp	.+148    	; 0x2444 <get_challenge2_secret(unsigned char*, unsigned char)+0xe0>
    23b0:	6f 32       	cpi	r22, 0x2F	; 47
    23b2:	09 f4       	brne	.+2      	; 0x23b6 <get_challenge2_secret(unsigned char*, unsigned char)+0x52>
    23b4:	4e c0       	rjmp	.+156    	; 0x2452 <get_challenge2_secret(unsigned char*, unsigned char)+0xee>
    23b6:	6a 30       	cpi	r22, 0x0A	; 10
    23b8:	f1 f1       	breq	.+124    	; 0x2436 <get_challenge2_secret(unsigned char*, unsigned char)+0xd2>
L:\Programs\psp\Pandora\Arduino_v4_61/keys.h:250
      break;
    case 0xEB:
      memcpy_P(buffer, challenge2_secret[14], 8);
      break;
    default:
      delete[] buffer;
    23ba:	00 97       	sbiw	r24, 0x00	; 0
    23bc:	11 f0       	breq	.+4      	; 0x23c2 <get_challenge2_secret(unsigned char*, unsigned char)+0x5e>
    23be:	0e 94 85 0f 	call	0x1f0a	; 0x1f0a <operator delete[](void*)>
L:\Programs\psp\Pandora\Arduino_v4_61/keys.h:253
      break; //  
  }
}
    23c2:	08 95       	ret
L:\Programs\psp\Pandora\Arduino_v4_61/keys.h:202
  }
}

void get_challenge2_secret(byte *buffer, byte version)
{
  switch (version)
    23c4:	69 3d       	cpi	r22, 0xD9	; 217
    23c6:	09 f4       	brne	.+2      	; 0x23ca <get_challenge2_secret(unsigned char*, unsigned char)+0x66>
    23c8:	52 c0       	rjmp	.+164    	; 0x246e <get_challenge2_secret(unsigned char*, unsigned char)+0x10a>
    23ca:	6b 3e       	cpi	r22, 0xEB	; 235
    23cc:	09 f4       	brne	.+2      	; 0x23d0 <get_challenge2_secret(unsigned char*, unsigned char)+0x6c>
    23ce:	56 c0       	rjmp	.+172    	; 0x247c <get_challenge2_secret(unsigned char*, unsigned char)+0x118>
    23d0:	63 3b       	cpi	r22, 0xB3	; 179
    23d2:	99 f7       	brne	.-26     	; 0x23ba <get_challenge2_secret(unsigned char*, unsigned char)+0x56>
L:\Programs\psp\Pandora\Arduino_v4_61/keys.h:241
      break;
    case 0x97:
      memcpy_P(buffer, challenge2_secret[11], 8);
      break;
    case 0xB3:
      memcpy_P(buffer, challenge2_secret[12], 8);
    23d4:	48 e0       	ldi	r20, 0x08	; 8
    23d6:	50 e0       	ldi	r21, 0x00	; 0
    23d8:	60 e6       	ldi	r22, 0x60	; 96
    23da:	72 e0       	ldi	r23, 0x02	; 2
    23dc:	0e 94 f8 19 	call	0x33f0	; 0x33f0 <memcpy_P>
    23e0:	08 95       	ret
L:\Programs\psp\Pandora\Arduino_v4_61/keys.h:208
  {
    case 0:
      memcpy_P(buffer, challenge2_secret[0], 8);
      break;
    case 1:
      memcpy_P(buffer, challenge2_secret[1], 8);
    23e2:	48 e0       	ldi	r20, 0x08	; 8
    23e4:	50 e0       	ldi	r21, 0x00	; 0
    23e6:	68 e0       	ldi	r22, 0x08	; 8
    23e8:	72 e0       	ldi	r23, 0x02	; 2
    23ea:	0e 94 f8 19 	call	0x33f0	; 0x33f0 <memcpy_P>
    23ee:	08 95       	ret
L:\Programs\psp\Pandora\Arduino_v4_61/keys.h:211
      break;
    case 2:
      memcpy_P(buffer, challenge2_secret[2], 8);
    23f0:	48 e0       	ldi	r20, 0x08	; 8
    23f2:	50 e0       	ldi	r21, 0x00	; 0
    23f4:	60 e1       	ldi	r22, 0x10	; 16
    23f6:	72 e0       	ldi	r23, 0x02	; 2
    23f8:	0e 94 f8 19 	call	0x33f0	; 0x33f0 <memcpy_P>
    23fc:	08 95       	ret
L:\Programs\psp\Pandora\Arduino_v4_61/keys.h:214
      break;
    case 3:
      memcpy_P(buffer, challenge2_secret[3], 8);
    23fe:	48 e0       	ldi	r20, 0x08	; 8
    2400:	50 e0       	ldi	r21, 0x00	; 0
    2402:	68 e1       	ldi	r22, 0x18	; 24
    2404:	72 e0       	ldi	r23, 0x02	; 2
    2406:	0e 94 f8 19 	call	0x33f0	; 0x33f0 <memcpy_P>
    240a:	08 95       	ret
L:\Programs\psp\Pandora\Arduino_v4_61/keys.h:217
      break;
    case 4:
      memcpy_P(buffer, challenge2_secret[4], 8);
    240c:	48 e0       	ldi	r20, 0x08	; 8
    240e:	50 e0       	ldi	r21, 0x00	; 0
    2410:	60 e2       	ldi	r22, 0x20	; 32
    2412:	72 e0       	ldi	r23, 0x02	; 2
    2414:	0e 94 f8 19 	call	0x33f0	; 0x33f0 <memcpy_P>
    2418:	08 95       	ret
L:\Programs\psp\Pandora\Arduino_v4_61/keys.h:220
      break;
    case 5:
      memcpy_P(buffer, challenge2_secret[5], 8);
    241a:	48 e0       	ldi	r20, 0x08	; 8
    241c:	50 e0       	ldi	r21, 0x00	; 0
    241e:	68 e2       	ldi	r22, 0x28	; 40
    2420:	72 e0       	ldi	r23, 0x02	; 2
    2422:	0e 94 f8 19 	call	0x33f0	; 0x33f0 <memcpy_P>
    2426:	08 95       	ret
L:\Programs\psp\Pandora\Arduino_v4_61/keys.h:226
      break;
    case 6:
      memcpy_P(buffer, challenge2_secret[6], 8);
      break;
    case 8:
      memcpy_P(buffer, challenge2_secret[7], 8);
    2428:	48 e0       	ldi	r20, 0x08	; 8
    242a:	50 e0       	ldi	r21, 0x00	; 0
    242c:	68 e3       	ldi	r22, 0x38	; 56
    242e:	72 e0       	ldi	r23, 0x02	; 2
    2430:	0e 94 f8 19 	call	0x33f0	; 0x33f0 <memcpy_P>
    2434:	08 95       	ret
L:\Programs\psp\Pandora\Arduino_v4_61/keys.h:229
      break;
    case 0x0A:
      memcpy_P(buffer, challenge2_secret[8], 8);
    2436:	48 e0       	ldi	r20, 0x08	; 8
    2438:	50 e0       	ldi	r21, 0x00	; 0
    243a:	60 e4       	ldi	r22, 0x40	; 64
    243c:	72 e0       	ldi	r23, 0x02	; 2
    243e:	0e 94 f8 19 	call	0x33f0	; 0x33f0 <memcpy_P>
    2442:	08 95       	ret
L:\Programs\psp\Pandora\Arduino_v4_61/keys.h:232
      break;
    case 0x0D:
      memcpy_P(buffer, challenge2_secret[9], 8);
    2444:	48 e0       	ldi	r20, 0x08	; 8
    2446:	50 e0       	ldi	r21, 0x00	; 0
    2448:	68 e4       	ldi	r22, 0x48	; 72
    244a:	72 e0       	ldi	r23, 0x02	; 2
    244c:	0e 94 f8 19 	call	0x33f0	; 0x33f0 <memcpy_P>
    2450:	08 95       	ret
L:\Programs\psp\Pandora\Arduino_v4_61/keys.h:235
      break;
    case 0x2F:
      memcpy_P(buffer, challenge2_secret[10], 8);
    2452:	48 e0       	ldi	r20, 0x08	; 8
    2454:	50 e0       	ldi	r21, 0x00	; 0
    2456:	60 e5       	ldi	r22, 0x50	; 80
    2458:	72 e0       	ldi	r23, 0x02	; 2
    245a:	0e 94 f8 19 	call	0x33f0	; 0x33f0 <memcpy_P>
    245e:	08 95       	ret
L:\Programs\psp\Pandora\Arduino_v4_61/keys.h:238
      break;
    case 0x97:
      memcpy_P(buffer, challenge2_secret[11], 8);
    2460:	48 e0       	ldi	r20, 0x08	; 8
    2462:	50 e0       	ldi	r21, 0x00	; 0
    2464:	68 e5       	ldi	r22, 0x58	; 88
    2466:	72 e0       	ldi	r23, 0x02	; 2
    2468:	0e 94 f8 19 	call	0x33f0	; 0x33f0 <memcpy_P>
    246c:	08 95       	ret
L:\Programs\psp\Pandora\Arduino_v4_61/keys.h:244
      break;
    case 0xB3:
      memcpy_P(buffer, challenge2_secret[12], 8);
      break;
    case 0xD9:
      memcpy_P(buffer, challenge2_secret[13], 8);
    246e:	48 e0       	ldi	r20, 0x08	; 8
    2470:	50 e0       	ldi	r21, 0x00	; 0
    2472:	68 e6       	ldi	r22, 0x68	; 104
    2474:	72 e0       	ldi	r23, 0x02	; 2
    2476:	0e 94 f8 19 	call	0x33f0	; 0x33f0 <memcpy_P>
    247a:	08 95       	ret
L:\Programs\psp\Pandora\Arduino_v4_61/keys.h:247
      break;
    case 0xEB:
      memcpy_P(buffer, challenge2_secret[14], 8);
    247c:	48 e0       	ldi	r20, 0x08	; 8
    247e:	50 e0       	ldi	r21, 0x00	; 0
    2480:	60 e7       	ldi	r22, 0x70	; 112
    2482:	72 e0       	ldi	r23, 0x02	; 2
    2484:	0e 94 f8 19 	call	0x33f0	; 0x33f0 <memcpy_P>
    2488:	08 95       	ret

0000248a <MixChallenge2(unsigned char*, unsigned char, unsigned char*)>:
_Z13MixChallenge2PhhS_():
L:\Programs\psp\Pandora\Arduino_v4_61/Arduino_v4_61.ino:238
  data[0xB] = challenge[6];
  data[0xF] = challenge[7];
}

void MixChallenge2(byte *data, byte version, byte *challenge)
{
    248a:	ef 92       	push	r14
    248c:	ff 92       	push	r15
    248e:	0f 93       	push	r16
    2490:	1f 93       	push	r17
    2492:	cf 93       	push	r28
    2494:	df 93       	push	r29
    2496:	cd b7       	in	r28, 0x3d	; 61
    2498:	de b7       	in	r29, 0x3e	; 62
    249a:	28 97       	sbiw	r28, 0x08	; 8
    249c:	0f b6       	in	r0, 0x3f	; 63
    249e:	f8 94       	cli
    24a0:	de bf       	out	0x3e, r29	; 62
    24a2:	0f be       	out	0x3f, r0	; 63
    24a4:	cd bf       	out	0x3d, r28	; 61
    24a6:	8c 01       	movw	r16, r24
    24a8:	7a 01       	movw	r14, r20
L:\Programs\psp\Pandora\Arduino_v4_61/Arduino_v4_61.ino:239
  byte secret2[8] = {0}; 
    24aa:	ce 01       	movw	r24, r28
    24ac:	01 96       	adiw	r24, 0x01	; 1
    24ae:	28 e0       	ldi	r18, 0x08	; 8
    24b0:	fc 01       	movw	r30, r24
    24b2:	11 92       	st	Z+, r1
    24b4:	2a 95       	dec	r18
    24b6:	e9 f7       	brne	.-6      	; 0x24b2 <MixChallenge2(unsigned char*, unsigned char, unsigned char*)+0x28>
L:\Programs\psp\Pandora\Arduino_v4_61/Arduino_v4_61.ino:240
  get_challenge2_secret(secret2, version);
    24b8:	0e 94 b2 11 	call	0x2364	; 0x2364 <get_challenge2_secret(unsigned char*, unsigned char)>
L:\Programs\psp\Pandora\Arduino_v4_61/Arduino_v4_61.ino:242

  data[0] = challenge[0];
    24bc:	f7 01       	movw	r30, r14
    24be:	80 81       	ld	r24, Z
    24c0:	f8 01       	movw	r30, r16
    24c2:	80 83       	st	Z, r24
L:\Programs\psp\Pandora\Arduino_v4_61/Arduino_v4_61.ino:243
  data[4] = challenge[1];
    24c4:	f7 01       	movw	r30, r14
    24c6:	81 81       	ldd	r24, Z+1	; 0x01
    24c8:	f8 01       	movw	r30, r16
    24ca:	84 83       	std	Z+4, r24	; 0x04
L:\Programs\psp\Pandora\Arduino_v4_61/Arduino_v4_61.ino:244
  data[8] = challenge[2];
    24cc:	f7 01       	movw	r30, r14
    24ce:	82 81       	ldd	r24, Z+2	; 0x02
    24d0:	f8 01       	movw	r30, r16
    24d2:	80 87       	std	Z+8, r24	; 0x08
L:\Programs\psp\Pandora\Arduino_v4_61/Arduino_v4_61.ino:245
  data[0xC] = challenge[3];
    24d4:	f7 01       	movw	r30, r14
    24d6:	83 81       	ldd	r24, Z+3	; 0x03
    24d8:	f8 01       	movw	r30, r16
    24da:	84 87       	std	Z+12, r24	; 0x0c
L:\Programs\psp\Pandora\Arduino_v4_61/Arduino_v4_61.ino:246
  data[1] = challenge[4];
    24dc:	f7 01       	movw	r30, r14
    24de:	84 81       	ldd	r24, Z+4	; 0x04
    24e0:	f8 01       	movw	r30, r16
    24e2:	81 83       	std	Z+1, r24	; 0x01
L:\Programs\psp\Pandora\Arduino_v4_61/Arduino_v4_61.ino:247
  data[5] = challenge[5];
    24e4:	f7 01       	movw	r30, r14
    24e6:	85 81       	ldd	r24, Z+5	; 0x05
    24e8:	f8 01       	movw	r30, r16
    24ea:	85 83       	std	Z+5, r24	; 0x05
L:\Programs\psp\Pandora\Arduino_v4_61/Arduino_v4_61.ino:248
  data[9] = challenge[6];
    24ec:	f7 01       	movw	r30, r14
    24ee:	86 81       	ldd	r24, Z+6	; 0x06
    24f0:	f8 01       	movw	r30, r16
    24f2:	81 87       	std	Z+9, r24	; 0x09
L:\Programs\psp\Pandora\Arduino_v4_61/Arduino_v4_61.ino:249
  data[0xD] = challenge[7];
    24f4:	f7 01       	movw	r30, r14
    24f6:	87 81       	ldd	r24, Z+7	; 0x07
    24f8:	f8 01       	movw	r30, r16
    24fa:	85 87       	std	Z+13, r24	; 0x0d
L:\Programs\psp\Pandora\Arduino_v4_61/Arduino_v4_61.ino:250
  data[2] = secret2[0];
    24fc:	89 81       	ldd	r24, Y+1	; 0x01
    24fe:	82 83       	std	Z+2, r24	; 0x02
L:\Programs\psp\Pandora\Arduino_v4_61/Arduino_v4_61.ino:251
  data[6] = secret2[1];
    2500:	8a 81       	ldd	r24, Y+2	; 0x02
    2502:	86 83       	std	Z+6, r24	; 0x06
L:\Programs\psp\Pandora\Arduino_v4_61/Arduino_v4_61.ino:252
  data[0xA] = secret2[2];
    2504:	8b 81       	ldd	r24, Y+3	; 0x03
    2506:	82 87       	std	Z+10, r24	; 0x0a
L:\Programs\psp\Pandora\Arduino_v4_61/Arduino_v4_61.ino:253
  data[0xE] = secret2[3];
    2508:	8c 81       	ldd	r24, Y+4	; 0x04
    250a:	86 87       	std	Z+14, r24	; 0x0e
L:\Programs\psp\Pandora\Arduino_v4_61/Arduino_v4_61.ino:254
  data[3] = secret2[4];
    250c:	8d 81       	ldd	r24, Y+5	; 0x05
    250e:	83 83       	std	Z+3, r24	; 0x03
L:\Programs\psp\Pandora\Arduino_v4_61/Arduino_v4_61.ino:255
  data[7] = secret2[5];
    2510:	8e 81       	ldd	r24, Y+6	; 0x06
    2512:	87 83       	std	Z+7, r24	; 0x07
L:\Programs\psp\Pandora\Arduino_v4_61/Arduino_v4_61.ino:256
  data[0xB] = secret2[6];
    2514:	8f 81       	ldd	r24, Y+7	; 0x07
    2516:	83 87       	std	Z+11, r24	; 0x0b
L:\Programs\psp\Pandora\Arduino_v4_61/Arduino_v4_61.ino:257
  data[0xF] = secret2[7];
    2518:	88 85       	ldd	r24, Y+8	; 0x08
    251a:	87 87       	std	Z+15, r24	; 0x0f
L:\Programs\psp\Pandora\Arduino_v4_61/Arduino_v4_61.ino:258
}
    251c:	28 96       	adiw	r28, 0x08	; 8
    251e:	0f b6       	in	r0, 0x3f	; 63
    2520:	f8 94       	cli
    2522:	de bf       	out	0x3e, r29	; 62
    2524:	0f be       	out	0x3f, r0	; 63
    2526:	cd bf       	out	0x3d, r28	; 61
    2528:	df 91       	pop	r29
    252a:	cf 91       	pop	r28
    252c:	1f 91       	pop	r17
    252e:	0f 91       	pop	r16
    2530:	ff 90       	pop	r15
    2532:	ef 90       	pop	r14
    2534:	08 95       	ret

00002536 <get_challenge1_secret(unsigned char*, unsigned char)>:
_Z21get_challenge1_secretPhh():
L:\Programs\psp\Pandora\Arduino_v4_61/keys.h:147
  }
}

void get_challenge1_secret(byte *buffer, byte version)
{
  switch (version)
    2536:	68 30       	cpi	r22, 0x08	; 8
    2538:	09 f4       	brne	.+2      	; 0x253c <get_challenge1_secret(unsigned char*, unsigned char)+0x6>
    253a:	5f c0       	rjmp	.+190    	; 0x25fa <get_challenge1_secret(unsigned char*, unsigned char)+0xc4>
    253c:	d8 f4       	brcc	.+54     	; 0x2574 <get_challenge1_secret(unsigned char*, unsigned char)+0x3e>
    253e:	63 30       	cpi	r22, 0x03	; 3
    2540:	09 f4       	brne	.+2      	; 0x2544 <get_challenge1_secret(unsigned char*, unsigned char)+0xe>
    2542:	46 c0       	rjmp	.+140    	; 0x25d0 <get_challenge1_secret(unsigned char*, unsigned char)+0x9a>
    2544:	50 f4       	brcc	.+20     	; 0x255a <get_challenge1_secret(unsigned char*, unsigned char)+0x24>
    2546:	61 30       	cpi	r22, 0x01	; 1
    2548:	a9 f1       	breq	.+106    	; 0x25b4 <get_challenge1_secret(unsigned char*, unsigned char)+0x7e>
    254a:	d8 f5       	brcc	.+118    	; 0x25c2 <get_challenge1_secret(unsigned char*, unsigned char)+0x8c>
L:\Programs\psp\Pandora\Arduino_v4_61/keys.h:150
  {
    case 0:
      memcpy_P(buffer, challenge1_secret[0], 8);
    254c:	48 e0       	ldi	r20, 0x08	; 8
    254e:	50 e0       	ldi	r21, 0x00	; 0
    2550:	68 e8       	ldi	r22, 0x88	; 136
    2552:	71 e0       	ldi	r23, 0x01	; 1
    2554:	0e 94 f8 19 	call	0x33f0	; 0x33f0 <memcpy_P>
    2558:	08 95       	ret
L:\Programs\psp\Pandora\Arduino_v4_61/keys.h:147
  }
}

void get_challenge1_secret(byte *buffer, byte version)
{
  switch (version)
    255a:	65 30       	cpi	r22, 0x05	; 5
    255c:	09 f4       	brne	.+2      	; 0x2560 <get_challenge1_secret(unsigned char*, unsigned char)+0x2a>
    255e:	46 c0       	rjmp	.+140    	; 0x25ec <get_challenge1_secret(unsigned char*, unsigned char)+0xb6>
    2560:	f0 f1       	brcs	.+124    	; 0x25de <get_challenge1_secret(unsigned char*, unsigned char)+0xa8>
    2562:	66 30       	cpi	r22, 0x06	; 6
    2564:	99 f4       	brne	.+38     	; 0x258c <get_challenge1_secret(unsigned char*, unsigned char)+0x56>
L:\Programs\psp\Pandora\Arduino_v4_61/keys.h:168
      break;
    case 5:
      memcpy_P(buffer, challenge1_secret[5], 8);
      break;
    case 6:
      memcpy_P(buffer, challenge1_secret[6], 8);
    2566:	48 e0       	ldi	r20, 0x08	; 8
    2568:	50 e0       	ldi	r21, 0x00	; 0
    256a:	68 eb       	ldi	r22, 0xB8	; 184
    256c:	71 e0       	ldi	r23, 0x01	; 1
    256e:	0e 94 f8 19 	call	0x33f0	; 0x33f0 <memcpy_P>
    2572:	08 95       	ret
L:\Programs\psp\Pandora\Arduino_v4_61/keys.h:147
  }
}

void get_challenge1_secret(byte *buffer, byte version)
{
  switch (version)
    2574:	67 39       	cpi	r22, 0x97	; 151
    2576:	09 f4       	brne	.+2      	; 0x257a <get_challenge1_secret(unsigned char*, unsigned char)+0x44>
    2578:	5c c0       	rjmp	.+184    	; 0x2632 <get_challenge1_secret(unsigned char*, unsigned char)+0xfc>
    257a:	68 f4       	brcc	.+26     	; 0x2596 <get_challenge1_secret(unsigned char*, unsigned char)+0x60>
    257c:	6d 30       	cpi	r22, 0x0D	; 13
    257e:	09 f4       	brne	.+2      	; 0x2582 <get_challenge1_secret(unsigned char*, unsigned char)+0x4c>
    2580:	4a c0       	rjmp	.+148    	; 0x2616 <get_challenge1_secret(unsigned char*, unsigned char)+0xe0>
    2582:	6f 32       	cpi	r22, 0x2F	; 47
    2584:	09 f4       	brne	.+2      	; 0x2588 <get_challenge1_secret(unsigned char*, unsigned char)+0x52>
    2586:	4e c0       	rjmp	.+156    	; 0x2624 <get_challenge1_secret(unsigned char*, unsigned char)+0xee>
    2588:	6a 30       	cpi	r22, 0x0A	; 10
    258a:	f1 f1       	breq	.+124    	; 0x2608 <get_challenge1_secret(unsigned char*, unsigned char)+0xd2>
L:\Programs\psp\Pandora\Arduino_v4_61/keys.h:195
      break;
    case 0xEB:
      memcpy_P(buffer, challenge1_secret[14], 8);
      break;
    default:
      delete[] buffer;
    258c:	00 97       	sbiw	r24, 0x00	; 0
    258e:	11 f0       	breq	.+4      	; 0x2594 <get_challenge1_secret(unsigned char*, unsigned char)+0x5e>
    2590:	0e 94 85 0f 	call	0x1f0a	; 0x1f0a <operator delete[](void*)>
L:\Programs\psp\Pandora\Arduino_v4_61/keys.h:198
      break; //  
  }
}
    2594:	08 95       	ret
L:\Programs\psp\Pandora\Arduino_v4_61/keys.h:147
  }
}

void get_challenge1_secret(byte *buffer, byte version)
{
  switch (version)
    2596:	69 3d       	cpi	r22, 0xD9	; 217
    2598:	09 f4       	brne	.+2      	; 0x259c <get_challenge1_secret(unsigned char*, unsigned char)+0x66>
    259a:	52 c0       	rjmp	.+164    	; 0x2640 <get_challenge1_secret(unsigned char*, unsigned char)+0x10a>
    259c:	6b 3e       	cpi	r22, 0xEB	; 235
    259e:	09 f4       	brne	.+2      	; 0x25a2 <get_challenge1_secret(unsigned char*, unsigned char)+0x6c>
    25a0:	56 c0       	rjmp	.+172    	; 0x264e <get_challenge1_secret(unsigned char*, unsigned char)+0x118>
    25a2:	63 3b       	cpi	r22, 0xB3	; 179
    25a4:	99 f7       	brne	.-26     	; 0x258c <get_challenge1_secret(unsigned char*, unsigned char)+0x56>
L:\Programs\psp\Pandora\Arduino_v4_61/keys.h:186
      break;
    case 0x97:
      memcpy_P(buffer, challenge1_secret[11], 8);
      break;
    case 0xB3:
      memcpy_P(buffer, challenge1_secret[12], 8);
    25a6:	48 e0       	ldi	r20, 0x08	; 8
    25a8:	50 e0       	ldi	r21, 0x00	; 0
    25aa:	68 ee       	ldi	r22, 0xE8	; 232
    25ac:	71 e0       	ldi	r23, 0x01	; 1
    25ae:	0e 94 f8 19 	call	0x33f0	; 0x33f0 <memcpy_P>
    25b2:	08 95       	ret
L:\Programs\psp\Pandora\Arduino_v4_61/keys.h:153
  {
    case 0:
      memcpy_P(buffer, challenge1_secret[0], 8);
      break;
    case 1:
      memcpy_P(buffer, challenge1_secret[1], 8);
    25b4:	48 e0       	ldi	r20, 0x08	; 8
    25b6:	50 e0       	ldi	r21, 0x00	; 0
    25b8:	60 e9       	ldi	r22, 0x90	; 144
    25ba:	71 e0       	ldi	r23, 0x01	; 1
    25bc:	0e 94 f8 19 	call	0x33f0	; 0x33f0 <memcpy_P>
    25c0:	08 95       	ret
L:\Programs\psp\Pandora\Arduino_v4_61/keys.h:156
      break;
    case 2:
      memcpy_P(buffer, challenge1_secret[2], 8);
    25c2:	48 e0       	ldi	r20, 0x08	; 8
    25c4:	50 e0       	ldi	r21, 0x00	; 0
    25c6:	68 e9       	ldi	r22, 0x98	; 152
    25c8:	71 e0       	ldi	r23, 0x01	; 1
    25ca:	0e 94 f8 19 	call	0x33f0	; 0x33f0 <memcpy_P>
    25ce:	08 95       	ret
L:\Programs\psp\Pandora\Arduino_v4_61/keys.h:159
      break;
    case 3:
      memcpy_P(buffer, challenge1_secret[3], 8);
    25d0:	48 e0       	ldi	r20, 0x08	; 8
    25d2:	50 e0       	ldi	r21, 0x00	; 0
    25d4:	60 ea       	ldi	r22, 0xA0	; 160
    25d6:	71 e0       	ldi	r23, 0x01	; 1
    25d8:	0e 94 f8 19 	call	0x33f0	; 0x33f0 <memcpy_P>
    25dc:	08 95       	ret
L:\Programs\psp\Pandora\Arduino_v4_61/keys.h:162
      break;
    case 4:
      memcpy_P(buffer, challenge1_secret[4], 8);
    25de:	48 e0       	ldi	r20, 0x08	; 8
    25e0:	50 e0       	ldi	r21, 0x00	; 0
    25e2:	68 ea       	ldi	r22, 0xA8	; 168
    25e4:	71 e0       	ldi	r23, 0x01	; 1
    25e6:	0e 94 f8 19 	call	0x33f0	; 0x33f0 <memcpy_P>
    25ea:	08 95       	ret
L:\Programs\psp\Pandora\Arduino_v4_61/keys.h:165
      break;
    case 5:
      memcpy_P(buffer, challenge1_secret[5], 8);
    25ec:	48 e0       	ldi	r20, 0x08	; 8
    25ee:	50 e0       	ldi	r21, 0x00	; 0
    25f0:	60 eb       	ldi	r22, 0xB0	; 176
    25f2:	71 e0       	ldi	r23, 0x01	; 1
    25f4:	0e 94 f8 19 	call	0x33f0	; 0x33f0 <memcpy_P>
    25f8:	08 95       	ret
L:\Programs\psp\Pandora\Arduino_v4_61/keys.h:171
      break;
    case 6:
      memcpy_P(buffer, challenge1_secret[6], 8);
      break;
    case 8:
      memcpy_P(buffer, challenge1_secret[7], 8);
    25fa:	48 e0       	ldi	r20, 0x08	; 8
    25fc:	50 e0       	ldi	r21, 0x00	; 0
    25fe:	60 ec       	ldi	r22, 0xC0	; 192
    2600:	71 e0       	ldi	r23, 0x01	; 1
    2602:	0e 94 f8 19 	call	0x33f0	; 0x33f0 <memcpy_P>
    2606:	08 95       	ret
L:\Programs\psp\Pandora\Arduino_v4_61/keys.h:174
      break;
    case 0x0A:
      memcpy_P(buffer, challenge1_secret[8], 8);
    2608:	48 e0       	ldi	r20, 0x08	; 8
    260a:	50 e0       	ldi	r21, 0x00	; 0
    260c:	68 ec       	ldi	r22, 0xC8	; 200
    260e:	71 e0       	ldi	r23, 0x01	; 1
    2610:	0e 94 f8 19 	call	0x33f0	; 0x33f0 <memcpy_P>
    2614:	08 95       	ret
L:\Programs\psp\Pandora\Arduino_v4_61/keys.h:177
      break;
    case 0x0D:
      memcpy_P(buffer, challenge1_secret[9], 8);
    2616:	48 e0       	ldi	r20, 0x08	; 8
    2618:	50 e0       	ldi	r21, 0x00	; 0
    261a:	60 ed       	ldi	r22, 0xD0	; 208
    261c:	71 e0       	ldi	r23, 0x01	; 1
    261e:	0e 94 f8 19 	call	0x33f0	; 0x33f0 <memcpy_P>
    2622:	08 95       	ret
L:\Programs\psp\Pandora\Arduino_v4_61/keys.h:180
      break;
    case 0x2F:
      memcpy_P(buffer, challenge1_secret[10], 8);
    2624:	48 e0       	ldi	r20, 0x08	; 8
    2626:	50 e0       	ldi	r21, 0x00	; 0
    2628:	68 ed       	ldi	r22, 0xD8	; 216
    262a:	71 e0       	ldi	r23, 0x01	; 1
    262c:	0e 94 f8 19 	call	0x33f0	; 0x33f0 <memcpy_P>
    2630:	08 95       	ret
L:\Programs\psp\Pandora\Arduino_v4_61/keys.h:183
      break;
    case 0x97:
      memcpy_P(buffer, challenge1_secret[11], 8);
    2632:	48 e0       	ldi	r20, 0x08	; 8
    2634:	50 e0       	ldi	r21, 0x00	; 0
    2636:	60 ee       	ldi	r22, 0xE0	; 224
    2638:	71 e0       	ldi	r23, 0x01	; 1
    263a:	0e 94 f8 19 	call	0x33f0	; 0x33f0 <memcpy_P>
    263e:	08 95       	ret
L:\Programs\psp\Pandora\Arduino_v4_61/keys.h:189
      break;
    case 0xB3:
      memcpy_P(buffer, challenge1_secret[12], 8);
      break;
    case 0xD9:
      memcpy_P(buffer, challenge1_secret[13], 8);
    2640:	48 e0       	ldi	r20, 0x08	; 8
    2642:	50 e0       	ldi	r21, 0x00	; 0
    2644:	60 ef       	ldi	r22, 0xF0	; 240
    2646:	71 e0       	ldi	r23, 0x01	; 1
    2648:	0e 94 f8 19 	call	0x33f0	; 0x33f0 <memcpy_P>
    264c:	08 95       	ret
L:\Programs\psp\Pandora\Arduino_v4_61/keys.h:192
      break;
    case 0xEB:
      memcpy_P(buffer, challenge1_secret[14], 8);
    264e:	48 e0       	ldi	r20, 0x08	; 8
    2650:	50 e0       	ldi	r21, 0x00	; 0
    2652:	68 ef       	ldi	r22, 0xF8	; 248
    2654:	71 e0       	ldi	r23, 0x01	; 1
    2656:	0e 94 f8 19 	call	0x33f0	; 0x33f0 <memcpy_P>
    265a:	08 95       	ret

0000265c <MixChallenge1(unsigned char*, unsigned char, unsigned char*)>:
_Z13MixChallenge1PhhS_():
L:\Programs\psp\Pandora\Arduino_v4_61/Arduino_v4_61.ino:215

  return ((sum & 0xFF) ^ 0xFF);
}

void MixChallenge1(byte *data, byte version, byte *challenge)
{
    265c:	ef 92       	push	r14
    265e:	ff 92       	push	r15
    2660:	0f 93       	push	r16
    2662:	1f 93       	push	r17
    2664:	cf 93       	push	r28
    2666:	df 93       	push	r29
    2668:	cd b7       	in	r28, 0x3d	; 61
    266a:	de b7       	in	r29, 0x3e	; 62
    266c:	28 97       	sbiw	r28, 0x08	; 8
    266e:	0f b6       	in	r0, 0x3f	; 63
    2670:	f8 94       	cli
    2672:	de bf       	out	0x3e, r29	; 62
    2674:	0f be       	out	0x3f, r0	; 63
    2676:	cd bf       	out	0x3d, r28	; 61
    2678:	8c 01       	movw	r16, r24
    267a:	7a 01       	movw	r14, r20
L:\Programs\psp\Pandora\Arduino_v4_61/Arduino_v4_61.ino:216
  byte secret1[8] = {0};
    267c:	ce 01       	movw	r24, r28
    267e:	01 96       	adiw	r24, 0x01	; 1
    2680:	28 e0       	ldi	r18, 0x08	; 8
    2682:	fc 01       	movw	r30, r24
    2684:	11 92       	st	Z+, r1
    2686:	2a 95       	dec	r18
    2688:	e9 f7       	brne	.-6      	; 0x2684 <MixChallenge1(unsigned char*, unsigned char, unsigned char*)+0x28>
L:\Programs\psp\Pandora\Arduino_v4_61/Arduino_v4_61.ino:217
  get_challenge1_secret(secret1, version);
    268a:	0e 94 9b 12 	call	0x2536	; 0x2536 <get_challenge1_secret(unsigned char*, unsigned char)>
L:\Programs\psp\Pandora\Arduino_v4_61/Arduino_v4_61.ino:219

  data[0] = secret1[0];
    268e:	89 81       	ldd	r24, Y+1	; 0x01
    2690:	f8 01       	movw	r30, r16
    2692:	80 83       	st	Z, r24
L:\Programs\psp\Pandora\Arduino_v4_61/Arduino_v4_61.ino:220
  data[4] = secret1[1];
    2694:	8a 81       	ldd	r24, Y+2	; 0x02
    2696:	84 83       	std	Z+4, r24	; 0x04
L:\Programs\psp\Pandora\Arduino_v4_61/Arduino_v4_61.ino:221
  data[8] = secret1[2];
    2698:	8b 81       	ldd	r24, Y+3	; 0x03
    269a:	80 87       	std	Z+8, r24	; 0x08
L:\Programs\psp\Pandora\Arduino_v4_61/Arduino_v4_61.ino:222
  data[0xC] = secret1[3];
    269c:	8c 81       	ldd	r24, Y+4	; 0x04
    269e:	84 87       	std	Z+12, r24	; 0x0c
L:\Programs\psp\Pandora\Arduino_v4_61/Arduino_v4_61.ino:223
  data[1] = secret1[4];
    26a0:	8d 81       	ldd	r24, Y+5	; 0x05
    26a2:	81 83       	std	Z+1, r24	; 0x01
L:\Programs\psp\Pandora\Arduino_v4_61/Arduino_v4_61.ino:224
  data[5] = secret1[5];
    26a4:	8e 81       	ldd	r24, Y+6	; 0x06
    26a6:	85 83       	std	Z+5, r24	; 0x05
L:\Programs\psp\Pandora\Arduino_v4_61/Arduino_v4_61.ino:225
  data[9] = secret1[6];
    26a8:	8f 81       	ldd	r24, Y+7	; 0x07
    26aa:	81 87       	std	Z+9, r24	; 0x09
L:\Programs\psp\Pandora\Arduino_v4_61/Arduino_v4_61.ino:226
  data[0xD] = secret1[7];
    26ac:	88 85       	ldd	r24, Y+8	; 0x08
    26ae:	85 87       	std	Z+13, r24	; 0x0d
L:\Programs\psp\Pandora\Arduino_v4_61/Arduino_v4_61.ino:227
  data[2] = challenge[0];
    26b0:	f7 01       	movw	r30, r14
    26b2:	80 81       	ld	r24, Z
    26b4:	f8 01       	movw	r30, r16
    26b6:	82 83       	std	Z+2, r24	; 0x02
L:\Programs\psp\Pandora\Arduino_v4_61/Arduino_v4_61.ino:228
  data[6] = challenge[1];
    26b8:	f7 01       	movw	r30, r14
    26ba:	81 81       	ldd	r24, Z+1	; 0x01
    26bc:	f8 01       	movw	r30, r16
    26be:	86 83       	std	Z+6, r24	; 0x06
L:\Programs\psp\Pandora\Arduino_v4_61/Arduino_v4_61.ino:229
  data[0xA] = challenge[2];
    26c0:	f7 01       	movw	r30, r14
    26c2:	82 81       	ldd	r24, Z+2	; 0x02
    26c4:	f8 01       	movw	r30, r16
    26c6:	82 87       	std	Z+10, r24	; 0x0a
L:\Programs\psp\Pandora\Arduino_v4_61/Arduino_v4_61.ino:230
  data[0xE] = challenge[3];
    26c8:	f7 01       	movw	r30, r14
    26ca:	83 81       	ldd	r24, Z+3	; 0x03
    26cc:	f8 01       	movw	r30, r16
    26ce:	86 87       	std	Z+14, r24	; 0x0e
L:\Programs\psp\Pandora\Arduino_v4_61/Arduino_v4_61.ino:231
  data[3] = challenge[4];
    26d0:	f7 01       	movw	r30, r14
    26d2:	84 81       	ldd	r24, Z+4	; 0x04
    26d4:	f8 01       	movw	r30, r16
    26d6:	83 83       	std	Z+3, r24	; 0x03
L:\Programs\psp\Pandora\Arduino_v4_61/Arduino_v4_61.ino:232
  data[7] = challenge[5];
    26d8:	f7 01       	movw	r30, r14
    26da:	85 81       	ldd	r24, Z+5	; 0x05
    26dc:	f8 01       	movw	r30, r16
    26de:	87 83       	std	Z+7, r24	; 0x07
L:\Programs\psp\Pandora\Arduino_v4_61/Arduino_v4_61.ino:233
  data[0xB] = challenge[6];
    26e0:	f7 01       	movw	r30, r14
    26e2:	86 81       	ldd	r24, Z+6	; 0x06
    26e4:	f8 01       	movw	r30, r16
    26e6:	83 87       	std	Z+11, r24	; 0x0b
L:\Programs\psp\Pandora\Arduino_v4_61/Arduino_v4_61.ino:234
  data[0xF] = challenge[7];
    26e8:	f7 01       	movw	r30, r14
    26ea:	87 81       	ldd	r24, Z+7	; 0x07
    26ec:	f8 01       	movw	r30, r16
    26ee:	87 87       	std	Z+15, r24	; 0x0f
L:\Programs\psp\Pandora\Arduino_v4_61/Arduino_v4_61.ino:235
}
    26f0:	28 96       	adiw	r28, 0x08	; 8
    26f2:	0f b6       	in	r0, 0x3f	; 63
    26f4:	f8 94       	cli
    26f6:	de bf       	out	0x3e, r29	; 62
    26f8:	0f be       	out	0x3f, r0	; 63
    26fa:	cd bf       	out	0x3d, r28	; 61
    26fc:	df 91       	pop	r29
    26fe:	cf 91       	pop	r28
    2700:	1f 91       	pop	r17
    2702:	0f 91       	pop	r16
    2704:	ff 90       	pop	r15
    2706:	ef 90       	pop	r14
    2708:	08 95       	ret

0000270a <get_keystore(unsigned char*, unsigned char)>:
_Z12get_keystorePhh():
L:\Programs\psp\Pandora\Arduino_v4_61/keys.h:84
  {0xF7, 0x91, 0xED, 0x0B, 0x3F, 0x49, 0xA4, 0x48}  // EB
};

void get_keystore(byte *buffer, byte key)
{
  switch (key)
    270a:	69 30       	cpi	r22, 0x09	; 9
    270c:	09 f4       	brne	.+2      	; 0x2710 <get_keystore(unsigned char*, unsigned char)+0x6>
    270e:	7c c0       	rjmp	.+248    	; 0x2808 <get_keystore(unsigned char*, unsigned char)+0xfe>
    2710:	a8 f0       	brcs	.+42     	; 0x273c <get_keystore(unsigned char*, unsigned char)+0x32>
    2712:	6f 32       	cpi	r22, 0x2F	; 47
    2714:	09 f4       	brne	.+2      	; 0x2718 <get_keystore(unsigned char*, unsigned char)+0xe>
    2716:	94 c0       	rjmp	.+296    	; 0x2840 <get_keystore(unsigned char*, unsigned char)+0x136>
    2718:	90 f5       	brcc	.+100    	; 0x277e <get_keystore(unsigned char*, unsigned char)+0x74>
    271a:	6b 30       	cpi	r22, 0x0B	; 11
    271c:	09 f4       	brne	.+2      	; 0x2720 <get_keystore(unsigned char*, unsigned char)+0x16>
    271e:	82 c0       	rjmp	.+260    	; 0x2824 <get_keystore(unsigned char*, unsigned char)+0x11a>
    2720:	08 f4       	brcc	.+2      	; 0x2724 <get_keystore(unsigned char*, unsigned char)+0x1a>
    2722:	79 c0       	rjmp	.+242    	; 0x2816 <get_keystore(unsigned char*, unsigned char)+0x10c>
    2724:	6c 30       	cpi	r22, 0x0C	; 12
    2726:	09 f4       	brne	.+2      	; 0x272a <get_keystore(unsigned char*, unsigned char)+0x20>
    2728:	84 c0       	rjmp	.+264    	; 0x2832 <get_keystore(unsigned char*, unsigned char)+0x128>
    272a:	6d 30       	cpi	r22, 0x0D	; 13
    272c:	39 f5       	brne	.+78     	; 0x277c <get_keystore(unsigned char*, unsigned char)+0x72>
L:\Programs\psp\Pandora\Arduino_v4_61/keys.h:123
      break;
    case 0x0C:
      memcpy_P(buffer, keystore[11], 16);
      break;
    case 0x0D:
      memcpy_P(buffer, keystore[12], 16);
    272e:	40 e1       	ldi	r20, 0x10	; 16
    2730:	50 e0       	ldi	r21, 0x00	; 0
    2732:	68 e2       	ldi	r22, 0x28	; 40
    2734:	71 e0       	ldi	r23, 0x01	; 1
    2736:	0e 94 f8 19 	call	0x33f0	; 0x33f0 <memcpy_P>
    273a:	08 95       	ret
L:\Programs\psp\Pandora\Arduino_v4_61/keys.h:84
  {0xF7, 0x91, 0xED, 0x0B, 0x3F, 0x49, 0xA4, 0x48}  // EB
};

void get_keystore(byte *buffer, byte key)
{
  switch (key)
    273c:	63 30       	cpi	r22, 0x03	; 3
    273e:	09 f4       	brne	.+2      	; 0x2742 <get_keystore(unsigned char*, unsigned char)+0x38>
    2740:	47 c0       	rjmp	.+142    	; 0x27d0 <get_keystore(unsigned char*, unsigned char)+0xc6>
    2742:	88 f0       	brcs	.+34     	; 0x2766 <get_keystore(unsigned char*, unsigned char)+0x5c>
    2744:	65 30       	cpi	r22, 0x05	; 5
    2746:	09 f4       	brne	.+2      	; 0x274a <get_keystore(unsigned char*, unsigned char)+0x40>
    2748:	51 c0       	rjmp	.+162    	; 0x27ec <get_keystore(unsigned char*, unsigned char)+0xe2>
    274a:	08 f4       	brcc	.+2      	; 0x274e <get_keystore(unsigned char*, unsigned char)+0x44>
    274c:	48 c0       	rjmp	.+144    	; 0x27de <get_keystore(unsigned char*, unsigned char)+0xd4>
    274e:	66 30       	cpi	r22, 0x06	; 6
    2750:	09 f4       	brne	.+2      	; 0x2754 <get_keystore(unsigned char*, unsigned char)+0x4a>
    2752:	53 c0       	rjmp	.+166    	; 0x27fa <get_keystore(unsigned char*, unsigned char)+0xf0>
    2754:	68 30       	cpi	r22, 0x08	; 8
    2756:	89 f4       	brne	.+34     	; 0x277a <get_keystore(unsigned char*, unsigned char)+0x70>
L:\Programs\psp\Pandora\Arduino_v4_61/keys.h:108
      break;
    case 6:
      memcpy_P(buffer, keystore[6], 16);
      break;
    case 8:
      memcpy_P(buffer, keystore[7], 16);
    2758:	40 e1       	ldi	r20, 0x10	; 16
    275a:	50 e0       	ldi	r21, 0x00	; 0
    275c:	68 ed       	ldi	r22, 0xD8	; 216
    275e:	70 e0       	ldi	r23, 0x00	; 0
    2760:	0e 94 f8 19 	call	0x33f0	; 0x33f0 <memcpy_P>
    2764:	08 95       	ret
L:\Programs\psp\Pandora\Arduino_v4_61/keys.h:84
  {0xF7, 0x91, 0xED, 0x0B, 0x3F, 0x49, 0xA4, 0x48}  // EB
};

void get_keystore(byte *buffer, byte key)
{
  switch (key)
    2766:	61 30       	cpi	r22, 0x01	; 1
    2768:	29 f1       	breq	.+74     	; 0x27b4 <get_keystore(unsigned char*, unsigned char)+0xaa>
    276a:	58 f5       	brcc	.+86     	; 0x27c2 <get_keystore(unsigned char*, unsigned char)+0xb8>
L:\Programs\psp\Pandora\Arduino_v4_61/keys.h:87
  {
    case 0:
      memcpy_P(buffer, keystore[0], 16);
    276c:	40 e1       	ldi	r20, 0x10	; 16
    276e:	50 e0       	ldi	r21, 0x00	; 0
    2770:	68 e6       	ldi	r22, 0x68	; 104
    2772:	70 e0       	ldi	r23, 0x00	; 0
    2774:	0e 94 f8 19 	call	0x33f0	; 0x33f0 <memcpy_P>
    2778:	08 95       	ret
    277a:	08 95       	ret
    277c:	08 95       	ret
L:\Programs\psp\Pandora\Arduino_v4_61/keys.h:84
  {0xF7, 0x91, 0xED, 0x0B, 0x3F, 0x49, 0xA4, 0x48}  // EB
};

void get_keystore(byte *buffer, byte key)
{
  switch (key)
    277e:	63 3b       	cpi	r22, 0xB3	; 179
    2780:	09 f4       	brne	.+2      	; 0x2784 <get_keystore(unsigned char*, unsigned char)+0x7a>
    2782:	65 c0       	rjmp	.+202    	; 0x284e <get_keystore(unsigned char*, unsigned char)+0x144>
    2784:	60 f0       	brcs	.+24     	; 0x279e <get_keystore(unsigned char*, unsigned char)+0x94>
    2786:	69 3d       	cpi	r22, 0xD9	; 217
    2788:	09 f4       	brne	.+2      	; 0x278c <get_keystore(unsigned char*, unsigned char)+0x82>
    278a:	68 c0       	rjmp	.+208    	; 0x285c <get_keystore(unsigned char*, unsigned char)+0x152>
    278c:	6b 3e       	cpi	r22, 0xEB	; 235
    278e:	89 f4       	brne	.+34     	; 0x27b2 <get_keystore(unsigned char*, unsigned char)+0xa8>
L:\Programs\psp\Pandora\Arduino_v4_61/keys.h:138
      break;
    case 0xD9:
      memcpy_P(buffer, keystore[16], 16);
      break;
    case 0xEB:
      memcpy_P(buffer, keystore[17], 16);
    2790:	40 e1       	ldi	r20, 0x10	; 16
    2792:	50 e0       	ldi	r21, 0x00	; 0
    2794:	68 e7       	ldi	r22, 0x78	; 120
    2796:	71 e0       	ldi	r23, 0x01	; 1
    2798:	0e 94 f8 19 	call	0x33f0	; 0x33f0 <memcpy_P>
L:\Programs\psp\Pandora\Arduino_v4_61/keys.h:143
      break;
    default:
      break; //  
  }
}
    279c:	08 95       	ret
L:\Programs\psp\Pandora\Arduino_v4_61/keys.h:84
  {0xF7, 0x91, 0xED, 0x0B, 0x3F, 0x49, 0xA4, 0x48}  // EB
};

void get_keystore(byte *buffer, byte key)
{
  switch (key)
    279e:	67 39       	cpi	r22, 0x97	; 151
    27a0:	39 f4       	brne	.+14     	; 0x27b0 <get_keystore(unsigned char*, unsigned char)+0xa6>
L:\Programs\psp\Pandora\Arduino_v4_61/keys.h:129
      break;
    case 0x2F:
      memcpy_P(buffer, keystore[13], 16);
      break;
    case 0x97:
      memcpy_P(buffer, keystore[14], 16);
    27a2:	40 e1       	ldi	r20, 0x10	; 16
    27a4:	50 e0       	ldi	r21, 0x00	; 0
    27a6:	68 e4       	ldi	r22, 0x48	; 72
    27a8:	71 e0       	ldi	r23, 0x01	; 1
    27aa:	0e 94 f8 19 	call	0x33f0	; 0x33f0 <memcpy_P>
    27ae:	08 95       	ret
    27b0:	08 95       	ret
    27b2:	08 95       	ret
L:\Programs\psp\Pandora\Arduino_v4_61/keys.h:90
  {
    case 0:
      memcpy_P(buffer, keystore[0], 16);
      break;
    case 1:
      memcpy_P(buffer, keystore[1], 16);
    27b4:	40 e1       	ldi	r20, 0x10	; 16
    27b6:	50 e0       	ldi	r21, 0x00	; 0
    27b8:	68 e7       	ldi	r22, 0x78	; 120
    27ba:	70 e0       	ldi	r23, 0x00	; 0
    27bc:	0e 94 f8 19 	call	0x33f0	; 0x33f0 <memcpy_P>
    27c0:	08 95       	ret
L:\Programs\psp\Pandora\Arduino_v4_61/keys.h:93
      break;
    case 2:
      memcpy_P(buffer, keystore[2], 16);
    27c2:	40 e1       	ldi	r20, 0x10	; 16
    27c4:	50 e0       	ldi	r21, 0x00	; 0
    27c6:	68 e8       	ldi	r22, 0x88	; 136
    27c8:	70 e0       	ldi	r23, 0x00	; 0
    27ca:	0e 94 f8 19 	call	0x33f0	; 0x33f0 <memcpy_P>
    27ce:	08 95       	ret
L:\Programs\psp\Pandora\Arduino_v4_61/keys.h:96
      break;
    case 3:
      memcpy_P(buffer, keystore[3], 16);
    27d0:	40 e1       	ldi	r20, 0x10	; 16
    27d2:	50 e0       	ldi	r21, 0x00	; 0
    27d4:	68 e9       	ldi	r22, 0x98	; 152
    27d6:	70 e0       	ldi	r23, 0x00	; 0
    27d8:	0e 94 f8 19 	call	0x33f0	; 0x33f0 <memcpy_P>
    27dc:	08 95       	ret
L:\Programs\psp\Pandora\Arduino_v4_61/keys.h:99
      break;
    case 4:
      memcpy_P(buffer, keystore[4], 16);
    27de:	40 e1       	ldi	r20, 0x10	; 16
    27e0:	50 e0       	ldi	r21, 0x00	; 0
    27e2:	68 ea       	ldi	r22, 0xA8	; 168
    27e4:	70 e0       	ldi	r23, 0x00	; 0
    27e6:	0e 94 f8 19 	call	0x33f0	; 0x33f0 <memcpy_P>
    27ea:	08 95       	ret
L:\Programs\psp\Pandora\Arduino_v4_61/keys.h:102
      break;
    case 5:
      memcpy_P(buffer, keystore[5], 16);
    27ec:	40 e1       	ldi	r20, 0x10	; 16
    27ee:	50 e0       	ldi	r21, 0x00	; 0
    27f0:	68 eb       	ldi	r22, 0xB8	; 184
    27f2:	70 e0       	ldi	r23, 0x00	; 0
    27f4:	0e 94 f8 19 	call	0x33f0	; 0x33f0 <memcpy_P>
    27f8:	08 95       	ret
L:\Programs\psp\Pandora\Arduino_v4_61/keys.h:105
      break;
    case 6:
      memcpy_P(buffer, keystore[6], 16);
    27fa:	40 e1       	ldi	r20, 0x10	; 16
    27fc:	50 e0       	ldi	r21, 0x00	; 0
    27fe:	68 ec       	ldi	r22, 0xC8	; 200
    2800:	70 e0       	ldi	r23, 0x00	; 0
    2802:	0e 94 f8 19 	call	0x33f0	; 0x33f0 <memcpy_P>
    2806:	08 95       	ret
L:\Programs\psp\Pandora\Arduino_v4_61/keys.h:111
      break;
    case 8:
      memcpy_P(buffer, keystore[7], 16);
      break;
    case 9:
      memcpy_P(buffer, keystore[8], 16);
    2808:	40 e1       	ldi	r20, 0x10	; 16
    280a:	50 e0       	ldi	r21, 0x00	; 0
    280c:	68 ee       	ldi	r22, 0xE8	; 232
    280e:	70 e0       	ldi	r23, 0x00	; 0
    2810:	0e 94 f8 19 	call	0x33f0	; 0x33f0 <memcpy_P>
    2814:	08 95       	ret
L:\Programs\psp\Pandora\Arduino_v4_61/keys.h:114
      break;
    case 0x0A:
      memcpy_P(buffer, keystore[9], 16);
    2816:	40 e1       	ldi	r20, 0x10	; 16
    2818:	50 e0       	ldi	r21, 0x00	; 0
    281a:	68 ef       	ldi	r22, 0xF8	; 248
    281c:	70 e0       	ldi	r23, 0x00	; 0
    281e:	0e 94 f8 19 	call	0x33f0	; 0x33f0 <memcpy_P>
    2822:	08 95       	ret
L:\Programs\psp\Pandora\Arduino_v4_61/keys.h:117
      break;
    case 0x0B:
      memcpy_P(buffer, keystore[10], 16);
    2824:	40 e1       	ldi	r20, 0x10	; 16
    2826:	50 e0       	ldi	r21, 0x00	; 0
    2828:	68 e0       	ldi	r22, 0x08	; 8
    282a:	71 e0       	ldi	r23, 0x01	; 1
    282c:	0e 94 f8 19 	call	0x33f0	; 0x33f0 <memcpy_P>
    2830:	08 95       	ret
L:\Programs\psp\Pandora\Arduino_v4_61/keys.h:120
      break;
    case 0x0C:
      memcpy_P(buffer, keystore[11], 16);
    2832:	40 e1       	ldi	r20, 0x10	; 16
    2834:	50 e0       	ldi	r21, 0x00	; 0
    2836:	68 e1       	ldi	r22, 0x18	; 24
    2838:	71 e0       	ldi	r23, 0x01	; 1
    283a:	0e 94 f8 19 	call	0x33f0	; 0x33f0 <memcpy_P>
    283e:	08 95       	ret
L:\Programs\psp\Pandora\Arduino_v4_61/keys.h:126
      break;
    case 0x0D:
      memcpy_P(buffer, keystore[12], 16);
      break;
    case 0x2F:
      memcpy_P(buffer, keystore[13], 16);
    2840:	40 e1       	ldi	r20, 0x10	; 16
    2842:	50 e0       	ldi	r21, 0x00	; 0
    2844:	68 e3       	ldi	r22, 0x38	; 56
    2846:	71 e0       	ldi	r23, 0x01	; 1
    2848:	0e 94 f8 19 	call	0x33f0	; 0x33f0 <memcpy_P>
    284c:	08 95       	ret
L:\Programs\psp\Pandora\Arduino_v4_61/keys.h:132
      break;
    case 0x97:
      memcpy_P(buffer, keystore[14], 16);
      break;
    case 0xB3:
      memcpy_P(buffer, keystore[15], 16);
    284e:	40 e1       	ldi	r20, 0x10	; 16
    2850:	50 e0       	ldi	r21, 0x00	; 0
    2852:	68 e5       	ldi	r22, 0x58	; 88
    2854:	71 e0       	ldi	r23, 0x01	; 1
    2856:	0e 94 f8 19 	call	0x33f0	; 0x33f0 <memcpy_P>
    285a:	08 95       	ret
L:\Programs\psp\Pandora\Arduino_v4_61/keys.h:135
      break;
    case 0xD9:
      memcpy_P(buffer, keystore[16], 16);
    285c:	40 e1       	ldi	r20, 0x10	; 16
    285e:	50 e0       	ldi	r21, 0x00	; 0
    2860:	68 e6       	ldi	r22, 0x68	; 104
    2862:	71 e0       	ldi	r23, 0x01	; 1
    2864:	0e 94 f8 19 	call	0x33f0	; 0x33f0 <memcpy_P>
    2868:	08 95       	ret

0000286a <MatrixSwap(unsigned char*, unsigned char)>:
_Z10MatrixSwapPhh():
L:\Programs\psp\Pandora\Arduino_v4_61/Arduino_v4_61.ino:261
  data[0xB] = secret2[6];
  data[0xF] = secret2[7];
}

void MatrixSwap(byte* data, uint8_t length)
{
    286a:	8f 92       	push	r8
    286c:	9f 92       	push	r9
    286e:	af 92       	push	r10
    2870:	bf 92       	push	r11
    2872:	cf 92       	push	r12
    2874:	df 92       	push	r13
    2876:	ef 92       	push	r14
    2878:	ff 92       	push	r15
    287a:	0f 93       	push	r16
    287c:	1f 93       	push	r17
    287e:	cf 93       	push	r28
    2880:	df 93       	push	r29
    2882:	cd b7       	in	r28, 0x3d	; 61
    2884:	de b7       	in	r29, 0x3e	; 62
    2886:	4c 01       	movw	r8, r24
    2888:	46 2f       	mov	r20, r22
L:\Programs\psp\Pandora\Arduino_v4_61/Arduino_v4_61.ino:271
  {
    temp[i] = data[newMap[i]];
  }

  memcpy(data, temp, length);
}
    288a:	0d b7       	in	r16, 0x3d	; 61
    288c:	1e b7       	in	r17, 0x3e	; 62
L:\Programs\psp\Pandora\Arduino_v4_61/Arduino_v4_61.ino:262
  data[0xF] = secret2[7];
}

void MatrixSwap(byte* data, uint8_t length)
{
  byte temp[length] = {0};
    288e:	26 2f       	mov	r18, r22
    2890:	30 e0       	ldi	r19, 0x00	; 0
    2892:	8d b7       	in	r24, 0x3d	; 61
    2894:	9e b7       	in	r25, 0x3e	; 62
    2896:	82 1b       	sub	r24, r18
    2898:	93 0b       	sbc	r25, r19
    289a:	0f b6       	in	r0, 0x3f	; 63
    289c:	f8 94       	cli
    289e:	9e bf       	out	0x3e, r25	; 62
    28a0:	0f be       	out	0x3f, r0	; 63
    28a2:	8d bf       	out	0x3d, r24	; 61
    28a4:	6d b7       	in	r22, 0x3d	; 61
    28a6:	7e b7       	in	r23, 0x3e	; 62
    28a8:	6f 5f       	subi	r22, 0xFF	; 255
    28aa:	7f 4f       	sbci	r23, 0xFF	; 255
    28ac:	5b 01       	movw	r10, r22
    28ae:	ad b7       	in	r26, 0x3d	; 61
    28b0:	be b7       	in	r27, 0x3e	; 62
    28b2:	11 96       	adiw	r26, 0x01	; 1
    28b4:	1c 92       	st	X, r1
    28b6:	11 97       	sbiw	r26, 0x01	; 1
    28b8:	12 96       	adiw	r26, 0x02	; 2
    28ba:	c9 01       	movw	r24, r18
    28bc:	02 97       	sbiw	r24, 0x02	; 2
    28be:	99 23       	and	r25, r25
    28c0:	1c f0       	brlt	.+6      	; 0x28c8 <MatrixSwap(unsigned char*, unsigned char)+0x5e>
    28c2:	1d 92       	st	X+, r1
    28c4:	01 97       	sbiw	r24, 0x01	; 1
    28c6:	fb cf       	rjmp	.-10     	; 0x28be <MatrixSwap(unsigned char*, unsigned char)+0x54>
L:\Programs\psp\Pandora\Arduino_v4_61/Arduino_v4_61.ino:263
  byte newMap[length] = {0x00, 0x04, 0x08, 0x0C, 0x01, 0x05, 0x09, 0x0D, 0x02, 0x06, 0x0A, 0x0E, 0x03, 0x07, 0x0B, 0x0F};
    28c8:	ed b7       	in	r30, 0x3d	; 61
    28ca:	fe b7       	in	r31, 0x3e	; 62
    28cc:	e2 1b       	sub	r30, r18
    28ce:	f3 0b       	sbc	r31, r19
    28d0:	0f b6       	in	r0, 0x3f	; 63
    28d2:	f8 94       	cli
    28d4:	fe bf       	out	0x3e, r31	; 62
    28d6:	0f be       	out	0x3f, r0	; 63
    28d8:	ed bf       	out	0x3d, r30	; 61
    28da:	ad b7       	in	r26, 0x3d	; 61
    28dc:	be b7       	in	r27, 0x3e	; 62
    28de:	11 96       	adiw	r26, 0x01	; 1
    28e0:	7d 01       	movw	r14, r26
    28e2:	11 82       	std	Z+1, r1	; 0x01
    28e4:	54 e0       	ldi	r21, 0x04	; 4
    28e6:	11 96       	adiw	r26, 0x01	; 1
    28e8:	5c 93       	st	X, r21
    28ea:	11 97       	sbiw	r26, 0x01	; 1
    28ec:	58 e0       	ldi	r21, 0x08	; 8
    28ee:	12 96       	adiw	r26, 0x02	; 2
    28f0:	5c 93       	st	X, r21
    28f2:	12 97       	sbiw	r26, 0x02	; 2
    28f4:	5c e0       	ldi	r21, 0x0C	; 12
    28f6:	13 96       	adiw	r26, 0x03	; 3
    28f8:	5c 93       	st	X, r21
    28fa:	13 97       	sbiw	r26, 0x03	; 3
    28fc:	51 e0       	ldi	r21, 0x01	; 1
    28fe:	14 96       	adiw	r26, 0x04	; 4
    2900:	5c 93       	st	X, r21
    2902:	14 97       	sbiw	r26, 0x04	; 4
    2904:	55 e0       	ldi	r21, 0x05	; 5
    2906:	15 96       	adiw	r26, 0x05	; 5
    2908:	5c 93       	st	X, r21
    290a:	15 97       	sbiw	r26, 0x05	; 5
    290c:	59 e0       	ldi	r21, 0x09	; 9
    290e:	16 96       	adiw	r26, 0x06	; 6
    2910:	5c 93       	st	X, r21
    2912:	16 97       	sbiw	r26, 0x06	; 6
    2914:	5d e0       	ldi	r21, 0x0D	; 13
    2916:	17 96       	adiw	r26, 0x07	; 7
    2918:	5c 93       	st	X, r21
    291a:	17 97       	sbiw	r26, 0x07	; 7
    291c:	52 e0       	ldi	r21, 0x02	; 2
    291e:	18 96       	adiw	r26, 0x08	; 8
    2920:	5c 93       	st	X, r21
    2922:	18 97       	sbiw	r26, 0x08	; 8
    2924:	56 e0       	ldi	r21, 0x06	; 6
    2926:	19 96       	adiw	r26, 0x09	; 9
    2928:	5c 93       	st	X, r21
    292a:	19 97       	sbiw	r26, 0x09	; 9
    292c:	5a e0       	ldi	r21, 0x0A	; 10
    292e:	1a 96       	adiw	r26, 0x0a	; 10
    2930:	5c 93       	st	X, r21
    2932:	1a 97       	sbiw	r26, 0x0a	; 10
    2934:	5e e0       	ldi	r21, 0x0E	; 14
    2936:	1b 96       	adiw	r26, 0x0b	; 11
    2938:	5c 93       	st	X, r21
    293a:	1b 97       	sbiw	r26, 0x0b	; 11
    293c:	53 e0       	ldi	r21, 0x03	; 3
    293e:	1c 96       	adiw	r26, 0x0c	; 12
    2940:	5c 93       	st	X, r21
    2942:	1c 97       	sbiw	r26, 0x0c	; 12
    2944:	57 e0       	ldi	r21, 0x07	; 7
    2946:	1d 96       	adiw	r26, 0x0d	; 13
    2948:	5c 93       	st	X, r21
    294a:	1d 97       	sbiw	r26, 0x0d	; 13
    294c:	5b e0       	ldi	r21, 0x0B	; 11
    294e:	1e 96       	adiw	r26, 0x0e	; 14
    2950:	5c 93       	st	X, r21
    2952:	1e 97       	sbiw	r26, 0x0e	; 14
    2954:	5f e0       	ldi	r21, 0x0F	; 15
    2956:	1f 96       	adiw	r26, 0x0f	; 15
    2958:	5c 93       	st	X, r21
    295a:	8d b7       	in	r24, 0x3d	; 61
    295c:	9e b7       	in	r25, 0x3e	; 62
    295e:	41 96       	adiw	r24, 0x11	; 17
    2960:	21 51       	subi	r18, 0x11	; 17
    2962:	31 09       	sbc	r19, r1
    2964:	33 23       	and	r19, r19
    2966:	34 f0       	brlt	.+12     	; 0x2974 <MatrixSwap(unsigned char*, unsigned char)+0x10a>
    2968:	dc 01       	movw	r26, r24
    296a:	1d 92       	st	X+, r1
    296c:	cd 01       	movw	r24, r26
    296e:	21 50       	subi	r18, 0x01	; 1
    2970:	31 09       	sbc	r19, r1
    2972:	f8 cf       	rjmp	.-16     	; 0x2964 <MatrixSwap(unsigned char*, unsigned char)+0xfa>
L:\Programs\psp\Pandora\Arduino_v4_61/Arduino_v4_61.ino:265

  for (uint8_t i = 0; i < length; i++)
    2974:	90 e0       	ldi	r25, 0x00	; 0
    2976:	94 17       	cp	r25, r20
    2978:	88 f4       	brcc	.+34     	; 0x299c <MatrixSwap(unsigned char*, unsigned char)+0x132>
L:\Programs\psp\Pandora\Arduino_v4_61/Arduino_v4_61.ino:267
  {
    temp[i] = data[newMap[i]];
    297a:	29 2f       	mov	r18, r25
    297c:	30 e0       	ldi	r19, 0x00	; 0
    297e:	d7 01       	movw	r26, r14
    2980:	a2 0f       	add	r26, r18
    2982:	b3 1f       	adc	r27, r19
    2984:	cc 90       	ld	r12, X
    2986:	c8 0c       	add	r12, r8
    2988:	d9 2c       	mov	r13, r9
    298a:	d1 1c       	adc	r13, r1
    298c:	f6 01       	movw	r30, r12
    298e:	80 81       	ld	r24, Z
    2990:	2a 0d       	add	r18, r10
    2992:	3b 1d       	adc	r19, r11
    2994:	d9 01       	movw	r26, r18
    2996:	8c 93       	st	X, r24
L:\Programs\psp\Pandora\Arduino_v4_61/Arduino_v4_61.ino:265
void MatrixSwap(byte* data, uint8_t length)
{
  byte temp[length] = {0};
  byte newMap[length] = {0x00, 0x04, 0x08, 0x0C, 0x01, 0x05, 0x09, 0x0D, 0x02, 0x06, 0x0A, 0x0E, 0x03, 0x07, 0x0B, 0x0F};

  for (uint8_t i = 0; i < length; i++)
    2998:	9f 5f       	subi	r25, 0xFF	; 255
    299a:	ed cf       	rjmp	.-38     	; 0x2976 <MatrixSwap(unsigned char*, unsigned char)+0x10c>
L:\Programs\psp\Pandora\Arduino_v4_61/Arduino_v4_61.ino:270
  {
    temp[i] = data[newMap[i]];
  }

  memcpy(data, temp, length);
    299c:	50 e0       	ldi	r21, 0x00	; 0
    299e:	c4 01       	movw	r24, r8
    29a0:	0e 94 97 1b 	call	0x372e	; 0x372e <memcpy>
L:\Programs\psp\Pandora\Arduino_v4_61/Arduino_v4_61.ino:271
}
    29a4:	0f b6       	in	r0, 0x3f	; 63
    29a6:	f8 94       	cli
    29a8:	1e bf       	out	0x3e, r17	; 62
    29aa:	0f be       	out	0x3f, r0	; 63
    29ac:	0d bf       	out	0x3d, r16	; 61
    29ae:	df 91       	pop	r29
    29b0:	cf 91       	pop	r28
    29b2:	1f 91       	pop	r17
    29b4:	0f 91       	pop	r16
    29b6:	ff 90       	pop	r15
    29b8:	ef 90       	pop	r14
    29ba:	df 90       	pop	r13
    29bc:	cf 90       	pop	r12
    29be:	bf 90       	pop	r11
    29c0:	af 90       	pop	r10
    29c2:	9f 90       	pop	r9
    29c4:	8f 90       	pop	r8
    29c6:	08 95       	ret

000029c8 <generateSysconResponses()>:
_Z23generateSysconResponsesv():
L:\Programs\psp\Pandora\Arduino_v4_61/Arduino_v4_61.ino:291
  aes.set_key(key, 16);
  aes.do_aes_decrypt(cipher, size, plain, key, 128, dec_iv_B);
}

void generateSysconResponses()
{
    29c8:	af 92       	push	r10
    29ca:	bf 92       	push	r11
    29cc:	cf 92       	push	r12
    29ce:	df 92       	push	r13
    29d0:	ef 92       	push	r14
    29d2:	ff 92       	push	r15
    29d4:	0f 93       	push	r16
    29d6:	1f 93       	push	r17
    29d8:	cf 93       	push	r28
    29da:	df 93       	push	r29
    29dc:	cd b7       	in	r28, 0x3d	; 61
    29de:	de b7       	in	r29, 0x3e	; 62
    29e0:	e0 97       	sbiw	r28, 0x30	; 48
    29e2:	0f b6       	in	r0, 0x3f	; 63
    29e4:	f8 94       	cli
    29e6:	de bf       	out	0x3e, r29	; 62
    29e8:	0f be       	out	0x3f, r0	; 63
    29ea:	cd bf       	out	0x3d, r28	; 61
L:\Programs\psp\Pandora\Arduino_v4_61/Arduino_v4_61.ino:325
  memcpy(second, challenge1a, 16);
  ecb_encrypt(second, challenge1b, tempKey, 16);
  MatrixSwap(challenge1b, 16);
  memcpy(tempBuffer + 3, challenge1a, 8);
  memcpy(tempBuffer + 3 + 8, challenge1b, 8);
}
    29ec:	cd b6       	in	r12, 0x3d	; 61
    29ee:	de b6       	in	r13, 0x3e	; 62
L:\Programs\psp\Pandora\Arduino_v4_61/Arduino_v4_61.ino:324
  ecb_encrypt(data, challenge1a, tempKey, 16);
  memcpy(second, challenge1a, 16);
  ecb_encrypt(second, challenge1b, tempKey, 16);
  MatrixSwap(challenge1b, 16);
  memcpy(tempBuffer + 3, challenge1a, 8);
  memcpy(tempBuffer + 3 + 8, challenge1b, 8);
    29f0:	ad b6       	in	r10, 0x3d	; 61
    29f2:	be b6       	in	r11, 0x3e	; 62
L:\Programs\psp\Pandora\Arduino_v4_61/Arduino_v4_61.ino:292
  aes.do_aes_decrypt(cipher, size, plain, key, 128, dec_iv_B);
}

void generateSysconResponses()
{
  version = msg[0];
    29f4:	80 91 9e 01 	lds	r24, 0x019E	; 0x80019e <msg>
    29f8:	80 93 55 01 	sts	0x0155, r24	; 0x800155 <version>
L:\Programs\psp\Pandora\Arduino_v4_61/Arduino_v4_61.ino:293
  byte tempKey[16] = {0};
    29fc:	80 e1       	ldi	r24, 0x10	; 16
    29fe:	fe 01       	movw	r30, r28
    2a00:	31 96       	adiw	r30, 0x01	; 1
    2a02:	df 01       	movw	r26, r30
    2a04:	1d 92       	st	X+, r1
    2a06:	8a 95       	dec	r24
    2a08:	e9 f7       	brne	.-6      	; 0x2a04 <generateSysconResponses()+0x3c>
L:\Programs\psp\Pandora\Arduino_v4_61/Arduino_v4_61.ino:294
  byte req[msgLength - 1] = {0};
    2a0a:	80 91 de 01 	lds	r24, 0x01DE	; 0x8001de <msgLength>
    2a0e:	90 e0       	ldi	r25, 0x00	; 0
    2a10:	9c 01       	movw	r18, r24
    2a12:	21 50       	subi	r18, 0x01	; 1
    2a14:	31 09       	sbc	r19, r1
    2a16:	ed b7       	in	r30, 0x3d	; 61
    2a18:	fe b7       	in	r31, 0x3e	; 62
    2a1a:	e2 1b       	sub	r30, r18
    2a1c:	f3 0b       	sbc	r31, r19
    2a1e:	0f b6       	in	r0, 0x3f	; 63
    2a20:	f8 94       	cli
    2a22:	fe bf       	out	0x3e, r31	; 62
    2a24:	0f be       	out	0x3f, r0	; 63
    2a26:	ed bf       	out	0x3d, r30	; 61
    2a28:	2d b7       	in	r18, 0x3d	; 61
    2a2a:	3e b7       	in	r19, 0x3e	; 62
    2a2c:	2f 5f       	subi	r18, 0xFF	; 255
    2a2e:	3f 4f       	sbci	r19, 0xFF	; 255
    2a30:	79 01       	movw	r14, r18
    2a32:	89 01       	movw	r16, r18
    2a34:	11 82       	std	Z+1, r1	; 0x01
    2a36:	32 96       	adiw	r30, 0x02	; 2
    2a38:	03 97       	sbiw	r24, 0x03	; 3
    2a3a:	99 23       	and	r25, r25
    2a3c:	1c f0       	brlt	.+6      	; 0x2a44 <generateSysconResponses()+0x7c>
    2a3e:	11 92       	st	Z+, r1
    2a40:	01 97       	sbiw	r24, 0x01	; 1
    2a42:	fb cf       	rjmp	.-10     	; 0x2a3a <generateSysconResponses()+0x72>
L:\Programs\psp\Pandora\Arduino_v4_61/Arduino_v4_61.ino:298
  byte data[16];
  byte second[16];

  get_keystore(tempKey, version);
    2a44:	60 91 55 01 	lds	r22, 0x0155	; 0x800155 <version>
    2a48:	ce 01       	movw	r24, r28
    2a4a:	01 96       	adiw	r24, 0x01	; 1
    2a4c:	0e 94 85 13 	call	0x270a	; 0x270a <get_keystore(unsigned char*, unsigned char)>
L:\Programs\psp\Pandora\Arduino_v4_61/Arduino_v4_61.ino:300

  tempBuffer[0] = 0xA5;
    2a50:	e6 e5       	ldi	r30, 0x56	; 86
    2a52:	f1 e0       	ldi	r31, 0x01	; 1
    2a54:	85 ea       	ldi	r24, 0xA5	; 165
    2a56:	80 83       	st	Z, r24
L:\Programs\psp\Pandora\Arduino_v4_61/Arduino_v4_61.ino:301
  tempBuffer[1] = 0x12;
    2a58:	82 e1       	ldi	r24, 0x12	; 18
    2a5a:	81 83       	std	Z+1, r24	; 0x01
L:\Programs\psp\Pandora\Arduino_v4_61/Arduino_v4_61.ino:302
  tempBuffer[2] = 0x06;
    2a5c:	86 e0       	ldi	r24, 0x06	; 6
    2a5e:	82 83       	std	Z+2, r24	; 0x02
L:\Programs\psp\Pandora\Arduino_v4_61/Arduino_v4_61.ino:304

  if (tempKey[0] == 0)
    2a60:	89 81       	ldd	r24, Y+1	; 0x01
    2a62:	88 23       	and	r24, r24
    2a64:	91 f0       	breq	.+36     	; 0x2a8a <generateSysconResponses()+0xc2>
L:\Programs\psp\Pandora\Arduino_v4_61/Arduino_v4_61.ino:314
      tempBuffer[i] = 0xFF;

    return;
  }

  for (uint8_t i = 1; i < msgLength; i++)
    2a66:	21 e0       	ldi	r18, 0x01	; 1
    2a68:	80 91 de 01 	lds	r24, 0x01DE	; 0x8001de <msgLength>
    2a6c:	28 17       	cp	r18, r24
    2a6e:	f8 f4       	brcc	.+62     	; 0x2aae <generateSysconResponses()+0xe6>
L:\Programs\psp\Pandora\Arduino_v4_61/Arduino_v4_61.ino:315
    req[i-1] = msg[i];
    2a70:	82 2f       	mov	r24, r18
    2a72:	90 e0       	ldi	r25, 0x00	; 0
    2a74:	fc 01       	movw	r30, r24
    2a76:	31 97       	sbiw	r30, 0x01	; 1
    2a78:	82 56       	subi	r24, 0x62	; 98
    2a7a:	9e 4f       	sbci	r25, 0xFE	; 254
    2a7c:	dc 01       	movw	r26, r24
    2a7e:	8c 91       	ld	r24, X
    2a80:	e0 0f       	add	r30, r16
    2a82:	f1 1f       	adc	r31, r17
    2a84:	80 83       	st	Z, r24
L:\Programs\psp\Pandora\Arduino_v4_61/Arduino_v4_61.ino:314
      tempBuffer[i] = 0xFF;

    return;
  }

  for (uint8_t i = 1; i < msgLength; i++)
    2a86:	2f 5f       	subi	r18, 0xFF	; 255
    2a88:	ef cf       	rjmp	.-34     	; 0x2a68 <generateSysconResponses()+0xa0>
L:\Programs\psp\Pandora\Arduino_v4_61/Arduino_v4_61.ino:306
  tempBuffer[1] = 0x12;
  tempBuffer[2] = 0x06;

  if (tempKey[0] == 0)
  {
    debugSerial.println(F("Key not found"));
    2a8a:	6b ea       	ldi	r22, 0xAB	; 171
    2a8c:	72 e0       	ldi	r23, 0x02	; 2
    2a8e:	88 e4       	ldi	r24, 0x48	; 72
    2a90:	92 e0       	ldi	r25, 0x02	; 2
    2a92:	0e 94 21 10 	call	0x2042	; 0x2042 <Print::println(__FlashStringHelper const*)>
L:\Programs\psp\Pandora\Arduino_v4_61/Arduino_v4_61.ino:308

    for (uint8_t i = 3; i < 19; i++)
    2a96:	83 e0       	ldi	r24, 0x03	; 3
    2a98:	83 31       	cpi	r24, 0x13	; 19
    2a9a:	08 f0       	brcs	.+2      	; 0x2a9e <generateSysconResponses()+0xd6>
    2a9c:	65 c0       	rjmp	.+202    	; 0x2b68 <generateSysconResponses()+0x1a0>
L:\Programs\psp\Pandora\Arduino_v4_61/Arduino_v4_61.ino:309
      tempBuffer[i] = 0xFF;
    2a9e:	e8 2f       	mov	r30, r24
    2aa0:	f0 e0       	ldi	r31, 0x00	; 0
    2aa2:	ea 5a       	subi	r30, 0xAA	; 170
    2aa4:	fe 4f       	sbci	r31, 0xFE	; 254
    2aa6:	9f ef       	ldi	r25, 0xFF	; 255
    2aa8:	90 83       	st	Z, r25
L:\Programs\psp\Pandora\Arduino_v4_61/Arduino_v4_61.ino:308

  if (tempKey[0] == 0)
  {
    debugSerial.println(F("Key not found"));

    for (uint8_t i = 3; i < 19; i++)
    2aaa:	8f 5f       	subi	r24, 0xFF	; 255
    2aac:	f5 cf       	rjmp	.-22     	; 0x2a98 <generateSysconResponses()+0xd0>
L:\Programs\psp\Pandora\Arduino_v4_61/Arduino_v4_61.ino:317
  }

  for (uint8_t i = 1; i < msgLength; i++)
    req[i-1] = msg[i];

  MixChallenge1(data, version, req);
    2aae:	a7 01       	movw	r20, r14
    2ab0:	60 91 55 01 	lds	r22, 0x0155	; 0x800155 <version>
    2ab4:	ce 01       	movw	r24, r28
    2ab6:	41 96       	adiw	r24, 0x11	; 17
    2ab8:	0e 94 2e 13 	call	0x265c	; 0x265c <MixChallenge1(unsigned char*, unsigned char, unsigned char*)>
L:\Programs\psp\Pandora\Arduino_v4_61/Arduino_v4_61.ino:318
  MatrixSwap(data, 16);
    2abc:	60 e1       	ldi	r22, 0x10	; 16
    2abe:	ce 01       	movw	r24, r28
    2ac0:	41 96       	adiw	r24, 0x11	; 17
    2ac2:	0e 94 35 14 	call	0x286a	; 0x286a <MatrixSwap(unsigned char*, unsigned char)>
L:\Programs\psp\Pandora\Arduino_v4_61/Arduino_v4_61.ino:319
  ecb_encrypt(data, challenge1a, tempKey, 16);
    2ac6:	20 e1       	ldi	r18, 0x10	; 16
    2ac8:	30 e0       	ldi	r19, 0x00	; 0
    2aca:	ae 01       	movw	r20, r28
    2acc:	4f 5f       	subi	r20, 0xFF	; 255
    2ace:	5f 4f       	sbci	r21, 0xFF	; 255
    2ad0:	63 e3       	ldi	r22, 0x33	; 51
    2ad2:	71 e0       	ldi	r23, 0x01	; 1
    2ad4:	ce 01       	movw	r24, r28
    2ad6:	41 96       	adiw	r24, 0x11	; 17
    2ad8:	0e 94 07 0f 	call	0x1e0e	; 0x1e0e <ecb_encrypt(unsigned char*, unsigned char*, unsigned char*, int)>
L:\Programs\psp\Pandora\Arduino_v4_61/Arduino_v4_61.ino:320
  memcpy(second, challenge1a, 16);
    2adc:	80 e1       	ldi	r24, 0x10	; 16
    2ade:	e3 e3       	ldi	r30, 0x33	; 51
    2ae0:	f1 e0       	ldi	r31, 0x01	; 1
    2ae2:	de 01       	movw	r26, r28
    2ae4:	91 96       	adiw	r26, 0x21	; 33
    2ae6:	01 90       	ld	r0, Z+
    2ae8:	0d 92       	st	X+, r0
    2aea:	8a 95       	dec	r24
    2aec:	e1 f7       	brne	.-8      	; 0x2ae6 <generateSysconResponses()+0x11e>
L:\Programs\psp\Pandora\Arduino_v4_61/Arduino_v4_61.ino:321
  ecb_encrypt(second, challenge1b, tempKey, 16);
    2aee:	20 e1       	ldi	r18, 0x10	; 16
    2af0:	30 e0       	ldi	r19, 0x00	; 0
    2af2:	ae 01       	movw	r20, r28
    2af4:	4f 5f       	subi	r20, 0xFF	; 255
    2af6:	5f 4f       	sbci	r21, 0xFF	; 255
    2af8:	65 e4       	ldi	r22, 0x45	; 69
    2afa:	71 e0       	ldi	r23, 0x01	; 1
    2afc:	ce 01       	movw	r24, r28
    2afe:	81 96       	adiw	r24, 0x21	; 33
    2b00:	0e 94 07 0f 	call	0x1e0e	; 0x1e0e <ecb_encrypt(unsigned char*, unsigned char*, unsigned char*, int)>
L:\Programs\psp\Pandora\Arduino_v4_61/Arduino_v4_61.ino:322
  MatrixSwap(challenge1b, 16);
    2b04:	60 e1       	ldi	r22, 0x10	; 16
    2b06:	85 e4       	ldi	r24, 0x45	; 69
    2b08:	91 e0       	ldi	r25, 0x01	; 1
    2b0a:	0e 94 35 14 	call	0x286a	; 0x286a <MatrixSwap(unsigned char*, unsigned char)>
L:\Programs\psp\Pandora\Arduino_v4_61/Arduino_v4_61.ino:323
  memcpy(tempBuffer + 3, challenge1a, 8);
    2b0e:	88 e0       	ldi	r24, 0x08	; 8
    2b10:	e3 e3       	ldi	r30, 0x33	; 51
    2b12:	f1 e0       	ldi	r31, 0x01	; 1
    2b14:	a9 e5       	ldi	r26, 0x59	; 89
    2b16:	b1 e0       	ldi	r27, 0x01	; 1
    2b18:	01 90       	ld	r0, Z+
    2b1a:	0d 92       	st	X+, r0
    2b1c:	8a 95       	dec	r24
    2b1e:	e1 f7       	brne	.-8      	; 0x2b18 <generateSysconResponses()+0x150>
L:\Programs\psp\Pandora\Arduino_v4_61/Arduino_v4_61.ino:324
  memcpy(tempBuffer + 3 + 8, challenge1b, 8);
    2b20:	88 e0       	ldi	r24, 0x08	; 8
    2b22:	e5 e4       	ldi	r30, 0x45	; 69
    2b24:	f1 e0       	ldi	r31, 0x01	; 1
    2b26:	a1 e6       	ldi	r26, 0x61	; 97
    2b28:	b1 e0       	ldi	r27, 0x01	; 1
    2b2a:	01 90       	ld	r0, Z+
    2b2c:	0d 92       	st	X+, r0
    2b2e:	8a 95       	dec	r24
    2b30:	e1 f7       	brne	.-8      	; 0x2b2a <generateSysconResponses()+0x162>
    2b32:	0f b6       	in	r0, 0x3f	; 63
    2b34:	f8 94       	cli
    2b36:	be be       	out	0x3e, r11	; 62
    2b38:	0f be       	out	0x3f, r0	; 63
    2b3a:	ad be       	out	0x3d, r10	; 61
L:\Programs\psp\Pandora\Arduino_v4_61/Arduino_v4_61.ino:325
}
    2b3c:	0f b6       	in	r0, 0x3f	; 63
    2b3e:	f8 94       	cli
    2b40:	de be       	out	0x3e, r13	; 62
    2b42:	0f be       	out	0x3f, r0	; 63
    2b44:	cd be       	out	0x3d, r12	; 61
    2b46:	e0 96       	adiw	r28, 0x30	; 48
    2b48:	0f b6       	in	r0, 0x3f	; 63
    2b4a:	f8 94       	cli
    2b4c:	de bf       	out	0x3e, r29	; 62
    2b4e:	0f be       	out	0x3f, r0	; 63
    2b50:	cd bf       	out	0x3d, r28	; 61
    2b52:	df 91       	pop	r29
    2b54:	cf 91       	pop	r28
    2b56:	1f 91       	pop	r17
    2b58:	0f 91       	pop	r16
    2b5a:	ff 90       	pop	r15
    2b5c:	ef 90       	pop	r14
    2b5e:	df 90       	pop	r13
    2b60:	cf 90       	pop	r12
    2b62:	bf 90       	pop	r11
    2b64:	af 90       	pop	r10
    2b66:	08 95       	ret
    2b68:	0f b6       	in	r0, 0x3f	; 63
    2b6a:	f8 94       	cli
    2b6c:	be be       	out	0x3e, r11	; 62
    2b6e:	0f be       	out	0x3f, r0	; 63
    2b70:	ad be       	out	0x3d, r10	; 61
    2b72:	e4 cf       	rjmp	.-56     	; 0x2b3c <generateSysconResponses()+0x174>

00002b74 <loop>:
loop():
L:\Programs\psp\Pandora\Arduino_v4_61/Arduino_v4_61.ino:360

  psp_write(tempBuffer, 5, true);
}

void loop()
{
    2b74:	9f 92       	push	r9
    2b76:	af 92       	push	r10
    2b78:	bf 92       	push	r11
    2b7a:	cf 92       	push	r12
    2b7c:	df 92       	push	r13
    2b7e:	ef 92       	push	r14
    2b80:	ff 92       	push	r15
    2b82:	0f 93       	push	r16
    2b84:	1f 93       	push	r17
    2b86:	cf 93       	push	r28
    2b88:	df 93       	push	r29
    2b8a:	cd b7       	in	r28, 0x3d	; 61
    2b8c:	de b7       	in	r29, 0x3e	; 62
    2b8e:	c0 5b       	subi	r28, 0xB0	; 176
    2b90:	d1 09       	sbc	r29, r1
    2b92:	0f b6       	in	r0, 0x3f	; 63
    2b94:	f8 94       	cli
    2b96:	de bf       	out	0x3e, r29	; 62
    2b98:	0f be       	out	0x3f, r0	; 63
    2b9a:	cd bf       	out	0x3d, r28	; 61
L:\Programs\psp\Pandora\Arduino_v4_61/Arduino_v4_61.ino:361
  getVoltage();
    2b9c:	0e 94 4e 0f 	call	0x1e9c	; 0x1e9c <getVoltage()>
L:\Programs\psp\Pandora\Arduino_v4_61/Arduino_v4_61.ino:363

  if (pspSerial.available() > 3)
    2ba0:	83 ee       	ldi	r24, 0xE3	; 227
    2ba2:	91 e0       	ldi	r25, 0x01	; 1
    2ba4:	0e 94 cd 06 	call	0xd9a	; 0xd9a <SoftwareSerialParity::available()>
    2ba8:	04 97       	sbiw	r24, 0x04	; 4
    2baa:	5c f4       	brge	.+22     	; 0x2bc2 <loop+0x4e>
L:\Programs\psp\Pandora\Arduino_v4_61/Arduino_v4_61.ino:484
        memcpy(payload91, payload + 8, 8);    // payload[8:16]
        memcpy(payload91 + 8, payload, 8);    // payload[0:8]
        memset(payload91 + 16, 0, 16);        // bytearray(16)
        memcpy_P(temp_go_secret, go_secret, 16);

        for (uint8_t i = 16; i < 32; i++)
    2bac:	83 e0       	ldi	r24, 0x03	; 3
L:\Programs\psp\Pandora\Arduino_v4_61/Arduino_v4_61.ino:580
    }
    else
      debugSerial.println();
  }

  for (uint8_t i = 3; i < 19; i++)
    2bae:	83 31       	cpi	r24, 0x13	; 19
    2bb0:	08 f0       	brcs	.+2      	; 0x2bb4 <loop+0x40>
    2bb2:	a6 c2       	rjmp	.+1356   	; 0x3100 <loop+0x58c>
L:\Programs\psp\Pandora\Arduino_v4_61/Arduino_v4_61.ino:581
      tempBuffer[i] = 0x00;
    2bb4:	e8 2f       	mov	r30, r24
    2bb6:	f0 e0       	ldi	r31, 0x00	; 0
    2bb8:	ea 5a       	subi	r30, 0xAA	; 170
    2bba:	fe 4f       	sbci	r31, 0xFE	; 254
    2bbc:	10 82       	st	Z, r1
L:\Programs\psp\Pandora\Arduino_v4_61/Arduino_v4_61.ino:580
    }
    else
      debugSerial.println();
  }

  for (uint8_t i = 3; i < 19; i++)
    2bbe:	8f 5f       	subi	r24, 0xFF	; 255
    2bc0:	f6 cf       	rjmp	.-20     	; 0x2bae <loop+0x3a>
L:\Programs\psp\Pandora\Arduino_v4_61/Arduino_v4_61.ino:365
{
  getVoltage();

  if (pspSerial.available() > 3)
  {
    pspdata[0] = pspSerial.read();
    2bc2:	83 ee       	ldi	r24, 0xE3	; 227
    2bc4:	91 e0       	ldi	r25, 0x01	; 1
    2bc6:	0e 94 ee 06 	call	0xddc	; 0xddc <SoftwareSerialParity::read()>
    2bca:	0f ed       	ldi	r16, 0xDF	; 223
    2bcc:	11 e0       	ldi	r17, 0x01	; 1
    2bce:	d8 01       	movw	r26, r16
    2bd0:	8c 93       	st	X, r24
L:\Programs\psp\Pandora\Arduino_v4_61/Arduino_v4_61.ino:367

    debugSerial.print(F("PSP:     "));
    2bd2:	60 ea       	ldi	r22, 0xA0	; 160
    2bd4:	73 e0       	ldi	r23, 0x03	; 3
    2bd6:	88 e4       	ldi	r24, 0x48	; 72
    2bd8:	92 e0       	ldi	r25, 0x02	; 2
    2bda:	0e 94 75 04 	call	0x8ea	; 0x8ea <Print::print(__FlashStringHelper const*)>
L:\Programs\psp\Pandora\Arduino_v4_61/Arduino_v4_61.ino:368
    log_byte(pspdata[0]);
    2bde:	f8 01       	movw	r30, r16
    2be0:	80 81       	ld	r24, Z
    2be2:	0e 94 fb 0f 	call	0x1ff6	; 0x1ff6 <log_byte(unsigned char)>
L:\Programs\psp\Pandora\Arduino_v4_61/Arduino_v4_61.ino:370

    if (pspdata[0] == 0x5A)
    2be6:	d8 01       	movw	r26, r16
    2be8:	8c 91       	ld	r24, X
    2bea:	8a 35       	cpi	r24, 0x5A	; 90
    2bec:	29 f0       	breq	.+10     	; 0x2bf8 <loop+0x84>
L:\Programs\psp\Pandora\Arduino_v4_61/Arduino_v4_61.ino:577
#if enableSleep
      downTime = millis();
#endif
    }
    else
      debugSerial.println();
    2bee:	88 e4       	ldi	r24, 0x48	; 72
    2bf0:	92 e0       	ldi	r25, 0x02	; 2
    2bf2:	0e 94 15 10 	call	0x202a	; 0x202a <Print::println()>
    2bf6:	da cf       	rjmp	.-76     	; 0x2bac <loop+0x38>
L:\Programs\psp\Pandora\Arduino_v4_61/Arduino_v4_61.ino:372
    debugSerial.print(F("PSP:     "));
    log_byte(pspdata[0]);

    if (pspdata[0] == 0x5A)
    {
      pspdata[1] = pspSerial.read(); // packet length
    2bf8:	83 ee       	ldi	r24, 0xE3	; 227
    2bfa:	91 e0       	ldi	r25, 0x01	; 1
    2bfc:	0e 94 ee 06 	call	0xddc	; 0xddc <SoftwareSerialParity::read()>
    2c00:	f8 01       	movw	r30, r16
    2c02:	81 83       	std	Z+1, r24	; 0x01
L:\Programs\psp\Pandora\Arduino_v4_61/Arduino_v4_61.ino:373
      pspdata[2] = pspSerial.read(); // operation code
    2c04:	83 ee       	ldi	r24, 0xE3	; 227
    2c06:	91 e0       	ldi	r25, 0x01	; 1
    2c08:	0e 94 ee 06 	call	0xddc	; 0xddc <SoftwareSerialParity::read()>
    2c0c:	d8 01       	movw	r26, r16
    2c0e:	12 96       	adiw	r26, 0x02	; 2
    2c10:	8c 93       	st	X, r24
    2c12:	12 97       	sbiw	r26, 0x02	; 2
L:\Programs\psp\Pandora\Arduino_v4_61/Arduino_v4_61.ino:375

      log_byte(pspdata[1]);
    2c14:	11 96       	adiw	r26, 0x01	; 1
    2c16:	8c 91       	ld	r24, X
    2c18:	0e 94 fb 0f 	call	0x1ff6	; 0x1ff6 <log_byte(unsigned char)>
L:\Programs\psp\Pandora\Arduino_v4_61/Arduino_v4_61.ino:376
      log_byte(pspdata[2]);
    2c1c:	f8 01       	movw	r30, r16
    2c1e:	82 81       	ldd	r24, Z+2	; 0x02
    2c20:	0e 94 fb 0f 	call	0x1ff6	; 0x1ff6 <log_byte(unsigned char)>
L:\Programs\psp\Pandora\Arduino_v4_61/Arduino_v4_61.ino:378

      if (pspdata[1] == 0x02) // if packet has no message then byte after the opcode is the checksum
    2c24:	d8 01       	movw	r26, r16
    2c26:	11 96       	adiw	r26, 0x01	; 1
    2c28:	8c 91       	ld	r24, X
    2c2a:	82 30       	cpi	r24, 0x02	; 2
    2c2c:	21 f0       	breq	.+8      	; 0x2c36 <loop+0xc2>
L:\Programs\psp\Pandora\Arduino_v4_61/Arduino_v4_61.ino:382
        msgLength = 0;
      else // packet contains a message
      {
        msgLength = ((uint8_t)pspdata[1] - 2); 
    2c2e:	82 50       	subi	r24, 0x02	; 2
    2c30:	80 93 de 01 	sts	0x01DE, r24	; 0x8001de <msgLength>
    2c34:	07 c0       	rjmp	.+14     	; 0x2c44 <loop+0xd0>
L:\Programs\psp\Pandora\Arduino_v4_61/Arduino_v4_61.ino:379

      log_byte(pspdata[1]);
      log_byte(pspdata[2]);

      if (pspdata[1] == 0x02) // if packet has no message then byte after the opcode is the checksum
        msgLength = 0;
    2c36:	10 92 de 01 	sts	0x01DE, r1	; 0x8001de <msgLength>
    2c3a:	39 c0       	rjmp	.+114    	; 0x2cae <loop+0x13a>
L:\Programs\psp\Pandora\Arduino_v4_61/Arduino_v4_61.ino:386
      {
        msgLength = ((uint8_t)pspdata[1] - 2); 

        while (pspSerial.available() < (uint8_t)pspdata[1] - 1)
        {
          delayMicroseconds(10);
    2c3c:	8a e0       	ldi	r24, 0x0A	; 10
    2c3e:	90 e0       	ldi	r25, 0x00	; 0
    2c40:	0e 94 1c 04 	call	0x838	; 0x838 <delayMicroseconds>
L:\Programs\psp\Pandora\Arduino_v4_61/Arduino_v4_61.ino:384
        msgLength = 0;
      else // packet contains a message
      {
        msgLength = ((uint8_t)pspdata[1] - 2); 

        while (pspSerial.available() < (uint8_t)pspdata[1] - 1)
    2c44:	83 ee       	ldi	r24, 0xE3	; 227
    2c46:	91 e0       	ldi	r25, 0x01	; 1
    2c48:	0e 94 cd 06 	call	0xd9a	; 0xd9a <SoftwareSerialParity::available()>
    2c4c:	20 91 e0 01 	lds	r18, 0x01E0	; 0x8001e0 <pspdata+0x1>
    2c50:	21 50       	subi	r18, 0x01	; 1
    2c52:	33 0b       	sbc	r19, r19
    2c54:	82 17       	cp	r24, r18
    2c56:	93 07       	cpc	r25, r19
    2c58:	8c f3       	brlt	.-30     	; 0x2c3c <loop+0xc8>
L:\Programs\psp\Pandora\Arduino_v4_61/Arduino_v4_61.ino:389
        {
          delayMicroseconds(10);
        }; // wait until bytestoread has remaining msg and csum (opcode is already read so -1)

        for (uint8_t i = 0; i < msgLength; i++)
    2c5a:	10 e0       	ldi	r17, 0x00	; 0
    2c5c:	0a c0       	rjmp	.+20     	; 0x2c72 <loop+0xfe>
L:\Programs\psp\Pandora\Arduino_v4_61/Arduino_v4_61.ino:390
          msg[i] = pspSerial.read();
    2c5e:	83 ee       	ldi	r24, 0xE3	; 227
    2c60:	91 e0       	ldi	r25, 0x01	; 1
    2c62:	0e 94 ee 06 	call	0xddc	; 0xddc <SoftwareSerialParity::read()>
    2c66:	e1 2f       	mov	r30, r17
    2c68:	f0 e0       	ldi	r31, 0x00	; 0
    2c6a:	e2 56       	subi	r30, 0x62	; 98
    2c6c:	fe 4f       	sbci	r31, 0xFE	; 254
    2c6e:	80 83       	st	Z, r24
L:\Programs\psp\Pandora\Arduino_v4_61/Arduino_v4_61.ino:389
        while (pspSerial.available() < (uint8_t)pspdata[1] - 1)
        {
          delayMicroseconds(10);
        }; // wait until bytestoread has remaining msg and csum (opcode is already read so -1)

        for (uint8_t i = 0; i < msgLength; i++)
    2c70:	1f 5f       	subi	r17, 0xFF	; 255
    2c72:	80 91 de 01 	lds	r24, 0x01DE	; 0x8001de <msgLength>
    2c76:	18 17       	cp	r17, r24
    2c78:	90 f3       	brcs	.-28     	; 0x2c5e <loop+0xea>
L:\Programs\psp\Pandora\Arduino_v4_61/Arduino_v4_61.ino:392
          msg[i] = pspSerial.read();

        debugSerial.print(F("( "));
    2c7a:	6d e9       	ldi	r22, 0x9D	; 157
    2c7c:	73 e0       	ldi	r23, 0x03	; 3
    2c7e:	88 e4       	ldi	r24, 0x48	; 72
    2c80:	92 e0       	ldi	r25, 0x02	; 2
    2c82:	0e 94 75 04 	call	0x8ea	; 0x8ea <Print::print(__FlashStringHelper const*)>
L:\Programs\psp\Pandora\Arduino_v4_61/Arduino_v4_61.ino:393
        for (uint8_t i = 0; i < msgLength; i++)
    2c86:	10 e0       	ldi	r17, 0x00	; 0
    2c88:	08 c0       	rjmp	.+16     	; 0x2c9a <loop+0x126>
L:\Programs\psp\Pandora\Arduino_v4_61/Arduino_v4_61.ino:394
          log_byte(msg[i]);
    2c8a:	e1 2f       	mov	r30, r17
    2c8c:	f0 e0       	ldi	r31, 0x00	; 0
    2c8e:	e2 56       	subi	r30, 0x62	; 98
    2c90:	fe 4f       	sbci	r31, 0xFE	; 254
    2c92:	80 81       	ld	r24, Z
    2c94:	0e 94 fb 0f 	call	0x1ff6	; 0x1ff6 <log_byte(unsigned char)>
L:\Programs\psp\Pandora\Arduino_v4_61/Arduino_v4_61.ino:393

        for (uint8_t i = 0; i < msgLength; i++)
          msg[i] = pspSerial.read();

        debugSerial.print(F("( "));
        for (uint8_t i = 0; i < msgLength; i++)
    2c98:	1f 5f       	subi	r17, 0xFF	; 255
    2c9a:	80 91 de 01 	lds	r24, 0x01DE	; 0x8001de <msgLength>
    2c9e:	18 17       	cp	r17, r24
    2ca0:	a0 f3       	brcs	.-24     	; 0x2c8a <loop+0x116>
L:\Programs\psp\Pandora\Arduino_v4_61/Arduino_v4_61.ino:395
          log_byte(msg[i]);
        debugSerial.print(F(") "));
    2ca2:	6a e9       	ldi	r22, 0x9A	; 154
    2ca4:	73 e0       	ldi	r23, 0x03	; 3
    2ca6:	88 e4       	ldi	r24, 0x48	; 72
    2ca8:	92 e0       	ldi	r25, 0x02	; 2
    2caa:	0e 94 75 04 	call	0x8ea	; 0x8ea <Print::print(__FlashStringHelper const*)>
L:\Programs\psp\Pandora\Arduino_v4_61/Arduino_v4_61.ino:398
      }

      pspdata[3] = pspSerial.read();
    2cae:	83 ee       	ldi	r24, 0xE3	; 227
    2cb0:	91 e0       	ldi	r25, 0x01	; 1
    2cb2:	0e 94 ee 06 	call	0xddc	; 0xddc <SoftwareSerialParity::read()>
    2cb6:	0f ed       	ldi	r16, 0xDF	; 223
    2cb8:	11 e0       	ldi	r17, 0x01	; 1
    2cba:	f8 01       	movw	r30, r16
    2cbc:	83 83       	std	Z+3, r24	; 0x03
L:\Programs\psp\Pandora\Arduino_v4_61/Arduino_v4_61.ino:400

      log_byte(pspdata[3]);
    2cbe:	0e 94 fb 0f 	call	0x1ff6	; 0x1ff6 <log_byte(unsigned char)>
L:\Programs\psp\Pandora\Arduino_v4_61/Arduino_v4_61.ino:401
      debugSerial.println();
    2cc2:	88 e4       	ldi	r24, 0x48	; 72
    2cc4:	92 e0       	ldi	r25, 0x02	; 2
    2cc6:	0e 94 15 10 	call	0x202a	; 0x202a <Print::println()>
L:\Programs\psp\Pandora\Arduino_v4_61/Arduino_v4_61.ino:403

      switch (pspdata[2])
    2cca:	d8 01       	movw	r26, r16
    2ccc:	12 96       	adiw	r26, 0x02	; 2
    2cce:	8c 91       	ld	r24, X
    2cd0:	89 30       	cpi	r24, 0x09	; 9
    2cd2:	09 f4       	brne	.+2      	; 0x2cd6 <loop+0x162>
    2cd4:	ca c1       	rjmp	.+916    	; 0x306a <loop+0x4f6>
    2cd6:	e0 f0       	brcs	.+56     	; 0x2d10 <loop+0x19c>
    2cd8:	86 31       	cpi	r24, 0x16	; 22
    2cda:	09 f4       	brne	.+2      	; 0x2cde <loop+0x16a>
    2cdc:	d5 c1       	rjmp	.+938    	; 0x3088 <loop+0x514>
    2cde:	d8 f5       	brcc	.+118    	; 0x2d56 <loop+0x1e2>
    2ce0:	8c 30       	cpi	r24, 0x0C	; 12
    2ce2:	09 f4       	brne	.+2      	; 0x2ce6 <loop+0x172>
    2ce4:	4c c0       	rjmp	.+152    	; 0x2d7e <loop+0x20a>
    2ce6:	8d 30       	cpi	r24, 0x0D	; 13
    2ce8:	09 f4       	brne	.+2      	; 0x2cec <loop+0x178>
    2cea:	dd c1       	rjmp	.+954    	; 0x30a6 <loop+0x532>
    2cec:	8b 30       	cpi	r24, 0x0B	; 11
    2cee:	09 f0       	breq	.+2      	; 0x2cf2 <loop+0x17e>
    2cf0:	f8 c1       	rjmp	.+1008   	; 0x30e2 <loop+0x56e>
L:\Programs\psp\Pandora\Arduino_v4_61/Arduino_v4_61.ino:518
      }
      break;

      case 0x0B:
      {
        memcpy_P(tempBuffer, answer_0B, 6);
    2cf2:	46 e0       	ldi	r20, 0x06	; 6
    2cf4:	50 e0       	ldi	r21, 0x00	; 0
    2cf6:	6c e0       	ldi	r22, 0x0C	; 12
    2cf8:	73 e0       	ldi	r23, 0x03	; 3
    2cfa:	86 e5       	ldi	r24, 0x56	; 86
    2cfc:	91 e0       	ldi	r25, 0x01	; 1
    2cfe:	0e 94 f8 19 	call	0x33f0	; 0x33f0 <memcpy_P>
L:\Programs\psp\Pandora\Arduino_v4_61/Arduino_v4_61.ino:519
        psp_write(tempBuffer, 6, false);
    2d02:	40 e0       	ldi	r20, 0x00	; 0
    2d04:	66 e0       	ldi	r22, 0x06	; 6
    2d06:	86 e5       	ldi	r24, 0x56	; 86
    2d08:	91 e0       	ldi	r25, 0x01	; 1
    2d0a:	0e 94 f1 10 	call	0x21e2	; 0x21e2 <psp_write(unsigned char*, unsigned char, bool)>
    2d0e:	4e cf       	rjmp	.-356    	; 0x2bac <loop+0x38>
L:\Programs\psp\Pandora\Arduino_v4_61/Arduino_v4_61.ino:403
      pspdata[3] = pspSerial.read();

      log_byte(pspdata[3]);
      debugSerial.println();

      switch (pspdata[2])
    2d10:	83 30       	cpi	r24, 0x03	; 3
    2d12:	09 f4       	brne	.+2      	; 0x2d16 <loop+0x1a2>
    2d14:	93 c1       	rjmp	.+806    	; 0x303c <loop+0x4c8>
    2d16:	58 f0       	brcs	.+22     	; 0x2d2e <loop+0x1ba>
    2d18:	87 30       	cpi	r24, 0x07	; 7
    2d1a:	09 f4       	brne	.+2      	; 0x2d1e <loop+0x1aa>
    2d1c:	92 c1       	rjmp	.+804    	; 0x3042 <loop+0x4ce>
    2d1e:	08 f0       	brcs	.+2      	; 0x2d22 <loop+0x1ae>
    2d20:	d1 c1       	rjmp	.+930    	; 0x30c4 <loop+0x550>
    2d22:	84 30       	cpi	r24, 0x04	; 4
    2d24:	09 f0       	breq	.+2      	; 0x2d28 <loop+0x1b4>
    2d26:	dd c1       	rjmp	.+954    	; 0x30e2 <loop+0x56e>
L:\Programs\psp\Pandora\Arduino_v4_61/Arduino_v4_61.ino:539
      }
      break;

      case 0x04:
      {
        sendRequiredCurrent();
    2d28:	0e 94 46 11 	call	0x228c	; 0x228c <sendRequiredCurrent()>
    2d2c:	3f cf       	rjmp	.-386    	; 0x2bac <loop+0x38>
L:\Programs\psp\Pandora\Arduino_v4_61/Arduino_v4_61.ino:403
      pspdata[3] = pspSerial.read();

      log_byte(pspdata[3]);
      debugSerial.println();

      switch (pspdata[2])
    2d2e:	81 30       	cpi	r24, 0x01	; 1
    2d30:	19 f1       	breq	.+70     	; 0x2d78 <loop+0x204>
    2d32:	82 30       	cpi	r24, 0x02	; 2
    2d34:	09 f0       	breq	.+2      	; 0x2d38 <loop+0x1c4>
    2d36:	d5 c1       	rjmp	.+938    	; 0x30e2 <loop+0x56e>
L:\Programs\psp\Pandora\Arduino_v4_61/Arduino_v4_61.ino:532
      }
      break;

      case 0x02:
      {
        memcpy_P(tempBuffer, answer_02, 5);
    2d38:	45 e0       	ldi	r20, 0x05	; 5
    2d3a:	50 e0       	ldi	r21, 0x00	; 0
    2d3c:	61 e0       	ldi	r22, 0x01	; 1
    2d3e:	73 e0       	ldi	r23, 0x03	; 3
    2d40:	86 e5       	ldi	r24, 0x56	; 86
    2d42:	91 e0       	ldi	r25, 0x01	; 1
    2d44:	0e 94 f8 19 	call	0x33f0	; 0x33f0 <memcpy_P>
L:\Programs\psp\Pandora\Arduino_v4_61/Arduino_v4_61.ino:533
        psp_write(tempBuffer, 5, false);
    2d48:	40 e0       	ldi	r20, 0x00	; 0
    2d4a:	65 e0       	ldi	r22, 0x05	; 5
    2d4c:	86 e5       	ldi	r24, 0x56	; 86
    2d4e:	91 e0       	ldi	r25, 0x01	; 1
    2d50:	0e 94 f1 10 	call	0x21e2	; 0x21e2 <psp_write(unsigned char*, unsigned char, bool)>
    2d54:	2b cf       	rjmp	.-426    	; 0x2bac <loop+0x38>
L:\Programs\psp\Pandora\Arduino_v4_61/Arduino_v4_61.ino:403
      pspdata[3] = pspSerial.read();

      log_byte(pspdata[3]);
      debugSerial.println();

      switch (pspdata[2])
    2d56:	81 38       	cpi	r24, 0x81	; 129
    2d58:	41 f1       	breq	.+80     	; 0x2daa <loop+0x236>
    2d5a:	80 39       	cpi	r24, 0x90	; 144
    2d5c:	09 f4       	brne	.+2      	; 0x2d60 <loop+0x1ec>
    2d5e:	b6 c0       	rjmp	.+364    	; 0x2ecc <loop+0x358>
    2d60:	80 38       	cpi	r24, 0x80	; 128
    2d62:	09 f0       	breq	.+2      	; 0x2d66 <loop+0x1f2>
    2d64:	be c1       	rjmp	.+892    	; 0x30e2 <loop+0x56e>
L:\Programs\psp\Pandora\Arduino_v4_61/Arduino_v4_61.ino:427

      case 0x80:
      {
        byte tempCS[1] = {0};

        generateSysconResponses();
    2d66:	0e 94 e4 14 	call	0x29c8	; 0x29c8 <generateSysconResponses()>
L:\Programs\psp\Pandora\Arduino_v4_61/Arduino_v4_61.ino:428
        psp_write(tempBuffer, 19, true);
    2d6a:	41 e0       	ldi	r20, 0x01	; 1
    2d6c:	63 e1       	ldi	r22, 0x13	; 19
    2d6e:	86 e5       	ldi	r24, 0x56	; 86
    2d70:	91 e0       	ldi	r25, 0x01	; 1
    2d72:	0e 94 f1 10 	call	0x21e2	; 0x21e2 <psp_write(unsigned char*, unsigned char, bool)>
    2d76:	1a cf       	rjmp	.-460    	; 0x2bac <loop+0x38>
L:\Programs\psp\Pandora\Arduino_v4_61/Arduino_v4_61.ino:408
      switch (pspdata[2])
      {

      case 0x01:
      {
        sendCharge();
    2d78:	0e 94 55 11 	call	0x22aa	; 0x22aa <sendCharge()>
    2d7c:	17 cf       	rjmp	.-466    	; 0x2bac <loop+0x38>
L:\Programs\psp\Pandora\Arduino_v4_61/Arduino_v4_61.ino:416

      case 0x0C:
      {
        byte tempcs[1] = {0};

        for (uint8_t i = 0; i < 7; i++)
    2d7e:	20 e0       	ldi	r18, 0x00	; 0
    2d80:	27 30       	cpi	r18, 0x07	; 7
    2d82:	60 f4       	brcc	.+24     	; 0x2d9c <loop+0x228>
L:\Programs\psp\Pandora\Arduino_v4_61/Arduino_v4_61.ino:417
          tempBuffer[i] = serial_code[i];
    2d84:	82 2f       	mov	r24, r18
    2d86:	90 e0       	ldi	r25, 0x00	; 0
    2d88:	fc 01       	movw	r30, r24
    2d8a:	ea 56       	subi	r30, 0x6A	; 106
    2d8c:	fe 4f       	sbci	r31, 0xFE	; 254
    2d8e:	30 81       	ld	r19, Z
    2d90:	8a 5a       	subi	r24, 0xAA	; 170
    2d92:	9e 4f       	sbci	r25, 0xFE	; 254
    2d94:	fc 01       	movw	r30, r24
    2d96:	30 83       	st	Z, r19
L:\Programs\psp\Pandora\Arduino_v4_61/Arduino_v4_61.ino:416

      case 0x0C:
      {
        byte tempcs[1] = {0};

        for (uint8_t i = 0; i < 7; i++)
    2d98:	2f 5f       	subi	r18, 0xFF	; 255
    2d9a:	f2 cf       	rjmp	.-28     	; 0x2d80 <loop+0x20c>
L:\Programs\psp\Pandora\Arduino_v4_61/Arduino_v4_61.ino:419
          tempBuffer[i] = serial_code[i];

        psp_write(tempBuffer, 7, true);
    2d9c:	41 e0       	ldi	r20, 0x01	; 1
    2d9e:	67 e0       	ldi	r22, 0x07	; 7
    2da0:	86 e5       	ldi	r24, 0x56	; 86
    2da2:	91 e0       	ldi	r25, 0x01	; 1
    2da4:	0e 94 f1 10 	call	0x21e2	; 0x21e2 <psp_write(unsigned char*, unsigned char, bool)>
    2da8:	01 cf       	rjmp	.-510    	; 0x2bac <loop+0x38>
L:\Programs\psp\Pandora\Arduino_v4_61/Arduino_v4_61.ino:434
      }
      break;

      case 0x81:
      {
        tempBuffer[0] = 0xA5;
    2daa:	e6 e5       	ldi	r30, 0x56	; 86
    2dac:	f1 e0       	ldi	r31, 0x01	; 1
    2dae:	85 ea       	ldi	r24, 0xA5	; 165
    2db0:	80 83       	st	Z, r24
L:\Programs\psp\Pandora\Arduino_v4_61/Arduino_v4_61.ino:435
        tempBuffer[1] = 0x12;
    2db2:	82 e1       	ldi	r24, 0x12	; 18
    2db4:	81 83       	std	Z+1, r24	; 0x01
L:\Programs\psp\Pandora\Arduino_v4_61/Arduino_v4_61.ino:436
        tempBuffer[2] = 0x06;
    2db6:	86 e0       	ldi	r24, 0x06	; 6
    2db8:	82 83       	std	Z+2, r24	; 0x02
L:\Programs\psp\Pandora\Arduino_v4_61/Arduino_v4_61.ino:438

        byte data2[16] = {0};
    2dba:	7e 01       	movw	r14, r28
    2dbc:	f1 e6       	ldi	r31, 0x61	; 97
    2dbe:	ef 0e       	add	r14, r31
    2dc0:	f1 1c       	adc	r15, r1
    2dc2:	80 e1       	ldi	r24, 0x10	; 16
    2dc4:	d7 01       	movw	r26, r14
    2dc6:	e8 2f       	mov	r30, r24
    2dc8:	1d 92       	st	X+, r1
    2dca:	ea 95       	dec	r30
    2dcc:	e9 f7       	brne	.-6      	; 0x2dc8 <loop+0x254>
L:\Programs\psp\Pandora\Arduino_v4_61/Arduino_v4_61.ino:439
        byte tempKey[16] = {0};
    2dce:	8e 01       	movw	r16, r28
    2dd0:	0f 5b       	subi	r16, 0xBF	; 191
    2dd2:	1f 4f       	sbci	r17, 0xFF	; 255
    2dd4:	d8 01       	movw	r26, r16
    2dd6:	e8 2f       	mov	r30, r24
    2dd8:	1d 92       	st	X+, r1
    2dda:	ea 95       	dec	r30
    2ddc:	e9 f7       	brne	.-6      	; 0x2dd8 <loop+0x264>
L:\Programs\psp\Pandora\Arduino_v4_61/Arduino_v4_61.ino:440
        byte challenge2[16] = {0};
    2dde:	5e 01       	movw	r10, r28
    2de0:	f1 e2       	ldi	r31, 0x21	; 33
    2de2:	af 0e       	add	r10, r31
    2de4:	b1 1c       	adc	r11, r1
    2de6:	d5 01       	movw	r26, r10
    2de8:	e8 2f       	mov	r30, r24
    2dea:	1d 92       	st	X+, r1
    2dec:	ea 95       	dec	r30
    2dee:	e9 f7       	brne	.-6      	; 0x2dea <loop+0x276>
L:\Programs\psp\Pandora\Arduino_v4_61/Arduino_v4_61.ino:441
        byte response2[16] = {0};
    2df0:	9e 01       	movw	r18, r28
    2df2:	2f 5f       	subi	r18, 0xFF	; 255
    2df4:	3f 4f       	sbci	r19, 0xFF	; 255
    2df6:	69 01       	movw	r12, r18
    2df8:	d9 01       	movw	r26, r18
    2dfa:	1d 92       	st	X+, r1
    2dfc:	8a 95       	dec	r24
    2dfe:	e9 f7       	brne	.-6      	; 0x2dfa <loop+0x286>
L:\Programs\psp\Pandora\Arduino_v4_61/Arduino_v4_61.ino:443

        MixChallenge2(data2, version, challenge1b);
    2e00:	45 e4       	ldi	r20, 0x45	; 69
    2e02:	51 e0       	ldi	r21, 0x01	; 1
    2e04:	60 91 55 01 	lds	r22, 0x0155	; 0x800155 <version>
    2e08:	c7 01       	movw	r24, r14
    2e0a:	0e 94 45 12 	call	0x248a	; 0x248a <MixChallenge2(unsigned char*, unsigned char, unsigned char*)>
L:\Programs\psp\Pandora\Arduino_v4_61/Arduino_v4_61.ino:444
        MatrixSwap(data2, 16);
    2e0e:	60 e1       	ldi	r22, 0x10	; 16
    2e10:	c7 01       	movw	r24, r14
    2e12:	0e 94 35 14 	call	0x286a	; 0x286a <MatrixSwap(unsigned char*, unsigned char)>
L:\Programs\psp\Pandora\Arduino_v4_61/Arduino_v4_61.ino:445
        get_keystore(tempKey, version);
    2e16:	60 91 55 01 	lds	r22, 0x0155	; 0x800155 <version>
    2e1a:	c8 01       	movw	r24, r16
    2e1c:	0e 94 85 13 	call	0x270a	; 0x270a <get_keystore(unsigned char*, unsigned char)>
L:\Programs\psp\Pandora\Arduino_v4_61/Arduino_v4_61.ino:446
        ecb_encrypt(data2, challenge2, tempKey, 128);
    2e20:	20 e8       	ldi	r18, 0x80	; 128
    2e22:	30 e0       	ldi	r19, 0x00	; 0
    2e24:	a8 01       	movw	r20, r16
    2e26:	b5 01       	movw	r22, r10
    2e28:	c7 01       	movw	r24, r14
    2e2a:	0e 94 07 0f 	call	0x1e0e	; 0x1e0e <ecb_encrypt(unsigned char*, unsigned char*, unsigned char*, int)>
L:\Programs\psp\Pandora\Arduino_v4_61/Arduino_v4_61.ino:447
        ecb_encrypt(challenge2, response2, tempKey, 128);
    2e2e:	20 e8       	ldi	r18, 0x80	; 128
    2e30:	30 e0       	ldi	r19, 0x00	; 0
    2e32:	a8 01       	movw	r20, r16
    2e34:	b6 01       	movw	r22, r12
    2e36:	c5 01       	movw	r24, r10
    2e38:	0e 94 07 0f 	call	0x1e0e	; 0x1e0e <ecb_encrypt(unsigned char*, unsigned char*, unsigned char*, int)>
L:\Programs\psp\Pandora\Arduino_v4_61/Arduino_v4_61.ino:448
        memcpy(tempBuffer + 3, response2, 16);
    2e3c:	80 e1       	ldi	r24, 0x10	; 16
    2e3e:	f6 01       	movw	r30, r12
    2e40:	a9 e5       	ldi	r26, 0x59	; 89
    2e42:	b1 e0       	ldi	r27, 0x01	; 1
    2e44:	01 90       	ld	r0, Z+
    2e46:	0d 92       	st	X+, r0
    2e48:	8a 95       	dec	r24
    2e4a:	e1 f7       	brne	.-8      	; 0x2e44 <loop+0x2d0>
L:\Programs\psp\Pandora\Arduino_v4_61/Arduino_v4_61.ino:449
        psp_write(tempBuffer, 19, true);
    2e4c:	41 e0       	ldi	r20, 0x01	; 1
    2e4e:	63 e1       	ldi	r22, 0x13	; 19
    2e50:	86 e5       	ldi	r24, 0x56	; 86
    2e52:	91 e0       	ldi	r25, 0x01	; 1
    2e54:	0e 94 f1 10 	call	0x21e2	; 0x21e2 <psp_write(unsigned char*, unsigned char, bool)>
L:\Programs\psp\Pandora\Arduino_v4_61/Arduino_v4_61.ino:451

        if (version == 0xEB || version == 0xB3)
    2e58:	80 91 55 01 	lds	r24, 0x0155	; 0x800155 <version>
    2e5c:	8b 3e       	cpi	r24, 0xEB	; 235
    2e5e:	19 f0       	breq	.+6      	; 0x2e66 <loop+0x2f2>
    2e60:	83 3b       	cpi	r24, 0xB3	; 179
    2e62:	09 f0       	breq	.+2      	; 0x2e66 <loop+0x2f2>
    2e64:	a3 ce       	rjmp	.-698    	; 0x2bac <loop+0x38>
L:\Programs\psp\Pandora\Arduino_v4_61/Arduino_v4_61.ino:453
        {
          memcpy_P(tempBuffer, psp_81, 4);
    2e66:	44 e0       	ldi	r20, 0x04	; 4
    2e68:	50 e0       	ldi	r21, 0x00	; 0
    2e6a:	66 e9       	ldi	r22, 0x96	; 150
    2e6c:	73 e0       	ldi	r23, 0x03	; 3
    2e6e:	86 e5       	ldi	r24, 0x56	; 86
    2e70:	91 e0       	ldi	r25, 0x01	; 1
    2e72:	0e 94 f8 19 	call	0x33f0	; 0x33f0 <memcpy_P>
L:\Programs\psp\Pandora\Arduino_v4_61/Arduino_v4_61.ino:454
          psp_write(tempBuffer, 4, false);
    2e76:	40 e0       	ldi	r20, 0x00	; 0
    2e78:	64 e0       	ldi	r22, 0x04	; 4
    2e7a:	86 e5       	ldi	r24, 0x56	; 86
    2e7c:	91 e0       	ldi	r25, 0x01	; 1
    2e7e:	0e 94 f1 10 	call	0x21e2	; 0x21e2 <psp_write(unsigned char*, unsigned char, bool)>
L:\Programs\psp\Pandora\Arduino_v4_61/Arduino_v4_61.ino:456
          
          debugSerial.print(F("GO:      "));
    2e82:	6c e8       	ldi	r22, 0x8C	; 140
    2e84:	73 e0       	ldi	r23, 0x03	; 3
    2e86:	88 e4       	ldi	r24, 0x48	; 72
    2e88:	92 e0       	ldi	r25, 0x02	; 2
    2e8a:	0e 94 75 04 	call	0x8ea	; 0x8ea <Print::print(__FlashStringHelper const*)>
L:\Programs\psp\Pandora\Arduino_v4_61/Arduino_v4_61.ino:457
          pspdata[0] = pspSerial.read();
    2e8e:	83 ee       	ldi	r24, 0xE3	; 227
    2e90:	91 e0       	ldi	r25, 0x01	; 1
    2e92:	0e 94 ee 06 	call	0xddc	; 0xddc <SoftwareSerialParity::read()>
    2e96:	0f ed       	ldi	r16, 0xDF	; 223
    2e98:	11 e0       	ldi	r17, 0x01	; 1
    2e9a:	f8 01       	movw	r30, r16
    2e9c:	80 83       	st	Z, r24
L:\Programs\psp\Pandora\Arduino_v4_61/Arduino_v4_61.ino:458
          pspdata[1] = pspSerial.read();
    2e9e:	83 ee       	ldi	r24, 0xE3	; 227
    2ea0:	91 e0       	ldi	r25, 0x01	; 1
    2ea2:	0e 94 ee 06 	call	0xddc	; 0xddc <SoftwareSerialParity::read()>
    2ea6:	d8 01       	movw	r26, r16
    2ea8:	11 96       	adiw	r26, 0x01	; 1
    2eaa:	8c 93       	st	X, r24
L:\Programs\psp\Pandora\Arduino_v4_61/Arduino_v4_61.ino:459
          pspdata[2] = pspSerial.read();
    2eac:	83 ee       	ldi	r24, 0xE3	; 227
    2eae:	91 e0       	ldi	r25, 0x01	; 1
    2eb0:	0e 94 ee 06 	call	0xddc	; 0xddc <SoftwareSerialParity::read()>
    2eb4:	f8 01       	movw	r30, r16
    2eb6:	82 83       	std	Z+2, r24	; 0x02
L:\Programs\psp\Pandora\Arduino_v4_61/Arduino_v4_61.ino:460
          pspdata[3] = pspSerial.read();
    2eb8:	83 ee       	ldi	r24, 0xE3	; 227
    2eba:	91 e0       	ldi	r25, 0x01	; 1
    2ebc:	0e 94 ee 06 	call	0xddc	; 0xddc <SoftwareSerialParity::read()>
    2ec0:	d8 01       	movw	r26, r16
    2ec2:	13 96       	adiw	r26, 0x03	; 3
    2ec4:	8c 93       	st	X, r24
L:\Programs\psp\Pandora\Arduino_v4_61/Arduino_v4_61.ino:462

          sendCharge();
    2ec6:	0e 94 55 11 	call	0x22aa	; 0x22aa <sendCharge()>
    2eca:	70 ce       	rjmp	.-800    	; 0x2bac <loop+0x38>
L:\Programs\psp\Pandora\Arduino_v4_61/Arduino_v4_61.ino:470
      break;

      case 0x90:
      {
        byte req[32] = {0};
        byte tempKey[16] = {0};
    2ecc:	6e 01       	movw	r12, r28
    2ece:	b1 ea       	ldi	r27, 0xA1	; 161
    2ed0:	cb 0e       	add	r12, r27
    2ed2:	d1 1c       	adc	r13, r1
    2ed4:	68 94       	set
    2ed6:	99 24       	eor	r9, r9
    2ed8:	94 f8       	bld	r9, 4
    2eda:	f6 01       	movw	r30, r12
    2edc:	29 2d       	mov	r18, r9
    2ede:	11 92       	st	Z+, r1
    2ee0:	2a 95       	dec	r18
    2ee2:	e9 f7       	brne	.-6      	; 0x2ede <loop+0x36a>
L:\Programs\psp\Pandora\Arduino_v4_61/Arduino_v4_61.ino:471
        byte payload[32] = {0};
    2ee4:	80 e2       	ldi	r24, 0x20	; 32
    2ee6:	7e 01       	movw	r14, r28
    2ee8:	31 e2       	ldi	r19, 0x21	; 33
    2eea:	e3 0e       	add	r14, r19
    2eec:	f1 1c       	adc	r15, r1
    2eee:	d7 01       	movw	r26, r14
    2ef0:	e8 2f       	mov	r30, r24
    2ef2:	1d 92       	st	X+, r1
    2ef4:	ea 95       	dec	r30
    2ef6:	e9 f7       	brne	.-6      	; 0x2ef2 <loop+0x37e>
L:\Programs\psp\Pandora\Arduino_v4_61/Arduino_v4_61.ino:472
        byte payload91[32] = {0};
    2ef8:	8e 01       	movw	r16, r28
    2efa:	0f 5b       	subi	r16, 0xBF	; 191
    2efc:	1f 4f       	sbci	r17, 0xFF	; 255
    2efe:	d8 01       	movw	r26, r16
    2f00:	e8 2f       	mov	r30, r24
    2f02:	1d 92       	st	X+, r1
    2f04:	ea 95       	dec	r30
    2f06:	e9 f7       	brne	.-6      	; 0x2f02 <loop+0x38e>
L:\Programs\psp\Pandora\Arduino_v4_61/Arduino_v4_61.ino:473
        byte temp_go_secret[32] = {0};
    2f08:	5e 01       	movw	r10, r28
    2f0a:	f1 e6       	ldi	r31, 0x61	; 97
    2f0c:	af 0e       	add	r10, r31
    2f0e:	b1 1c       	adc	r11, r1
    2f10:	d5 01       	movw	r26, r10
    2f12:	e8 2f       	mov	r30, r24
    2f14:	1d 92       	st	X+, r1
    2f16:	ea 95       	dec	r30
    2f18:	e9 f7       	brne	.-6      	; 0x2f14 <loop+0x3a0>
L:\Programs\psp\Pandora\Arduino_v4_61/Arduino_v4_61.ino:474
        byte resp2[32] = {0};
    2f1a:	fe 01       	movw	r30, r28
    2f1c:	ef 57       	subi	r30, 0x7F	; 127
    2f1e:	ff 4f       	sbci	r31, 0xFF	; 255
    2f20:	df 01       	movw	r26, r30
    2f22:	1d 92       	st	X+, r1
    2f24:	8a 95       	dec	r24
    2f26:	e9 f7       	brne	.-6      	; 0x2f22 <loop+0x3ae>
L:\Programs\psp\Pandora\Arduino_v4_61/Arduino_v4_61.ino:476

        memcpy(req, msg + 8, 32); // screq[0x8:0x28]
    2f28:	80 e2       	ldi	r24, 0x20	; 32
    2f2a:	e6 ea       	ldi	r30, 0xA6	; 166
    2f2c:	f1 e0       	ldi	r31, 0x01	; 1
    2f2e:	de 01       	movw	r26, r28
    2f30:	11 96       	adiw	r26, 0x01	; 1
    2f32:	01 90       	ld	r0, Z+
    2f34:	0d 92       	st	X+, r0
    2f36:	8a 95       	dec	r24
    2f38:	e1 f7       	brne	.-8      	; 0x2f32 <loop+0x3be>
L:\Programs\psp\Pandora\Arduino_v4_61/Arduino_v4_61.ino:477
        memcpy_P(tempKey, go_key1, 16);
    2f3a:	40 e1       	ldi	r20, 0x10	; 16
    2f3c:	50 e0       	ldi	r21, 0x00	; 0
    2f3e:	6c e7       	ldi	r22, 0x7C	; 124
    2f40:	73 e0       	ldi	r23, 0x03	; 3
    2f42:	c6 01       	movw	r24, r12
    2f44:	0e 94 f8 19 	call	0x33f0	; 0x33f0 <memcpy_P>
L:\Programs\psp\Pandora\Arduino_v4_61/Arduino_v4_61.ino:478
        do_aes_decrypt(req, 32, payload, tempKey);
    2f48:	96 01       	movw	r18, r12
    2f4a:	a7 01       	movw	r20, r14
    2f4c:	60 e2       	ldi	r22, 0x20	; 32
    2f4e:	70 e0       	ldi	r23, 0x00	; 0
    2f50:	ce 01       	movw	r24, r28
    2f52:	01 96       	adiw	r24, 0x01	; 1
    2f54:	0e 94 b6 0e 	call	0x1d6c	; 0x1d6c <do_aes_decrypt(unsigned char*, int, unsigned char*, unsigned char*)>
L:\Programs\psp\Pandora\Arduino_v4_61/Arduino_v4_61.ino:479
        memcpy(payload91, payload + 8, 8);    // payload[8:16]
    2f58:	88 e0       	ldi	r24, 0x08	; 8
    2f5a:	fe 01       	movw	r30, r28
    2f5c:	b9 96       	adiw	r30, 0x29	; 41
    2f5e:	d8 01       	movw	r26, r16
    2f60:	01 90       	ld	r0, Z+
    2f62:	0d 92       	st	X+, r0
    2f64:	8a 95       	dec	r24
    2f66:	e1 f7       	brne	.-8      	; 0x2f60 <loop+0x3ec>
L:\Programs\psp\Pandora\Arduino_v4_61/Arduino_v4_61.ino:480
        memcpy(payload91 + 8, payload, 8);    // payload[0:8]
    2f68:	d8 01       	movw	r26, r16
    2f6a:	18 96       	adiw	r26, 0x08	; 8
    2f6c:	88 e0       	ldi	r24, 0x08	; 8
    2f6e:	f7 01       	movw	r30, r14
    2f70:	01 90       	ld	r0, Z+
    2f72:	0d 92       	st	X+, r0
    2f74:	8a 95       	dec	r24
    2f76:	e1 f7       	brne	.-8      	; 0x2f70 <loop+0x3fc>
L:\Programs\psp\Pandora\Arduino_v4_61/Arduino_v4_61.ino:481
        memset(payload91 + 16, 0, 16);        // bytearray(16)
    2f78:	f8 01       	movw	r30, r16
    2f7a:	70 96       	adiw	r30, 0x10	; 16
    2f7c:	df 01       	movw	r26, r30
    2f7e:	1d 92       	st	X+, r1
    2f80:	9a 94       	dec	r9
    2f82:	e9 f7       	brne	.-6      	; 0x2f7e <loop+0x40a>
L:\Programs\psp\Pandora\Arduino_v4_61/Arduino_v4_61.ino:482
        memcpy_P(temp_go_secret, go_secret, 16);
    2f84:	40 e1       	ldi	r20, 0x10	; 16
    2f86:	50 e0       	ldi	r21, 0x00	; 0
    2f88:	6c e6       	ldi	r22, 0x6C	; 108
    2f8a:	73 e0       	ldi	r23, 0x03	; 3
    2f8c:	c5 01       	movw	r24, r10
    2f8e:	0e 94 f8 19 	call	0x33f0	; 0x33f0 <memcpy_P>
L:\Programs\psp\Pandora\Arduino_v4_61/Arduino_v4_61.ino:484

        for (uint8_t i = 16; i < 32; i++)
    2f92:	20 e1       	ldi	r18, 0x10	; 16
    2f94:	20 32       	cpi	r18, 0x20	; 32
    2f96:	e8 f4       	brcc	.+58     	; 0x2fd2 <loop+0x45e>
L:\Programs\psp\Pandora\Arduino_v4_61/Arduino_v4_61.ino:485
          if (payload[i] != temp_go_secret[i-16])
    2f98:	82 2f       	mov	r24, r18
    2f9a:	90 e0       	ldi	r25, 0x00	; 0
    2f9c:	e1 e2       	ldi	r30, 0x21	; 33
    2f9e:	f0 e0       	ldi	r31, 0x00	; 0
    2fa0:	ec 0f       	add	r30, r28
    2fa2:	fd 1f       	adc	r31, r29
    2fa4:	e8 0f       	add	r30, r24
    2fa6:	f9 1f       	adc	r31, r25
    2fa8:	30 81       	ld	r19, Z
    2faa:	40 97       	sbiw	r24, 0x10	; 16
    2fac:	e1 e6       	ldi	r30, 0x61	; 97
    2fae:	f0 e0       	ldi	r31, 0x00	; 0
    2fb0:	ec 0f       	add	r30, r28
    2fb2:	fd 1f       	adc	r31, r29
    2fb4:	8e 0f       	add	r24, r30
    2fb6:	9f 1f       	adc	r25, r31
    2fb8:	dc 01       	movw	r26, r24
    2fba:	8c 91       	ld	r24, X
    2fbc:	38 13       	cpse	r19, r24
    2fbe:	02 c0       	rjmp	.+4      	; 0x2fc4 <loop+0x450>
L:\Programs\psp\Pandora\Arduino_v4_61/Arduino_v4_61.ino:484
        memcpy(payload91, payload + 8, 8);    // payload[8:16]
        memcpy(payload91 + 8, payload, 8);    // payload[0:8]
        memset(payload91 + 16, 0, 16);        // bytearray(16)
        memcpy_P(temp_go_secret, go_secret, 16);

        for (uint8_t i = 16; i < 32; i++)
    2fc0:	2f 5f       	subi	r18, 0xFF	; 255
    2fc2:	e8 cf       	rjmp	.-48     	; 0x2f94 <loop+0x420>
L:\Programs\psp\Pandora\Arduino_v4_61/Arduino_v4_61.ino:487
          if (payload[i] != temp_go_secret[i-16])
          {
            debugSerial.println(F("Invalid request from Syscon"));
    2fc4:	60 e5       	ldi	r22, 0x50	; 80
    2fc6:	73 e0       	ldi	r23, 0x03	; 3
    2fc8:	88 e4       	ldi	r24, 0x48	; 72
    2fca:	92 e0       	ldi	r25, 0x02	; 2
    2fcc:	0e 94 21 10 	call	0x2042	; 0x2042 <Print::println(__FlashStringHelper const*)>
    2fd0:	99 c0       	rjmp	.+306    	; 0x3104 <loop+0x590>
L:\Programs\psp\Pandora\Arduino_v4_61/Arduino_v4_61.ino:491
            return;
          }

        debugSerial.println(F("Go Handshake Request is valid"));
    2fd2:	62 e3       	ldi	r22, 0x32	; 50
    2fd4:	73 e0       	ldi	r23, 0x03	; 3
    2fd6:	88 e4       	ldi	r24, 0x48	; 72
    2fd8:	92 e0       	ldi	r25, 0x02	; 2
    2fda:	0e 94 21 10 	call	0x2042	; 0x2042 <Print::println(__FlashStringHelper const*)>
L:\Programs\psp\Pandora\Arduino_v4_61/Arduino_v4_61.ino:493

        memcpy_P(tempKey, go_key2, 16);
    2fde:	40 e1       	ldi	r20, 0x10	; 16
    2fe0:	50 e0       	ldi	r21, 0x00	; 0
    2fe2:	62 e2       	ldi	r22, 0x22	; 34
    2fe4:	73 e0       	ldi	r23, 0x03	; 3
    2fe6:	ce 01       	movw	r24, r28
    2fe8:	8f 55       	subi	r24, 0x5F	; 95
    2fea:	9f 4f       	sbci	r25, 0xFF	; 255
    2fec:	0e 94 f8 19 	call	0x33f0	; 0x33f0 <memcpy_P>
L:\Programs\psp\Pandora\Arduino_v4_61/Arduino_v4_61.ino:494
        do_aes_decrypt(payload91, 32, resp2, tempKey);
    2ff0:	9e 01       	movw	r18, r28
    2ff2:	2f 55       	subi	r18, 0x5F	; 95
    2ff4:	3f 4f       	sbci	r19, 0xFF	; 255
    2ff6:	ae 01       	movw	r20, r28
    2ff8:	4f 57       	subi	r20, 0x7F	; 127
    2ffa:	5f 4f       	sbci	r21, 0xFF	; 255
    2ffc:	60 e2       	ldi	r22, 0x20	; 32
    2ffe:	70 e0       	ldi	r23, 0x00	; 0
    3000:	ce 01       	movw	r24, r28
    3002:	8f 5b       	subi	r24, 0xBF	; 191
    3004:	9f 4f       	sbci	r25, 0xFF	; 255
    3006:	0e 94 b6 0e 	call	0x1d6c	; 0x1d6c <do_aes_decrypt(unsigned char*, int, unsigned char*, unsigned char*)>
L:\Programs\psp\Pandora\Arduino_v4_61/Arduino_v4_61.ino:495
        memcpy_P(tempBuffer, answer_90, 11);
    300a:	4b e0       	ldi	r20, 0x0B	; 11
    300c:	50 e0       	ldi	r21, 0x00	; 0
    300e:	67 e1       	ldi	r22, 0x17	; 23
    3010:	73 e0       	ldi	r23, 0x03	; 3
    3012:	86 e5       	ldi	r24, 0x56	; 86
    3014:	91 e0       	ldi	r25, 0x01	; 1
    3016:	0e 94 f8 19 	call	0x33f0	; 0x33f0 <memcpy_P>
L:\Programs\psp\Pandora\Arduino_v4_61/Arduino_v4_61.ino:496
        memcpy(tempBuffer + 11, resp2, 32);
    301a:	80 e2       	ldi	r24, 0x20	; 32
    301c:	fe 01       	movw	r30, r28
    301e:	ef 57       	subi	r30, 0x7F	; 127
    3020:	ff 4f       	sbci	r31, 0xFF	; 255
    3022:	a1 e6       	ldi	r26, 0x61	; 97
    3024:	b1 e0       	ldi	r27, 0x01	; 1
    3026:	01 90       	ld	r0, Z+
    3028:	0d 92       	st	X+, r0
    302a:	8a 95       	dec	r24
    302c:	e1 f7       	brne	.-8      	; 0x3026 <loop+0x4b2>
L:\Programs\psp\Pandora\Arduino_v4_61/Arduino_v4_61.ino:497
        psp_write(tempBuffer, 43, true);
    302e:	41 e0       	ldi	r20, 0x01	; 1
    3030:	6b e2       	ldi	r22, 0x2B	; 43
    3032:	86 e5       	ldi	r24, 0x56	; 86
    3034:	91 e0       	ldi	r25, 0x01	; 1
    3036:	0e 94 f1 10 	call	0x21e2	; 0x21e2 <psp_write(unsigned char*, unsigned char, bool)>
    303a:	b8 cd       	rjmp	.-1168   	; 0x2bac <loop+0x38>
L:\Programs\psp\Pandora\Arduino_v4_61/Arduino_v4_61.ino:503
      }
      break;

      case 0x03:
      {
        sendVoltage();
    303c:	0e 94 9c 11 	call	0x2338	; 0x2338 <sendVoltage()>
    3040:	b5 cd       	rjmp	.-1174   	; 0x2bac <loop+0x38>
L:\Programs\psp\Pandora\Arduino_v4_61/Arduino_v4_61.ino:509
      }
      break;

      case 0x07:
      {
        memcpy_P(tempBuffer, answer_07, 5);
    3042:	45 e0       	ldi	r20, 0x05	; 5
    3044:	50 e0       	ldi	r21, 0x00	; 0
    3046:	62 e1       	ldi	r22, 0x12	; 18
    3048:	73 e0       	ldi	r23, 0x03	; 3
    304a:	86 e5       	ldi	r24, 0x56	; 86
    304c:	91 e0       	ldi	r25, 0x01	; 1
    304e:	0e 94 f8 19 	call	0x33f0	; 0x33f0 <memcpy_P>
L:\Programs\psp\Pandora\Arduino_v4_61/Arduino_v4_61.ino:510
        tempBuffer[4] = (battery_capacity >> 8) & 0xFF; 
    3052:	e6 e5       	ldi	r30, 0x56	; 86
    3054:	f1 e0       	ldi	r31, 0x01	; 1
    3056:	83 e0       	ldi	r24, 0x03	; 3
    3058:	84 83       	std	Z+4, r24	; 0x04
L:\Programs\psp\Pandora\Arduino_v4_61/Arduino_v4_61.ino:511
        tempBuffer[3] = battery_capacity & 0xFF;
    305a:	88 ee       	ldi	r24, 0xE8	; 232
    305c:	83 83       	std	Z+3, r24	; 0x03
L:\Programs\psp\Pandora\Arduino_v4_61/Arduino_v4_61.ino:512
        psp_write(tempBuffer, 5, true);
    305e:	41 e0       	ldi	r20, 0x01	; 1
    3060:	65 e0       	ldi	r22, 0x05	; 5
    3062:	cf 01       	movw	r24, r30
    3064:	0e 94 f1 10 	call	0x21e2	; 0x21e2 <psp_write(unsigned char*, unsigned char, bool)>
    3068:	a1 cd       	rjmp	.-1214   	; 0x2bac <loop+0x38>
L:\Programs\psp\Pandora\Arduino_v4_61/Arduino_v4_61.ino:525
      }
      break;

      case 0x09:
      {
        memcpy_P(tempBuffer, answer_09, 6);
    306a:	46 e0       	ldi	r20, 0x06	; 6
    306c:	50 e0       	ldi	r21, 0x00	; 0
    306e:	66 e0       	ldi	r22, 0x06	; 6
    3070:	73 e0       	ldi	r23, 0x03	; 3
    3072:	86 e5       	ldi	r24, 0x56	; 86
    3074:	91 e0       	ldi	r25, 0x01	; 1
    3076:	0e 94 f8 19 	call	0x33f0	; 0x33f0 <memcpy_P>
L:\Programs\psp\Pandora\Arduino_v4_61/Arduino_v4_61.ino:526
        psp_write(tempBuffer, 6, false);
    307a:	40 e0       	ldi	r20, 0x00	; 0
    307c:	66 e0       	ldi	r22, 0x06	; 6
    307e:	86 e5       	ldi	r24, 0x56	; 86
    3080:	91 e0       	ldi	r25, 0x01	; 1
    3082:	0e 94 f1 10 	call	0x21e2	; 0x21e2 <psp_write(unsigned char*, unsigned char, bool)>
    3086:	92 cd       	rjmp	.-1244   	; 0x2bac <loop+0x38>
L:\Programs\psp\Pandora\Arduino_v4_61/Arduino_v4_61.ino:545
      }
      break;

      case 0x16:
      {
        memcpy_P(tempBuffer, answer_16, 21);
    3088:	45 e1       	ldi	r20, 0x15	; 21
    308a:	50 e0       	ldi	r21, 0x00	; 0
    308c:	6c ee       	ldi	r22, 0xEC	; 236
    308e:	72 e0       	ldi	r23, 0x02	; 2
    3090:	86 e5       	ldi	r24, 0x56	; 86
    3092:	91 e0       	ldi	r25, 0x01	; 1
    3094:	0e 94 f8 19 	call	0x33f0	; 0x33f0 <memcpy_P>
L:\Programs\psp\Pandora\Arduino_v4_61/Arduino_v4_61.ino:546
        psp_write(tempBuffer, 21, false);
    3098:	40 e0       	ldi	r20, 0x00	; 0
    309a:	65 e1       	ldi	r22, 0x15	; 21
    309c:	86 e5       	ldi	r24, 0x56	; 86
    309e:	91 e0       	ldi	r25, 0x01	; 1
    30a0:	0e 94 f1 10 	call	0x21e2	; 0x21e2 <psp_write(unsigned char*, unsigned char, bool)>
    30a4:	83 cd       	rjmp	.-1274   	; 0x2bac <loop+0x38>
L:\Programs\psp\Pandora\Arduino_v4_61/Arduino_v4_61.ino:552
      }
      break;

      case 0x0D:
      { 
        memcpy_P(tempBuffer, answer_0D, 9);
    30a6:	49 e0       	ldi	r20, 0x09	; 9
    30a8:	50 e0       	ldi	r21, 0x00	; 0
    30aa:	63 ee       	ldi	r22, 0xE3	; 227
    30ac:	72 e0       	ldi	r23, 0x02	; 2
    30ae:	86 e5       	ldi	r24, 0x56	; 86
    30b0:	91 e0       	ldi	r25, 0x01	; 1
    30b2:	0e 94 f8 19 	call	0x33f0	; 0x33f0 <memcpy_P>
L:\Programs\psp\Pandora\Arduino_v4_61/Arduino_v4_61.ino:553
        psp_write(tempBuffer, 9, false);
    30b6:	40 e0       	ldi	r20, 0x00	; 0
    30b8:	69 e0       	ldi	r22, 0x09	; 9
    30ba:	86 e5       	ldi	r24, 0x56	; 86
    30bc:	91 e0       	ldi	r25, 0x01	; 1
    30be:	0e 94 f1 10 	call	0x21e2	; 0x21e2 <psp_write(unsigned char*, unsigned char, bool)>
    30c2:	74 cd       	rjmp	.-1304   	; 0x2bac <loop+0x38>
L:\Programs\psp\Pandora\Arduino_v4_61/Arduino_v4_61.ino:559
      }
      break;

      case 0x08:
      {
        memcpy_P(tempBuffer, answer_08, 6);
    30c4:	46 e0       	ldi	r20, 0x06	; 6
    30c6:	50 e0       	ldi	r21, 0x00	; 0
    30c8:	6d ed       	ldi	r22, 0xDD	; 221
    30ca:	72 e0       	ldi	r23, 0x02	; 2
    30cc:	86 e5       	ldi	r24, 0x56	; 86
    30ce:	91 e0       	ldi	r25, 0x01	; 1
    30d0:	0e 94 f8 19 	call	0x33f0	; 0x33f0 <memcpy_P>
L:\Programs\psp\Pandora\Arduino_v4_61/Arduino_v4_61.ino:560
        psp_write(tempBuffer, 6, false);
    30d4:	40 e0       	ldi	r20, 0x00	; 0
    30d6:	66 e0       	ldi	r22, 0x06	; 6
    30d8:	86 e5       	ldi	r24, 0x56	; 86
    30da:	91 e0       	ldi	r25, 0x01	; 1
    30dc:	0e 94 f1 10 	call	0x21e2	; 0x21e2 <psp_write(unsigned char*, unsigned char, bool)>
    30e0:	65 cd       	rjmp	.-1334   	; 0x2bac <loop+0x38>
L:\Programs\psp\Pandora\Arduino_v4_61/Arduino_v4_61.ino:566
      }
      break;

      default:
      {
        debugSerial.print(F("No option selected "));
    30e2:	69 ec       	ldi	r22, 0xC9	; 201
    30e4:	72 e0       	ldi	r23, 0x02	; 2
    30e6:	88 e4       	ldi	r24, 0x48	; 72
    30e8:	92 e0       	ldi	r25, 0x02	; 2
    30ea:	0e 94 75 04 	call	0x8ea	; 0x8ea <Print::print(__FlashStringHelper const*)>
L:\Programs\psp\Pandora\Arduino_v4_61/Arduino_v4_61.ino:567
        log_byte(pspdata[2]);
    30ee:	80 91 e1 01 	lds	r24, 0x01E1	; 0x8001e1 <pspdata+0x2>
    30f2:	0e 94 fb 0f 	call	0x1ff6	; 0x1ff6 <log_byte(unsigned char)>
L:\Programs\psp\Pandora\Arduino_v4_61/Arduino_v4_61.ino:568
        debugSerial.println();
    30f6:	88 e4       	ldi	r24, 0x48	; 72
    30f8:	92 e0       	ldi	r25, 0x02	; 2
    30fa:	0e 94 15 10 	call	0x202a	; 0x202a <Print::println()>
    30fe:	56 cd       	rjmp	.-1364   	; 0x2bac <loop+0x38>
L:\Programs\psp\Pandora\Arduino_v4_61/Arduino_v4_61.ino:583
  }

  for (uint8_t i = 3; i < 19; i++)
      tempBuffer[i] = 0x00;

  testLed();
    3100:	0e 94 33 10 	call	0x2066	; 0x2066 <testLed()>
L:\Programs\psp\Pandora\Arduino_v4_61/Arduino_v4_61.ino:587
#if enableSleep
  checkDowntime();
#endif
}
    3104:	c0 55       	subi	r28, 0x50	; 80
    3106:	df 4f       	sbci	r29, 0xFF	; 255
    3108:	0f b6       	in	r0, 0x3f	; 63
    310a:	f8 94       	cli
    310c:	de bf       	out	0x3e, r29	; 62
    310e:	0f be       	out	0x3f, r0	; 63
    3110:	cd bf       	out	0x3d, r28	; 61
    3112:	df 91       	pop	r29
    3114:	cf 91       	pop	r28
    3116:	1f 91       	pop	r17
    3118:	0f 91       	pop	r16
    311a:	ff 90       	pop	r15
    311c:	ef 90       	pop	r14
    311e:	df 90       	pop	r13
    3120:	cf 90       	pop	r12
    3122:	bf 90       	pop	r11
    3124:	af 90       	pop	r10
    3126:	9f 90       	pop	r9
    3128:	08 95       	ret

0000312a <global constructors keyed to 65535_0_Arduino_v4_61.ino.cpp.o.2216>:
_GLOBAL__I_65535_0_Arduino_v4_61.ino.cpp.o.2216():
    312a:	6f ef       	ldi	r22, 0xFF	; 255
    312c:	7f ef       	ldi	r23, 0xFF	; 255
    312e:	81 e0       	ldi	r24, 0x01	; 1
    3130:	90 e0       	ldi	r25, 0x00	; 0
    3132:	0e 94 cb 04 	call	0x996	; 0x996 <__static_initialization_and_destruction_0(int, int) [clone .lto_priv.1]>
    3136:	6f ef       	ldi	r22, 0xFF	; 255
    3138:	7f ef       	ldi	r23, 0xFF	; 255
    313a:	81 e0       	ldi	r24, 0x01	; 1
    313c:	90 e0       	ldi	r25, 0x00	; 0
    313e:	0e 94 94 0e 	call	0x1d28	; 0x1d28 <__static_initialization_and_destruction_0(int, int) [clone .lto_priv.0]>
    3142:	08 95       	ret

00003144 <__vector_16>:
__vector_16():
C:\Users\Kirpich\AppData\Local\Arduino15\packages\MiniCore\hardware\avr\3.1.1\cores\MCUdude_corefiles/wiring.c:159
#if defined(__AVR_ATtiny24__) || defined(__AVR_ATtiny44__) || defined(__AVR_ATtiny84__)
ISR(TIM0_OVF_vect)
#else
ISR(TIMER0_OVF_vect)
#endif
{
    3144:	1f 92       	push	r1
    3146:	0f 92       	push	r0
    3148:	0f b6       	in	r0, 0x3f	; 63
    314a:	0f 92       	push	r0
    314c:	11 24       	eor	r1, r1
    314e:	2f 93       	push	r18
    3150:	3f 93       	push	r19
    3152:	8f 93       	push	r24
    3154:	9f 93       	push	r25
    3156:	af 93       	push	r26
    3158:	bf 93       	push	r27
C:\Users\Kirpich\AppData\Local\Arduino15\packages\MiniCore\hardware\avr\3.1.1\cores\MCUdude_corefiles/wiring.c:167
  static unsigned char timer0_exact = 0;
#endif

  // copy these to local variables so they can be stored in registers
  // (volatile variables must be read from memory on every access, so this saves time)
  unsigned long m = timer0_millis;
    315a:	80 91 ea 02 	lds	r24, 0x02EA	; 0x8002ea <timer0_millis>
    315e:	90 91 eb 02 	lds	r25, 0x02EB	; 0x8002eb <timer0_millis+0x1>
    3162:	a0 91 ec 02 	lds	r26, 0x02EC	; 0x8002ec <timer0_millis+0x2>
    3166:	b0 91 ed 02 	lds	r27, 0x02ED	; 0x8002ed <timer0_millis+0x3>
C:\Users\Kirpich\AppData\Local\Arduino15\packages\MiniCore\hardware\avr\3.1.1\cores\MCUdude_corefiles/wiring.c:168
  unsigned char f = timer0_fract;
    316a:	30 91 e9 02 	lds	r19, 0x02E9	; 0x8002e9 <timer0_fract>
C:\Users\Kirpich\AppData\Local\Arduino15\packages\MiniCore\hardware\avr\3.1.1\cores\MCUdude_corefiles/wiring.c:170

  f += FRACT_INC FRACT_INC_PLUS;
    316e:	26 e0       	ldi	r18, 0x06	; 6
    3170:	23 0f       	add	r18, r19
C:\Users\Kirpich\AppData\Local\Arduino15\packages\MiniCore\hardware\avr\3.1.1\cores\MCUdude_corefiles/wiring.c:200
    ++f;
  }
#endif
#endif // CORRECT_EXACT_MILLIS

  if (f >= FRACT_MAX) {
    3172:	2d 37       	cpi	r18, 0x7D	; 125
    3174:	58 f5       	brcc	.+86     	; 0x31cc <__vector_16+0x88>
C:\Users\Kirpich\AppData\Local\Arduino15\packages\MiniCore\hardware\avr\3.1.1\cores\MCUdude_corefiles/wiring.c:205
    f -= FRACT_MAX;
    m += MILLIS_INC + 1;
  }
  else {
    m += MILLIS_INC;
    3176:	02 96       	adiw	r24, 0x02	; 2
    3178:	a1 1d       	adc	r26, r1
    317a:	b1 1d       	adc	r27, r1
C:\Users\Kirpich\AppData\Local\Arduino15\packages\MiniCore\hardware\avr\3.1.1\cores\MCUdude_corefiles/wiring.c:208
  }

  timer0_fract = f;
    317c:	20 93 e9 02 	sts	0x02E9, r18	; 0x8002e9 <timer0_fract>
C:\Users\Kirpich\AppData\Local\Arduino15\packages\MiniCore\hardware\avr\3.1.1\cores\MCUdude_corefiles/wiring.c:209
  timer0_millis = m;
    3180:	80 93 ea 02 	sts	0x02EA, r24	; 0x8002ea <timer0_millis>
    3184:	90 93 eb 02 	sts	0x02EB, r25	; 0x8002eb <timer0_millis+0x1>
    3188:	a0 93 ec 02 	sts	0x02EC, r26	; 0x8002ec <timer0_millis+0x2>
    318c:	b0 93 ed 02 	sts	0x02ED, r27	; 0x8002ed <timer0_millis+0x3>
C:\Users\Kirpich\AppData\Local\Arduino15\packages\MiniCore\hardware\avr\3.1.1\cores\MCUdude_corefiles/wiring.c:211
#ifndef CORRECT_EXACT_MICROS
  timer0_overflow_count++;
    3190:	80 91 e5 02 	lds	r24, 0x02E5	; 0x8002e5 <timer0_overflow_count>
    3194:	90 91 e6 02 	lds	r25, 0x02E6	; 0x8002e6 <timer0_overflow_count+0x1>
    3198:	a0 91 e7 02 	lds	r26, 0x02E7	; 0x8002e7 <timer0_overflow_count+0x2>
    319c:	b0 91 e8 02 	lds	r27, 0x02E8	; 0x8002e8 <timer0_overflow_count+0x3>
    31a0:	01 96       	adiw	r24, 0x01	; 1
    31a2:	a1 1d       	adc	r26, r1
    31a4:	b1 1d       	adc	r27, r1
    31a6:	80 93 e5 02 	sts	0x02E5, r24	; 0x8002e5 <timer0_overflow_count>
    31aa:	90 93 e6 02 	sts	0x02E6, r25	; 0x8002e6 <timer0_overflow_count+0x1>
    31ae:	a0 93 e7 02 	sts	0x02E7, r26	; 0x8002e7 <timer0_overflow_count+0x2>
    31b2:	b0 93 e8 02 	sts	0x02E8, r27	; 0x8002e8 <timer0_overflow_count+0x3>
C:\Users\Kirpich\AppData\Local\Arduino15\packages\MiniCore\hardware\avr\3.1.1\cores\MCUdude_corefiles/wiring.c:213
#endif
}
    31b6:	bf 91       	pop	r27
    31b8:	af 91       	pop	r26
    31ba:	9f 91       	pop	r25
    31bc:	8f 91       	pop	r24
    31be:	3f 91       	pop	r19
    31c0:	2f 91       	pop	r18
    31c2:	0f 90       	pop	r0
    31c4:	0f be       	out	0x3f, r0	; 63
    31c6:	0f 90       	pop	r0
    31c8:	1f 90       	pop	r1
    31ca:	18 95       	reti
C:\Users\Kirpich\AppData\Local\Arduino15\packages\MiniCore\hardware\avr\3.1.1\cores\MCUdude_corefiles/wiring.c:201
  }
#endif
#endif // CORRECT_EXACT_MILLIS

  if (f >= FRACT_MAX) {
    f -= FRACT_MAX;
    31cc:	29 e8       	ldi	r18, 0x89	; 137
    31ce:	23 0f       	add	r18, r19
C:\Users\Kirpich\AppData\Local\Arduino15\packages\MiniCore\hardware\avr\3.1.1\cores\MCUdude_corefiles/wiring.c:202
    m += MILLIS_INC + 1;
    31d0:	03 96       	adiw	r24, 0x03	; 3
    31d2:	a1 1d       	adc	r26, r1
    31d4:	b1 1d       	adc	r27, r1
    31d6:	d2 cf       	rjmp	.-92     	; 0x317c <__vector_16+0x38>

000031d8 <main>:
main():
C:\Users\Kirpich\AppData\Local\Arduino15\packages\MiniCore\hardware\avr\3.1.1\cores\MCUdude_corefiles/main.cpp:35
//void setupUSB() __attribute__((weak));
//void setupUSB() { }

int main(void)
{
  init();
    31d8:	0e 94 f4 03 	call	0x7e8	; 0x7e8 <init>
C:\Users\Kirpich\AppData\Local\Arduino15\packages\MiniCore\hardware\avr\3.1.1\cores\MCUdude_corefiles/main.cpp:43

#if defined(USBCON)
  USBDevice.attach();
#endif
  
  setup();
    31dc:	0e 94 a7 10 	call	0x214e	; 0x214e <setup>
C:\Users\Kirpich\AppData\Local\Arduino15\packages\MiniCore\hardware\avr\3.1.1\cores\MCUdude_corefiles/main.cpp:46
    
  for (;;) {
    loop();
    31e0:	0e 94 ba 15 	call	0x2b74	; 0x2b74 <loop>
C:\Users\Kirpich\AppData\Local\Arduino15\packages\MiniCore\hardware\avr\3.1.1\cores\MCUdude_corefiles/main.cpp:47
    if (serialEventRun) serialEventRun();
    31e4:	0e 94 29 06 	call	0xc52	; 0xc52 <serialEventRun()>
    31e8:	fb cf       	rjmp	.-10     	; 0x31e0 <main+0x8>

000031ea <__vector_19>:
__vector_19():
C:\Users\Kirpich\AppData\Local\Arduino15\packages\MiniCore\hardware\avr\3.1.1\cores\MCUdude_corefiles/HardwareSerial0.cpp:63
#elif defined(USART0_UDRE_vect)
ISR(USART0_UDRE_vect)
#else
  #error "Don't know what the Data Register Empty vector is called for Serial"
#endif
{
    31ea:	1f 92       	push	r1
    31ec:	0f 92       	push	r0
    31ee:	0f b6       	in	r0, 0x3f	; 63
    31f0:	0f 92       	push	r0
    31f2:	11 24       	eor	r1, r1
    31f4:	2f 93       	push	r18
    31f6:	3f 93       	push	r19
    31f8:	4f 93       	push	r20
    31fa:	5f 93       	push	r21
    31fc:	6f 93       	push	r22
    31fe:	7f 93       	push	r23
    3200:	8f 93       	push	r24
    3202:	9f 93       	push	r25
    3204:	af 93       	push	r26
    3206:	bf 93       	push	r27
    3208:	ef 93       	push	r30
    320a:	ff 93       	push	r31
C:\Users\Kirpich\AppData\Local\Arduino15\packages\MiniCore\hardware\avr\3.1.1\cores\MCUdude_corefiles/HardwareSerial0.cpp:64
  Serial._tx_udr_empty_irq();
    320c:	88 e4       	ldi	r24, 0x48	; 72
    320e:	92 e0       	ldi	r25, 0x02	; 2
    3210:	0e 94 9a 05 	call	0xb34	; 0xb34 <HardwareSerial::_tx_udr_empty_irq()>
C:\Users\Kirpich\AppData\Local\Arduino15\packages\MiniCore\hardware\avr\3.1.1\cores\MCUdude_corefiles/HardwareSerial0.cpp:65
}
    3214:	ff 91       	pop	r31
    3216:	ef 91       	pop	r30
    3218:	bf 91       	pop	r27
    321a:	af 91       	pop	r26
    321c:	9f 91       	pop	r25
    321e:	8f 91       	pop	r24
    3220:	7f 91       	pop	r23
    3222:	6f 91       	pop	r22
    3224:	5f 91       	pop	r21
    3226:	4f 91       	pop	r20
    3228:	3f 91       	pop	r19
    322a:	2f 91       	pop	r18
    322c:	0f 90       	pop	r0
    322e:	0f be       	out	0x3f, r0	; 63
    3230:	0f 90       	pop	r0
    3232:	1f 90       	pop	r1
    3234:	18 95       	reti

00003236 <__vector_18>:
__vector_18():
C:\Users\Kirpich\AppData\Local\Arduino15\packages\MiniCore\hardware\avr\3.1.1\cores\MCUdude_corefiles/HardwareSerial0.cpp:50
#elif defined(USART_RX_vect)
  ISR(USART_RX_vect)
#else
  #error "Don't know what the Data Received vector is called for Serial"
#endif
  {
    3236:	1f 92       	push	r1
    3238:	0f 92       	push	r0
    323a:	0f b6       	in	r0, 0x3f	; 63
    323c:	0f 92       	push	r0
    323e:	11 24       	eor	r1, r1
    3240:	2f 93       	push	r18
    3242:	8f 93       	push	r24
    3244:	9f 93       	push	r25
    3246:	af 93       	push	r26
    3248:	bf 93       	push	r27
    324a:	ef 93       	push	r30
    324c:	ff 93       	push	r31
_ZN14HardwareSerial16_rx_complete_irqEv():
C:\Users\Kirpich\AppData\Local\Arduino15\packages\MiniCore\hardware\avr\3.1.1\cores\MCUdude_corefiles/HardwareSerial_private.h:100

// Actual interrupt handlers //////////////////////////////////////////////////////////////

void HardwareSerial::_rx_complete_irq(void)
{
  if (bit_is_clear(*_ucsra, UPE0)) {
    324e:	e0 91 58 02 	lds	r30, 0x0258	; 0x800258 <Serial+0x10>
    3252:	f0 91 59 02 	lds	r31, 0x0259	; 0x800259 <Serial+0x11>
    3256:	80 81       	ld	r24, Z
    3258:	82 fd       	sbrc	r24, 2
    325a:	14 c0       	rjmp	.+40     	; 0x3284 <__vector_18+0x4e>
C:\Users\Kirpich\AppData\Local\Arduino15\packages\MiniCore\hardware\avr\3.1.1\cores\MCUdude_corefiles/HardwareSerial_private.h:103
    // No Parity error, read byte and store it in the buffer if there is
    // room
    unsigned char c = *_udr;
    325c:	e8 e4       	ldi	r30, 0x48	; 72
    325e:	f2 e0       	ldi	r31, 0x02	; 2
    3260:	a6 89       	ldd	r26, Z+22	; 0x16
    3262:	b7 89       	ldd	r27, Z+23	; 0x17
    3264:	2c 91       	ld	r18, X
C:\Users\Kirpich\AppData\Local\Arduino15\packages\MiniCore\hardware\avr\3.1.1\cores\MCUdude_corefiles/HardwareSerial_private.h:104
    rx_buffer_index_t i = (unsigned int)(_rx_buffer_head + 1) % SERIAL_RX_BUFFER_SIZE;
    3266:	81 8d       	ldd	r24, Z+25	; 0x19
    3268:	8f 5f       	subi	r24, 0xFF	; 255
    326a:	8f 73       	andi	r24, 0x3F	; 63
C:\Users\Kirpich\AppData\Local\Arduino15\packages\MiniCore\hardware\avr\3.1.1\cores\MCUdude_corefiles/HardwareSerial_private.h:110

    // if we should be storing the received character into the location
    // just before the tail (meaning that the head would advance to the
    // current location of the tail), we're about to overflow the buffer
    // and so we don't write the character or advance the head.
    if (i != _rx_buffer_tail) {
    326c:	92 8d       	ldd	r25, Z+26	; 0x1a
    326e:	89 17       	cp	r24, r25
    3270:	71 f0       	breq	.+28     	; 0x328e <__vector_18+0x58>
C:\Users\Kirpich\AppData\Local\Arduino15\packages\MiniCore\hardware\avr\3.1.1\cores\MCUdude_corefiles/HardwareSerial_private.h:111
      _rx_buffer[_rx_buffer_head] = c;
    3272:	df 01       	movw	r26, r30
    3274:	e1 8d       	ldd	r30, Z+25	; 0x19
    3276:	f0 e0       	ldi	r31, 0x00	; 0
    3278:	e8 5b       	subi	r30, 0xB8	; 184
    327a:	fd 4f       	sbci	r31, 0xFD	; 253
    327c:	25 8f       	std	Z+29, r18	; 0x1d
C:\Users\Kirpich\AppData\Local\Arduino15\packages\MiniCore\hardware\avr\3.1.1\cores\MCUdude_corefiles/HardwareSerial_private.h:112
      _rx_buffer_head = i;
    327e:	59 96       	adiw	r26, 0x19	; 25
    3280:	8c 93       	st	X, r24
    3282:	05 c0       	rjmp	.+10     	; 0x328e <__vector_18+0x58>
C:\Users\Kirpich\AppData\Local\Arduino15\packages\MiniCore\hardware\avr\3.1.1\cores\MCUdude_corefiles/HardwareSerial_private.h:116
    }
  } else {
    // Parity error, read byte but discard it
    *_udr;
    3284:	e0 91 5e 02 	lds	r30, 0x025E	; 0x80025e <Serial+0x16>
    3288:	f0 91 5f 02 	lds	r31, 0x025F	; 0x80025f <Serial+0x17>
    328c:	80 81       	ld	r24, Z
__vector_18():
C:\Users\Kirpich\AppData\Local\Arduino15\packages\MiniCore\hardware\avr\3.1.1\cores\MCUdude_corefiles/HardwareSerial0.cpp:52
    Serial._rx_complete_irq();
  }
    328e:	ff 91       	pop	r31
    3290:	ef 91       	pop	r30
    3292:	bf 91       	pop	r27
    3294:	af 91       	pop	r26
    3296:	9f 91       	pop	r25
    3298:	8f 91       	pop	r24
    329a:	2f 91       	pop	r18
    329c:	0f 90       	pop	r0
    329e:	0f be       	out	0x3f, r0	; 63
    32a0:	0f 90       	pop	r0
    32a2:	1f 90       	pop	r1
    32a4:	18 95       	reti

000032a6 <__vector_3>:
__vector_3():
l:\Projects\arduino\libraries\SoftwareSerialParity/SoftwareSerialParity.cpp:229
  }
}

#if defined(PCINT0_vect)
ISR(PCINT0_vect)
{
    32a6:	1f 92       	push	r1
    32a8:	0f 92       	push	r0
    32aa:	0f b6       	in	r0, 0x3f	; 63
    32ac:	0f 92       	push	r0
    32ae:	11 24       	eor	r1, r1
    32b0:	ef 92       	push	r14
    32b2:	ff 92       	push	r15
    32b4:	0f 93       	push	r16
    32b6:	1f 93       	push	r17
    32b8:	2f 93       	push	r18
    32ba:	3f 93       	push	r19
    32bc:	4f 93       	push	r20
    32be:	5f 93       	push	r21
    32c0:	6f 93       	push	r22
    32c2:	7f 93       	push	r23
    32c4:	8f 93       	push	r24
    32c6:	9f 93       	push	r25
    32c8:	af 93       	push	r26
    32ca:	bf 93       	push	r27
    32cc:	cf 93       	push	r28
    32ce:	df 93       	push	r29
    32d0:	ef 93       	push	r30
    32d2:	ff 93       	push	r31
_ZN20SoftwareSerialParity16handle_interruptEv():
l:\Projects\arduino\libraries\SoftwareSerialParity/SoftwareSerialParity.cpp:221
//

/* static */
inline void SoftwareSerialParity::handle_interrupt()
{
  if (active_object)
    32d4:	00 91 46 02 	lds	r16, 0x0246	; 0x800246 <SoftwareSerialParity::active_object>
    32d8:	10 91 47 02 	lds	r17, 0x0247	; 0x800247 <SoftwareSerialParity::active_object+0x1>
    32dc:	01 15       	cp	r16, r1
    32de:	11 05       	cpc	r17, r1
    32e0:	09 f4       	brne	.+2      	; 0x32e4 <__vector_3+0x3e>
    32e2:	63 c0       	rjmp	.+198    	; 0x33aa <__vector_3+0x104>
_ZN20SoftwareSerialParity4recvEv():
l:\Projects\arduino\libraries\SoftwareSerialParity/SoftwareSerialParity.cpp:146

  uint8_t d = 0;

  // If RX line is high, then we don't see any start bit
  // so interrupt is probably not for us
  if (_inverse_logic ? rx_pin_read() : !rx_pin_read())
    32e4:	d8 01       	movw	r26, r16
    32e6:	90 96       	adiw	r26, 0x20	; 32
    32e8:	8c 91       	ld	r24, X
    32ea:	81 ff       	sbrs	r24, 1
    32ec:	1c c0       	rjmp	.+56     	; 0x3326 <__vector_3+0x80>
    32ee:	c8 01       	movw	r24, r16
    32f0:	0e 94 9a 07 	call	0xf34	; 0xf34 <SoftwareSerialParity::rx_pin_read()>
    32f4:	88 23       	and	r24, r24
    32f6:	09 f4       	brne	.+2      	; 0x32fa <__vector_3+0x54>
    32f8:	58 c0       	rjmp	.+176    	; 0x33aa <__vector_3+0x104>
_ZN20SoftwareSerialParity11setRxIntMskEb():
l:\Projects\arduino\libraries\SoftwareSerialParity/SoftwareSerialParity.cpp:390
void SoftwareSerialParity::setRxIntMsk(bool enable)
{
    if (enable)
      *_pcint_maskreg |= _pcint_maskvalue;
    else
      *_pcint_maskreg &= ~_pcint_maskvalue;
    32fa:	d8 01       	movw	r26, r16
    32fc:	55 96       	adiw	r26, 0x15	; 21
    32fe:	ed 91       	ld	r30, X+
    3300:	fc 91       	ld	r31, X
    3302:	56 97       	sbiw	r26, 0x16	; 22
    3304:	90 81       	ld	r25, Z
    3306:	57 96       	adiw	r26, 0x17	; 23
    3308:	8c 91       	ld	r24, X
    330a:	57 97       	sbiw	r26, 0x17	; 23
    330c:	80 95       	com	r24
    330e:	89 23       	and	r24, r25
    3310:	80 83       	st	Z, r24
_ZN20SoftwareSerialParity4recvEv():
l:\Projects\arduino\libraries\SoftwareSerialParity/SoftwareSerialParity.cpp:154
    // triggering another interrupt directly after we return, which can
    // cause problems at higher baudrates.
    setRxIntMsk(false);

    // Wait approximately 1/2 of a bit width to "center" the sample
    tunedDelay(_rx_delay_centering);
    3312:	58 96       	adiw	r26, 0x18	; 24
    3314:	8d 91       	ld	r24, X+
    3316:	9c 91       	ld	r25, X
_delay_loop_2():
c:\users\kirpich\appdata\local\arduino15\packages\arduino\tools\avr-gcc\7.3.0-atmel3.6.1-arduino7\avr\include\util/delay_basic.h:110
    3318:	01 97       	sbiw	r24, 0x01	; 1
    331a:	f1 f7       	brne	.-4      	; 0x3318 <__vector_3+0x72>
__vector_3():
l:\Projects\arduino\libraries\SoftwareSerialParity/SoftwareSerialParity.cpp:158
    DebugPulse(_DEBUG_PIN2, 1);

    // Read each of the 8 bits
    for (uint8_t i=8; i > 0; --i)
    331c:	68 94       	set
    331e:	ff 24       	eor	r15, r15
    3320:	f3 f8       	bld	r15, 3
l:\Projects\arduino\libraries\SoftwareSerialParity/SoftwareSerialParity.cpp:142
    "push r26 \n\t"
    "push r27 \n\t"
    ::);
#endif  

  uint8_t d = 0;
    3322:	e1 2c       	mov	r14, r1
    3324:	07 c0       	rjmp	.+14     	; 0x3334 <__vector_3+0x8e>
_ZN20SoftwareSerialParity4recvEv():
l:\Projects\arduino\libraries\SoftwareSerialParity/SoftwareSerialParity.cpp:146

  // If RX line is high, then we don't see any start bit
  // so interrupt is probably not for us
  if (_inverse_logic ? rx_pin_read() : !rx_pin_read())
    3326:	c8 01       	movw	r24, r16
    3328:	0e 94 9a 07 	call	0xf34	; 0xf34 <SoftwareSerialParity::rx_pin_read()>
    332c:	88 23       	and	r24, r24
    332e:	29 f3       	breq	.-54     	; 0x32fa <__vector_3+0x54>
    3330:	3c c0       	rjmp	.+120    	; 0x33aa <__vector_3+0x104>
l:\Projects\arduino\libraries\SoftwareSerialParity/SoftwareSerialParity.cpp:158
    // Wait approximately 1/2 of a bit width to "center" the sample
    tunedDelay(_rx_delay_centering);
    DebugPulse(_DEBUG_PIN2, 1);

    // Read each of the 8 bits
    for (uint8_t i=8; i > 0; --i)
    3332:	fa 94       	dec	r15
    3334:	ff 20       	and	r15, r15
    3336:	91 f0       	breq	.+36     	; 0x335c <__vector_3+0xb6>
l:\Projects\arduino\libraries\SoftwareSerialParity/SoftwareSerialParity.cpp:160
    {
      tunedDelay(_rx_delay_intrabit);
    3338:	f8 01       	movw	r30, r16
    333a:	82 8d       	ldd	r24, Z+26	; 0x1a
    333c:	93 8d       	ldd	r25, Z+27	; 0x1b
_delay_loop_2():
c:\users\kirpich\appdata\local\arduino15\packages\arduino\tools\avr-gcc\7.3.0-atmel3.6.1-arduino7\avr\include\util/delay_basic.h:110
    333e:	01 97       	sbiw	r24, 0x01	; 1
    3340:	f1 f7       	brne	.-4      	; 0x333e <__vector_3+0x98>
_ZN20SoftwareSerialParity4recvEv():
l:\Projects\arduino\libraries\SoftwareSerialParity/SoftwareSerialParity.cpp:161
      d >>= 1;
    3342:	ce 2d       	mov	r28, r14
    3344:	d0 e0       	ldi	r29, 0x00	; 0
    3346:	d5 95       	asr	r29
    3348:	c7 95       	ror	r28
    334a:	ec 2e       	mov	r14, r28
l:\Projects\arduino\libraries\SoftwareSerialParity/SoftwareSerialParity.cpp:163
      DebugPulse(_DEBUG_PIN2, 1);
      if (rx_pin_read())
    334c:	c8 01       	movw	r24, r16
    334e:	0e 94 9a 07 	call	0xf34	; 0xf34 <SoftwareSerialParity::rx_pin_read()>
    3352:	88 23       	and	r24, r24
    3354:	71 f3       	breq	.-36     	; 0x3332 <__vector_3+0x8c>
l:\Projects\arduino\libraries\SoftwareSerialParity/SoftwareSerialParity.cpp:164
        d |= 0x80;
    3356:	68 94       	set
    3358:	e7 f8       	bld	r14, 7
    335a:	eb cf       	rjmp	.-42     	; 0x3332 <__vector_3+0x8c>
l:\Projects\arduino\libraries\SoftwareSerialParity/SoftwareSerialParity.cpp:167
    }

    if (_inverse_logic)
    335c:	d8 01       	movw	r26, r16
    335e:	90 96       	adiw	r26, 0x20	; 32
    3360:	8c 91       	ld	r24, X
    3362:	81 fd       	sbrc	r24, 1
l:\Projects\arduino\libraries\SoftwareSerialParity/SoftwareSerialParity.cpp:168
      d = ~d;
    3364:	e0 94       	com	r14
l:\Projects\arduino\libraries\SoftwareSerialParity/SoftwareSerialParity.cpp:171

    // if buffer full, set the overflow flag and return
    uint8_t next = (_receive_buffer_tail + 1) % _SS_MAX_RX_BUFF;
    3366:	80 91 44 02 	lds	r24, 0x0244	; 0x800244 <SoftwareSerialParity::_receive_buffer_tail>
    336a:	90 e0       	ldi	r25, 0x00	; 0
    336c:	01 96       	adiw	r24, 0x01	; 1
    336e:	8f 73       	andi	r24, 0x3F	; 63
    3370:	90 78       	andi	r25, 0x80	; 128
l:\Projects\arduino\libraries\SoftwareSerialParity/SoftwareSerialParity.cpp:172
    if (next != _receive_buffer_head)
    3372:	20 91 45 02 	lds	r18, 0x0245	; 0x800245 <SoftwareSerialParity::_receive_buffer_head>
    3376:	28 17       	cp	r18, r24
    3378:	79 f1       	breq	.+94     	; 0x33d8 <__vector_3+0x132>
l:\Projects\arduino\libraries\SoftwareSerialParity/SoftwareSerialParity.cpp:175
    {
      // save new data in buffer: tail points to where byte goes
      _receive_buffer[_receive_buffer_tail] = d; // save new byte
    337a:	e0 91 44 02 	lds	r30, 0x0244	; 0x800244 <SoftwareSerialParity::_receive_buffer_tail>
    337e:	f0 e0       	ldi	r31, 0x00	; 0
    3380:	ec 5f       	subi	r30, 0xFC	; 252
    3382:	fd 4f       	sbci	r31, 0xFD	; 253
    3384:	e0 82       	st	Z, r14
l:\Projects\arduino\libraries\SoftwareSerialParity/SoftwareSerialParity.cpp:176
      _receive_buffer_tail = next;
    3386:	80 93 44 02 	sts	0x0244, r24	; 0x800244 <SoftwareSerialParity::_receive_buffer_tail>
l:\Projects\arduino\libraries\SoftwareSerialParity/SoftwareSerialParity.cpp:185
      DebugPulse(_DEBUG_PIN1, 1);
      _buffer_overflow = true;
    }

    // skip the stop bit
    tunedDelay(_rx_delay_stopbit);
    338a:	d8 01       	movw	r26, r16
    338c:	5c 96       	adiw	r26, 0x1c	; 28
    338e:	8d 91       	ld	r24, X+
    3390:	9c 91       	ld	r25, X
    3392:	5d 97       	sbiw	r26, 0x1d	; 29
_delay_loop_2():
c:\users\kirpich\appdata\local\arduino15\packages\arduino\tools\avr-gcc\7.3.0-atmel3.6.1-arduino7\avr\include\util/delay_basic.h:110
    3394:	01 97       	sbiw	r24, 0x01	; 1
    3396:	f1 f7       	brne	.-4      	; 0x3394 <__vector_3+0xee>
_ZN20SoftwareSerialParity11setRxIntMskEb():
l:\Projects\arduino\libraries\SoftwareSerialParity/SoftwareSerialParity.cpp:388
}

void SoftwareSerialParity::setRxIntMsk(bool enable)
{
    if (enable)
      *_pcint_maskreg |= _pcint_maskvalue;
    3398:	55 96       	adiw	r26, 0x15	; 21
    339a:	ed 91       	ld	r30, X+
    339c:	fc 91       	ld	r31, X
    339e:	56 97       	sbiw	r26, 0x16	; 22
    33a0:	80 81       	ld	r24, Z
    33a2:	57 96       	adiw	r26, 0x17	; 23
    33a4:	9c 91       	ld	r25, X
    33a6:	89 2b       	or	r24, r25
    33a8:	80 83       	st	Z, r24
__vector_3():
l:\Projects\arduino\libraries\SoftwareSerialParity/SoftwareSerialParity.cpp:231

#if defined(PCINT0_vect)
ISR(PCINT0_vect)
{
  SoftwareSerialParity::handle_interrupt();
}
    33aa:	ff 91       	pop	r31
    33ac:	ef 91       	pop	r30
    33ae:	df 91       	pop	r29
    33b0:	cf 91       	pop	r28
    33b2:	bf 91       	pop	r27
    33b4:	af 91       	pop	r26
    33b6:	9f 91       	pop	r25
    33b8:	8f 91       	pop	r24
    33ba:	7f 91       	pop	r23
    33bc:	6f 91       	pop	r22
    33be:	5f 91       	pop	r21
    33c0:	4f 91       	pop	r20
    33c2:	3f 91       	pop	r19
    33c4:	2f 91       	pop	r18
    33c6:	1f 91       	pop	r17
    33c8:	0f 91       	pop	r16
    33ca:	ff 90       	pop	r15
    33cc:	ef 90       	pop	r14
    33ce:	0f 90       	pop	r0
    33d0:	0f be       	out	0x3f, r0	; 63
    33d2:	0f 90       	pop	r0
    33d4:	1f 90       	pop	r1
    33d6:	18 95       	reti
_ZN20SoftwareSerialParity4recvEv():
l:\Projects\arduino\libraries\SoftwareSerialParity/SoftwareSerialParity.cpp:181
      _receive_buffer_tail = next;
    } 
    else 
    {
      DebugPulse(_DEBUG_PIN1, 1);
      _buffer_overflow = true;
    33d8:	f8 01       	movw	r30, r16
    33da:	80 a1       	ldd	r24, Z+32	; 0x20
    33dc:	81 60       	ori	r24, 0x01	; 1
    33de:	80 a3       	std	Z+32, r24	; 0x20
    33e0:	d4 cf       	rjmp	.-88     	; 0x338a <__vector_3+0xe4>

000033e2 <_GLOBAL__sub_D__Z12get_keystorePhh>:
_GLOBAL__sub_D__Z12get_keystorePhh():
L:\Programs\psp\Pandora\Arduino_v4_61/Arduino_v4_61.ino:587
    33e2:	6f ef       	ldi	r22, 0xFF	; 255
    33e4:	7f ef       	ldi	r23, 0xFF	; 255
    33e6:	90 e0       	ldi	r25, 0x00	; 0
    33e8:	80 e0       	ldi	r24, 0x00	; 0
    33ea:	0e 94 94 0e 	call	0x1d28	; 0x1d28 <__static_initialization_and_destruction_0(int, int) [clone .lto_priv.0]>
    33ee:	08 95       	ret

000033f0 <memcpy_P>:
memcpy_P():
    33f0:	fb 01       	movw	r30, r22
    33f2:	dc 01       	movw	r26, r24
    33f4:	02 c0       	rjmp	.+4      	; 0x33fa <memcpy_P+0xa>
    33f6:	05 90       	lpm	r0, Z+
    33f8:	0d 92       	st	X+, r0
    33fa:	41 50       	subi	r20, 0x01	; 1
    33fc:	50 40       	sbci	r21, 0x00	; 0
    33fe:	d8 f7       	brcc	.-10     	; 0x33f6 <memcpy_P+0x6>
    3400:	08 95       	ret

00003402 <__divmodsi4>:
__divmodsi4():
/home/jenkins-mingw32/workspace/avr-gcc-staging/label/Ubuntu14.04x64-mingw32/gcc-build/avr/avr5/libgcc/../../../../gcc/libgcc/config/avr/lib1funcs.S:1686
    3402:	05 2e       	mov	r0, r21
/home/jenkins-mingw32/workspace/avr-gcc-staging/label/Ubuntu14.04x64-mingw32/gcc-build/avr/avr5/libgcc/../../../../gcc/libgcc/config/avr/lib1funcs.S:1687
    3404:	97 fb       	bst	r25, 7
/home/jenkins-mingw32/workspace/avr-gcc-staging/label/Ubuntu14.04x64-mingw32/gcc-build/avr/avr5/libgcc/../../../../gcc/libgcc/config/avr/lib1funcs.S:1688
    3406:	1e f4       	brtc	.+6      	; 0x340e <__divmodsi4+0xc>
/home/jenkins-mingw32/workspace/avr-gcc-staging/label/Ubuntu14.04x64-mingw32/gcc-build/avr/avr5/libgcc/../../../../gcc/libgcc/config/avr/lib1funcs.S:1689
    3408:	00 94       	com	r0
/home/jenkins-mingw32/workspace/avr-gcc-staging/label/Ubuntu14.04x64-mingw32/gcc-build/avr/avr5/libgcc/../../../../gcc/libgcc/config/avr/lib1funcs.S:1690
    340a:	0e 94 18 1a 	call	0x3430	; 0x3430 <__negsi2>
/home/jenkins-mingw32/workspace/avr-gcc-staging/label/Ubuntu14.04x64-mingw32/gcc-build/avr/avr5/libgcc/../../../../gcc/libgcc/config/avr/lib1funcs.S:1692
    340e:	57 fd       	sbrc	r21, 7
/home/jenkins-mingw32/workspace/avr-gcc-staging/label/Ubuntu14.04x64-mingw32/gcc-build/avr/avr5/libgcc/../../../../gcc/libgcc/config/avr/lib1funcs.S:1693
    3410:	07 d0       	rcall	.+14     	; 0x3420 <__divmodsi4_neg2>
/home/jenkins-mingw32/workspace/avr-gcc-staging/label/Ubuntu14.04x64-mingw32/gcc-build/avr/avr5/libgcc/../../../../gcc/libgcc/config/avr/lib1funcs.S:1694
    3412:	0e 94 2b 1a 	call	0x3456	; 0x3456 <__udivmodsi4>
/home/jenkins-mingw32/workspace/avr-gcc-staging/label/Ubuntu14.04x64-mingw32/gcc-build/avr/avr5/libgcc/../../../../gcc/libgcc/config/avr/lib1funcs.S:1695
    3416:	07 fc       	sbrc	r0, 7
/home/jenkins-mingw32/workspace/avr-gcc-staging/label/Ubuntu14.04x64-mingw32/gcc-build/avr/avr5/libgcc/../../../../gcc/libgcc/config/avr/lib1funcs.S:1696
    3418:	03 d0       	rcall	.+6      	; 0x3420 <__divmodsi4_neg2>
/home/jenkins-mingw32/workspace/avr-gcc-staging/label/Ubuntu14.04x64-mingw32/gcc-build/avr/avr5/libgcc/../../../../gcc/libgcc/config/avr/lib1funcs.S:1697
    341a:	4e f4       	brtc	.+18     	; 0x342e <__divmodsi4_exit>
/home/jenkins-mingw32/workspace/avr-gcc-staging/label/Ubuntu14.04x64-mingw32/gcc-build/avr/avr5/libgcc/../../../../gcc/libgcc/config/avr/lib1funcs.S:1698
    341c:	0c 94 18 1a 	jmp	0x3430	; 0x3430 <__negsi2>

00003420 <__divmodsi4_neg2>:
/home/jenkins-mingw32/workspace/avr-gcc-staging/label/Ubuntu14.04x64-mingw32/gcc-build/avr/avr5/libgcc/../../../../gcc/libgcc/config/avr/lib1funcs.S:1701
    3420:	50 95       	com	r21
/home/jenkins-mingw32/workspace/avr-gcc-staging/label/Ubuntu14.04x64-mingw32/gcc-build/avr/avr5/libgcc/../../../../gcc/libgcc/config/avr/lib1funcs.S:1702
    3422:	40 95       	com	r20
/home/jenkins-mingw32/workspace/avr-gcc-staging/label/Ubuntu14.04x64-mingw32/gcc-build/avr/avr5/libgcc/../../../../gcc/libgcc/config/avr/lib1funcs.S:1703
    3424:	30 95       	com	r19
/home/jenkins-mingw32/workspace/avr-gcc-staging/label/Ubuntu14.04x64-mingw32/gcc-build/avr/avr5/libgcc/../../../../gcc/libgcc/config/avr/lib1funcs.S:1704
    3426:	21 95       	neg	r18
/home/jenkins-mingw32/workspace/avr-gcc-staging/label/Ubuntu14.04x64-mingw32/gcc-build/avr/avr5/libgcc/../../../../gcc/libgcc/config/avr/lib1funcs.S:1705
    3428:	3f 4f       	sbci	r19, 0xFF	; 255
/home/jenkins-mingw32/workspace/avr-gcc-staging/label/Ubuntu14.04x64-mingw32/gcc-build/avr/avr5/libgcc/../../../../gcc/libgcc/config/avr/lib1funcs.S:1706
    342a:	4f 4f       	sbci	r20, 0xFF	; 255
/home/jenkins-mingw32/workspace/avr-gcc-staging/label/Ubuntu14.04x64-mingw32/gcc-build/avr/avr5/libgcc/../../../../gcc/libgcc/config/avr/lib1funcs.S:1707
    342c:	5f 4f       	sbci	r21, 0xFF	; 255

0000342e <__divmodsi4_exit>:
/home/jenkins-mingw32/workspace/avr-gcc-staging/label/Ubuntu14.04x64-mingw32/gcc-build/avr/avr5/libgcc/../../../../gcc/libgcc/config/avr/lib1funcs.S:1709
    342e:	08 95       	ret

00003430 <__negsi2>:
__negsi2():
/home/jenkins-mingw32/workspace/avr-gcc-staging/label/Ubuntu14.04x64-mingw32/gcc-build/avr/avr5/libgcc/../../../../gcc/libgcc/config/avr/lib1funcs.S:1718
    3430:	90 95       	com	r25
    3432:	80 95       	com	r24
    3434:	70 95       	com	r23
    3436:	61 95       	neg	r22
    3438:	7f 4f       	sbci	r23, 0xFF	; 255
    343a:	8f 4f       	sbci	r24, 0xFF	; 255
    343c:	9f 4f       	sbci	r25, 0xFF	; 255
/home/jenkins-mingw32/workspace/avr-gcc-staging/label/Ubuntu14.04x64-mingw32/gcc-build/avr/avr5/libgcc/../../../../gcc/libgcc/config/avr/lib1funcs.S:1719
    343e:	08 95       	ret

00003440 <__muluhisi3>:
__muluhisi3():
/home/jenkins-mingw32/workspace/avr-gcc-staging/label/Ubuntu14.04x64-mingw32/gcc-build/avr/avr5/libgcc/../../../../gcc/libgcc/config/avr/lib1funcs.S:626
    3440:	0e 94 4d 1a 	call	0x349a	; 0x349a <__umulhisi3>
/home/jenkins-mingw32/workspace/avr-gcc-staging/label/Ubuntu14.04x64-mingw32/gcc-build/avr/avr5/libgcc/../../../../gcc/libgcc/config/avr/lib1funcs.S:627
    3444:	a5 9f       	mul	r26, r21
/home/jenkins-mingw32/workspace/avr-gcc-staging/label/Ubuntu14.04x64-mingw32/gcc-build/avr/avr5/libgcc/../../../../gcc/libgcc/config/avr/lib1funcs.S:628
    3446:	90 0d       	add	r25, r0
/home/jenkins-mingw32/workspace/avr-gcc-staging/label/Ubuntu14.04x64-mingw32/gcc-build/avr/avr5/libgcc/../../../../gcc/libgcc/config/avr/lib1funcs.S:629
    3448:	b4 9f       	mul	r27, r20
/home/jenkins-mingw32/workspace/avr-gcc-staging/label/Ubuntu14.04x64-mingw32/gcc-build/avr/avr5/libgcc/../../../../gcc/libgcc/config/avr/lib1funcs.S:630
    344a:	90 0d       	add	r25, r0
/home/jenkins-mingw32/workspace/avr-gcc-staging/label/Ubuntu14.04x64-mingw32/gcc-build/avr/avr5/libgcc/../../../../gcc/libgcc/config/avr/lib1funcs.S:631
    344c:	a4 9f       	mul	r26, r20
/home/jenkins-mingw32/workspace/avr-gcc-staging/label/Ubuntu14.04x64-mingw32/gcc-build/avr/avr5/libgcc/../../../../gcc/libgcc/config/avr/lib1funcs.S:632
    344e:	80 0d       	add	r24, r0
/home/jenkins-mingw32/workspace/avr-gcc-staging/label/Ubuntu14.04x64-mingw32/gcc-build/avr/avr5/libgcc/../../../../gcc/libgcc/config/avr/lib1funcs.S:633
    3450:	91 1d       	adc	r25, r1
/home/jenkins-mingw32/workspace/avr-gcc-staging/label/Ubuntu14.04x64-mingw32/gcc-build/avr/avr5/libgcc/../../../../gcc/libgcc/config/avr/lib1funcs.S:634
    3452:	11 24       	eor	r1, r1
/home/jenkins-mingw32/workspace/avr-gcc-staging/label/Ubuntu14.04x64-mingw32/gcc-build/avr/avr5/libgcc/../../../../gcc/libgcc/config/avr/lib1funcs.S:635
    3454:	08 95       	ret

00003456 <__udivmodsi4>:
__udivmodsi4():
/home/jenkins-mingw32/workspace/avr-gcc-staging/label/Ubuntu14.04x64-mingw32/gcc-build/avr/avr5/libgcc/../../../../gcc/libgcc/config/avr/lib1funcs.S:1638
    3456:	a1 e2       	ldi	r26, 0x21	; 33
/home/jenkins-mingw32/workspace/avr-gcc-staging/label/Ubuntu14.04x64-mingw32/gcc-build/avr/avr5/libgcc/../../../../gcc/libgcc/config/avr/lib1funcs.S:1639
    3458:	1a 2e       	mov	r1, r26
/home/jenkins-mingw32/workspace/avr-gcc-staging/label/Ubuntu14.04x64-mingw32/gcc-build/avr/avr5/libgcc/../../../../gcc/libgcc/config/avr/lib1funcs.S:1640
    345a:	aa 1b       	sub	r26, r26
/home/jenkins-mingw32/workspace/avr-gcc-staging/label/Ubuntu14.04x64-mingw32/gcc-build/avr/avr5/libgcc/../../../../gcc/libgcc/config/avr/lib1funcs.S:1641
    345c:	bb 1b       	sub	r27, r27
/home/jenkins-mingw32/workspace/avr-gcc-staging/label/Ubuntu14.04x64-mingw32/gcc-build/avr/avr5/libgcc/../../../../gcc/libgcc/config/avr/lib1funcs.S:1642
    345e:	fd 01       	movw	r30, r26
/home/jenkins-mingw32/workspace/avr-gcc-staging/label/Ubuntu14.04x64-mingw32/gcc-build/avr/avr5/libgcc/../../../../gcc/libgcc/config/avr/lib1funcs.S:1644
    3460:	0d c0       	rjmp	.+26     	; 0x347c <__udivmodsi4_ep>

00003462 <__udivmodsi4_loop>:
/home/jenkins-mingw32/workspace/avr-gcc-staging/label/Ubuntu14.04x64-mingw32/gcc-build/avr/avr5/libgcc/../../../../gcc/libgcc/config/avr/lib1funcs.S:1646
    3462:	aa 1f       	adc	r26, r26
/home/jenkins-mingw32/workspace/avr-gcc-staging/label/Ubuntu14.04x64-mingw32/gcc-build/avr/avr5/libgcc/../../../../gcc/libgcc/config/avr/lib1funcs.S:1647
    3464:	bb 1f       	adc	r27, r27
/home/jenkins-mingw32/workspace/avr-gcc-staging/label/Ubuntu14.04x64-mingw32/gcc-build/avr/avr5/libgcc/../../../../gcc/libgcc/config/avr/lib1funcs.S:1648
    3466:	ee 1f       	adc	r30, r30
/home/jenkins-mingw32/workspace/avr-gcc-staging/label/Ubuntu14.04x64-mingw32/gcc-build/avr/avr5/libgcc/../../../../gcc/libgcc/config/avr/lib1funcs.S:1649
    3468:	ff 1f       	adc	r31, r31
/home/jenkins-mingw32/workspace/avr-gcc-staging/label/Ubuntu14.04x64-mingw32/gcc-build/avr/avr5/libgcc/../../../../gcc/libgcc/config/avr/lib1funcs.S:1650
    346a:	a2 17       	cp	r26, r18
/home/jenkins-mingw32/workspace/avr-gcc-staging/label/Ubuntu14.04x64-mingw32/gcc-build/avr/avr5/libgcc/../../../../gcc/libgcc/config/avr/lib1funcs.S:1651
    346c:	b3 07       	cpc	r27, r19
/home/jenkins-mingw32/workspace/avr-gcc-staging/label/Ubuntu14.04x64-mingw32/gcc-build/avr/avr5/libgcc/../../../../gcc/libgcc/config/avr/lib1funcs.S:1652
    346e:	e4 07       	cpc	r30, r20
/home/jenkins-mingw32/workspace/avr-gcc-staging/label/Ubuntu14.04x64-mingw32/gcc-build/avr/avr5/libgcc/../../../../gcc/libgcc/config/avr/lib1funcs.S:1653
    3470:	f5 07       	cpc	r31, r21
/home/jenkins-mingw32/workspace/avr-gcc-staging/label/Ubuntu14.04x64-mingw32/gcc-build/avr/avr5/libgcc/../../../../gcc/libgcc/config/avr/lib1funcs.S:1654
    3472:	20 f0       	brcs	.+8      	; 0x347c <__udivmodsi4_ep>
/home/jenkins-mingw32/workspace/avr-gcc-staging/label/Ubuntu14.04x64-mingw32/gcc-build/avr/avr5/libgcc/../../../../gcc/libgcc/config/avr/lib1funcs.S:1655
    3474:	a2 1b       	sub	r26, r18
/home/jenkins-mingw32/workspace/avr-gcc-staging/label/Ubuntu14.04x64-mingw32/gcc-build/avr/avr5/libgcc/../../../../gcc/libgcc/config/avr/lib1funcs.S:1656
    3476:	b3 0b       	sbc	r27, r19
/home/jenkins-mingw32/workspace/avr-gcc-staging/label/Ubuntu14.04x64-mingw32/gcc-build/avr/avr5/libgcc/../../../../gcc/libgcc/config/avr/lib1funcs.S:1657
    3478:	e4 0b       	sbc	r30, r20
/home/jenkins-mingw32/workspace/avr-gcc-staging/label/Ubuntu14.04x64-mingw32/gcc-build/avr/avr5/libgcc/../../../../gcc/libgcc/config/avr/lib1funcs.S:1658
    347a:	f5 0b       	sbc	r31, r21

0000347c <__udivmodsi4_ep>:
/home/jenkins-mingw32/workspace/avr-gcc-staging/label/Ubuntu14.04x64-mingw32/gcc-build/avr/avr5/libgcc/../../../../gcc/libgcc/config/avr/lib1funcs.S:1660
    347c:	66 1f       	adc	r22, r22
/home/jenkins-mingw32/workspace/avr-gcc-staging/label/Ubuntu14.04x64-mingw32/gcc-build/avr/avr5/libgcc/../../../../gcc/libgcc/config/avr/lib1funcs.S:1661
    347e:	77 1f       	adc	r23, r23
/home/jenkins-mingw32/workspace/avr-gcc-staging/label/Ubuntu14.04x64-mingw32/gcc-build/avr/avr5/libgcc/../../../../gcc/libgcc/config/avr/lib1funcs.S:1662
    3480:	88 1f       	adc	r24, r24
/home/jenkins-mingw32/workspace/avr-gcc-staging/label/Ubuntu14.04x64-mingw32/gcc-build/avr/avr5/libgcc/../../../../gcc/libgcc/config/avr/lib1funcs.S:1663
    3482:	99 1f       	adc	r25, r25
/home/jenkins-mingw32/workspace/avr-gcc-staging/label/Ubuntu14.04x64-mingw32/gcc-build/avr/avr5/libgcc/../../../../gcc/libgcc/config/avr/lib1funcs.S:1664
    3484:	1a 94       	dec	r1
/home/jenkins-mingw32/workspace/avr-gcc-staging/label/Ubuntu14.04x64-mingw32/gcc-build/avr/avr5/libgcc/../../../../gcc/libgcc/config/avr/lib1funcs.S:1665
    3486:	69 f7       	brne	.-38     	; 0x3462 <__udivmodsi4_loop>
/home/jenkins-mingw32/workspace/avr-gcc-staging/label/Ubuntu14.04x64-mingw32/gcc-build/avr/avr5/libgcc/../../../../gcc/libgcc/config/avr/lib1funcs.S:1667
    3488:	60 95       	com	r22
/home/jenkins-mingw32/workspace/avr-gcc-staging/label/Ubuntu14.04x64-mingw32/gcc-build/avr/avr5/libgcc/../../../../gcc/libgcc/config/avr/lib1funcs.S:1668
    348a:	70 95       	com	r23
/home/jenkins-mingw32/workspace/avr-gcc-staging/label/Ubuntu14.04x64-mingw32/gcc-build/avr/avr5/libgcc/../../../../gcc/libgcc/config/avr/lib1funcs.S:1669
    348c:	80 95       	com	r24
/home/jenkins-mingw32/workspace/avr-gcc-staging/label/Ubuntu14.04x64-mingw32/gcc-build/avr/avr5/libgcc/../../../../gcc/libgcc/config/avr/lib1funcs.S:1670
    348e:	90 95       	com	r25
/home/jenkins-mingw32/workspace/avr-gcc-staging/label/Ubuntu14.04x64-mingw32/gcc-build/avr/avr5/libgcc/../../../../gcc/libgcc/config/avr/lib1funcs.S:1672
    3490:	9b 01       	movw	r18, r22
/home/jenkins-mingw32/workspace/avr-gcc-staging/label/Ubuntu14.04x64-mingw32/gcc-build/avr/avr5/libgcc/../../../../gcc/libgcc/config/avr/lib1funcs.S:1674
    3492:	ac 01       	movw	r20, r24
/home/jenkins-mingw32/workspace/avr-gcc-staging/label/Ubuntu14.04x64-mingw32/gcc-build/avr/avr5/libgcc/../../../../gcc/libgcc/config/avr/lib1funcs.S:1676
    3494:	bd 01       	movw	r22, r26
/home/jenkins-mingw32/workspace/avr-gcc-staging/label/Ubuntu14.04x64-mingw32/gcc-build/avr/avr5/libgcc/../../../../gcc/libgcc/config/avr/lib1funcs.S:1678
    3496:	cf 01       	movw	r24, r30
/home/jenkins-mingw32/workspace/avr-gcc-staging/label/Ubuntu14.04x64-mingw32/gcc-build/avr/avr5/libgcc/../../../../gcc/libgcc/config/avr/lib1funcs.S:1680
    3498:	08 95       	ret

0000349a <__umulhisi3>:
__umulhisi3():
/home/jenkins-mingw32/workspace/avr-gcc-staging/label/Ubuntu14.04x64-mingw32/gcc-build/avr/avr5/libgcc/../../../../gcc/libgcc/config/avr/lib1funcs.S:564
    349a:	a2 9f       	mul	r26, r18
/home/jenkins-mingw32/workspace/avr-gcc-staging/label/Ubuntu14.04x64-mingw32/gcc-build/avr/avr5/libgcc/../../../../gcc/libgcc/config/avr/lib1funcs.S:565
    349c:	b0 01       	movw	r22, r0
/home/jenkins-mingw32/workspace/avr-gcc-staging/label/Ubuntu14.04x64-mingw32/gcc-build/avr/avr5/libgcc/../../../../gcc/libgcc/config/avr/lib1funcs.S:566
    349e:	b3 9f       	mul	r27, r19
/home/jenkins-mingw32/workspace/avr-gcc-staging/label/Ubuntu14.04x64-mingw32/gcc-build/avr/avr5/libgcc/../../../../gcc/libgcc/config/avr/lib1funcs.S:567
    34a0:	c0 01       	movw	r24, r0
/home/jenkins-mingw32/workspace/avr-gcc-staging/label/Ubuntu14.04x64-mingw32/gcc-build/avr/avr5/libgcc/../../../../gcc/libgcc/config/avr/lib1funcs.S:568
    34a2:	a3 9f       	mul	r26, r19
/home/jenkins-mingw32/workspace/avr-gcc-staging/label/Ubuntu14.04x64-mingw32/gcc-build/avr/avr5/libgcc/../../../../gcc/libgcc/config/avr/lib1funcs.S:573
    34a4:	70 0d       	add	r23, r0
/home/jenkins-mingw32/workspace/avr-gcc-staging/label/Ubuntu14.04x64-mingw32/gcc-build/avr/avr5/libgcc/../../../../gcc/libgcc/config/avr/lib1funcs.S:574
    34a6:	81 1d       	adc	r24, r1
/home/jenkins-mingw32/workspace/avr-gcc-staging/label/Ubuntu14.04x64-mingw32/gcc-build/avr/avr5/libgcc/../../../../gcc/libgcc/config/avr/lib1funcs.S:575
    34a8:	11 24       	eor	r1, r1
/home/jenkins-mingw32/workspace/avr-gcc-staging/label/Ubuntu14.04x64-mingw32/gcc-build/avr/avr5/libgcc/../../../../gcc/libgcc/config/avr/lib1funcs.S:576
    34aa:	91 1d       	adc	r25, r1
/home/jenkins-mingw32/workspace/avr-gcc-staging/label/Ubuntu14.04x64-mingw32/gcc-build/avr/avr5/libgcc/../../../../gcc/libgcc/config/avr/lib1funcs.S:580
    34ac:	b2 9f       	mul	r27, r18
/home/jenkins-mingw32/workspace/avr-gcc-staging/label/Ubuntu14.04x64-mingw32/gcc-build/avr/avr5/libgcc/../../../../gcc/libgcc/config/avr/lib1funcs.S:581
    34ae:	70 0d       	add	r23, r0
/home/jenkins-mingw32/workspace/avr-gcc-staging/label/Ubuntu14.04x64-mingw32/gcc-build/avr/avr5/libgcc/../../../../gcc/libgcc/config/avr/lib1funcs.S:582
    34b0:	81 1d       	adc	r24, r1
/home/jenkins-mingw32/workspace/avr-gcc-staging/label/Ubuntu14.04x64-mingw32/gcc-build/avr/avr5/libgcc/../../../../gcc/libgcc/config/avr/lib1funcs.S:583
    34b2:	11 24       	eor	r1, r1
/home/jenkins-mingw32/workspace/avr-gcc-staging/label/Ubuntu14.04x64-mingw32/gcc-build/avr/avr5/libgcc/../../../../gcc/libgcc/config/avr/lib1funcs.S:584
    34b4:	91 1d       	adc	r25, r1
/home/jenkins-mingw32/workspace/avr-gcc-staging/label/Ubuntu14.04x64-mingw32/gcc-build/avr/avr5/libgcc/../../../../gcc/libgcc/config/avr/lib1funcs.S:585
    34b6:	08 95       	ret

000034b8 <__mulsi3>:
__mulsi3():
/home/jenkins-mingw32/workspace/avr-gcc-staging/label/Ubuntu14.04x64-mingw32/gcc-build/avr/avr5/libgcc/../../../../gcc/libgcc/config/avr/lib1funcs.S:648
    34b8:	db 01       	movw	r26, r22
/home/jenkins-mingw32/workspace/avr-gcc-staging/label/Ubuntu14.04x64-mingw32/gcc-build/avr/avr5/libgcc/../../../../gcc/libgcc/config/avr/lib1funcs.S:649
    34ba:	8f 93       	push	r24
/home/jenkins-mingw32/workspace/avr-gcc-staging/label/Ubuntu14.04x64-mingw32/gcc-build/avr/avr5/libgcc/../../../../gcc/libgcc/config/avr/lib1funcs.S:650
    34bc:	9f 93       	push	r25
/home/jenkins-mingw32/workspace/avr-gcc-staging/label/Ubuntu14.04x64-mingw32/gcc-build/avr/avr5/libgcc/../../../../gcc/libgcc/config/avr/lib1funcs.S:651
    34be:	0e 94 20 1a 	call	0x3440	; 0x3440 <__muluhisi3>
/home/jenkins-mingw32/workspace/avr-gcc-staging/label/Ubuntu14.04x64-mingw32/gcc-build/avr/avr5/libgcc/../../../../gcc/libgcc/config/avr/lib1funcs.S:652
    34c2:	bf 91       	pop	r27
/home/jenkins-mingw32/workspace/avr-gcc-staging/label/Ubuntu14.04x64-mingw32/gcc-build/avr/avr5/libgcc/../../../../gcc/libgcc/config/avr/lib1funcs.S:653
    34c4:	af 91       	pop	r26
/home/jenkins-mingw32/workspace/avr-gcc-staging/label/Ubuntu14.04x64-mingw32/gcc-build/avr/avr5/libgcc/../../../../gcc/libgcc/config/avr/lib1funcs.S:655
    34c6:	a2 9f       	mul	r26, r18
/home/jenkins-mingw32/workspace/avr-gcc-staging/label/Ubuntu14.04x64-mingw32/gcc-build/avr/avr5/libgcc/../../../../gcc/libgcc/config/avr/lib1funcs.S:656
    34c8:	80 0d       	add	r24, r0
/home/jenkins-mingw32/workspace/avr-gcc-staging/label/Ubuntu14.04x64-mingw32/gcc-build/avr/avr5/libgcc/../../../../gcc/libgcc/config/avr/lib1funcs.S:657
    34ca:	91 1d       	adc	r25, r1
/home/jenkins-mingw32/workspace/avr-gcc-staging/label/Ubuntu14.04x64-mingw32/gcc-build/avr/avr5/libgcc/../../../../gcc/libgcc/config/avr/lib1funcs.S:658
    34cc:	a3 9f       	mul	r26, r19
/home/jenkins-mingw32/workspace/avr-gcc-staging/label/Ubuntu14.04x64-mingw32/gcc-build/avr/avr5/libgcc/../../../../gcc/libgcc/config/avr/lib1funcs.S:659
    34ce:	90 0d       	add	r25, r0
/home/jenkins-mingw32/workspace/avr-gcc-staging/label/Ubuntu14.04x64-mingw32/gcc-build/avr/avr5/libgcc/../../../../gcc/libgcc/config/avr/lib1funcs.S:660
    34d0:	b2 9f       	mul	r27, r18
/home/jenkins-mingw32/workspace/avr-gcc-staging/label/Ubuntu14.04x64-mingw32/gcc-build/avr/avr5/libgcc/../../../../gcc/libgcc/config/avr/lib1funcs.S:661
    34d2:	90 0d       	add	r25, r0
/home/jenkins-mingw32/workspace/avr-gcc-staging/label/Ubuntu14.04x64-mingw32/gcc-build/avr/avr5/libgcc/../../../../gcc/libgcc/config/avr/lib1funcs.S:662
    34d4:	11 24       	eor	r1, r1
/home/jenkins-mingw32/workspace/avr-gcc-staging/label/Ubuntu14.04x64-mingw32/gcc-build/avr/avr5/libgcc/../../../../gcc/libgcc/config/avr/lib1funcs.S:663
    34d6:	08 95       	ret

000034d8 <__tablejump2__>:
__tablejump2__():
/home/jenkins-mingw32/workspace/avr-gcc-staging/label/Ubuntu14.04x64-mingw32/gcc-build/avr/avr5/libgcc/../../../../gcc/libgcc/config/avr/lib1funcs.S:2296
    34d8:	ee 0f       	add	r30, r30
/home/jenkins-mingw32/workspace/avr-gcc-staging/label/Ubuntu14.04x64-mingw32/gcc-build/avr/avr5/libgcc/../../../../gcc/libgcc/config/avr/lib1funcs.S:2297
    34da:	ff 1f       	adc	r31, r31
/home/jenkins-mingw32/workspace/avr-gcc-staging/label/Ubuntu14.04x64-mingw32/gcc-build/avr/avr5/libgcc/../../../../gcc/libgcc/config/avr/lib1funcs.S:2328
    34dc:	05 90       	lpm	r0, Z+
/home/jenkins-mingw32/workspace/avr-gcc-staging/label/Ubuntu14.04x64-mingw32/gcc-build/avr/avr5/libgcc/../../../../gcc/libgcc/config/avr/lib1funcs.S:2329
    34de:	f4 91       	lpm	r31, Z
/home/jenkins-mingw32/workspace/avr-gcc-staging/label/Ubuntu14.04x64-mingw32/gcc-build/avr/avr5/libgcc/../../../../gcc/libgcc/config/avr/lib1funcs.S:2330
    34e0:	e0 2d       	mov	r30, r0
/home/jenkins-mingw32/workspace/avr-gcc-staging/label/Ubuntu14.04x64-mingw32/gcc-build/avr/avr5/libgcc/../../../../gcc/libgcc/config/avr/lib1funcs.S:2331
    34e2:	09 94       	ijmp

000034e4 <malloc>:
malloc():
    34e4:	0f 93       	push	r16
    34e6:	1f 93       	push	r17
    34e8:	cf 93       	push	r28
    34ea:	df 93       	push	r29
    34ec:	82 30       	cpi	r24, 0x02	; 2
    34ee:	91 05       	cpc	r25, r1
    34f0:	10 f4       	brcc	.+4      	; 0x34f6 <malloc+0x12>
    34f2:	82 e0       	ldi	r24, 0x02	; 2
    34f4:	90 e0       	ldi	r25, 0x00	; 0
    34f6:	e0 91 f0 02 	lds	r30, 0x02F0	; 0x8002f0 <__flp>
    34fa:	f0 91 f1 02 	lds	r31, 0x02F1	; 0x8002f1 <__flp+0x1>
    34fe:	30 e0       	ldi	r19, 0x00	; 0
    3500:	20 e0       	ldi	r18, 0x00	; 0
    3502:	b0 e0       	ldi	r27, 0x00	; 0
    3504:	a0 e0       	ldi	r26, 0x00	; 0
    3506:	30 97       	sbiw	r30, 0x00	; 0
    3508:	99 f4       	brne	.+38     	; 0x3530 <malloc+0x4c>
    350a:	21 15       	cp	r18, r1
    350c:	31 05       	cpc	r19, r1
    350e:	09 f4       	brne	.+2      	; 0x3512 <malloc+0x2e>
    3510:	4a c0       	rjmp	.+148    	; 0x35a6 <malloc+0xc2>
    3512:	28 1b       	sub	r18, r24
    3514:	39 0b       	sbc	r19, r25
    3516:	24 30       	cpi	r18, 0x04	; 4
    3518:	31 05       	cpc	r19, r1
    351a:	d8 f5       	brcc	.+118    	; 0x3592 <malloc+0xae>
    351c:	8a 81       	ldd	r24, Y+2	; 0x02
    351e:	9b 81       	ldd	r25, Y+3	; 0x03
    3520:	61 15       	cp	r22, r1
    3522:	71 05       	cpc	r23, r1
    3524:	89 f1       	breq	.+98     	; 0x3588 <malloc+0xa4>
    3526:	fb 01       	movw	r30, r22
    3528:	93 83       	std	Z+3, r25	; 0x03
    352a:	82 83       	std	Z+2, r24	; 0x02
    352c:	fe 01       	movw	r30, r28
    352e:	11 c0       	rjmp	.+34     	; 0x3552 <malloc+0x6e>
    3530:	40 81       	ld	r20, Z
    3532:	51 81       	ldd	r21, Z+1	; 0x01
    3534:	02 81       	ldd	r16, Z+2	; 0x02
    3536:	13 81       	ldd	r17, Z+3	; 0x03
    3538:	48 17       	cp	r20, r24
    353a:	59 07       	cpc	r21, r25
    353c:	e0 f0       	brcs	.+56     	; 0x3576 <malloc+0x92>
    353e:	48 17       	cp	r20, r24
    3540:	59 07       	cpc	r21, r25
    3542:	99 f4       	brne	.+38     	; 0x356a <malloc+0x86>
    3544:	10 97       	sbiw	r26, 0x00	; 0
    3546:	61 f0       	breq	.+24     	; 0x3560 <malloc+0x7c>
    3548:	12 96       	adiw	r26, 0x02	; 2
    354a:	0c 93       	st	X, r16
    354c:	12 97       	sbiw	r26, 0x02	; 2
    354e:	13 96       	adiw	r26, 0x03	; 3
    3550:	1c 93       	st	X, r17
    3552:	32 96       	adiw	r30, 0x02	; 2
    3554:	cf 01       	movw	r24, r30
    3556:	df 91       	pop	r29
    3558:	cf 91       	pop	r28
    355a:	1f 91       	pop	r17
    355c:	0f 91       	pop	r16
    355e:	08 95       	ret
    3560:	00 93 f0 02 	sts	0x02F0, r16	; 0x8002f0 <__flp>
    3564:	10 93 f1 02 	sts	0x02F1, r17	; 0x8002f1 <__flp+0x1>
    3568:	f4 cf       	rjmp	.-24     	; 0x3552 <malloc+0x6e>
    356a:	21 15       	cp	r18, r1
    356c:	31 05       	cpc	r19, r1
    356e:	51 f0       	breq	.+20     	; 0x3584 <malloc+0xa0>
    3570:	42 17       	cp	r20, r18
    3572:	53 07       	cpc	r21, r19
    3574:	38 f0       	brcs	.+14     	; 0x3584 <malloc+0xa0>
    3576:	a9 01       	movw	r20, r18
    3578:	db 01       	movw	r26, r22
    357a:	9a 01       	movw	r18, r20
    357c:	bd 01       	movw	r22, r26
    357e:	df 01       	movw	r26, r30
    3580:	f8 01       	movw	r30, r16
    3582:	c1 cf       	rjmp	.-126    	; 0x3506 <malloc+0x22>
    3584:	ef 01       	movw	r28, r30
    3586:	f9 cf       	rjmp	.-14     	; 0x357a <malloc+0x96>
    3588:	90 93 f1 02 	sts	0x02F1, r25	; 0x8002f1 <__flp+0x1>
    358c:	80 93 f0 02 	sts	0x02F0, r24	; 0x8002f0 <__flp>
    3590:	cd cf       	rjmp	.-102    	; 0x352c <malloc+0x48>
    3592:	fe 01       	movw	r30, r28
    3594:	e2 0f       	add	r30, r18
    3596:	f3 1f       	adc	r31, r19
    3598:	81 93       	st	Z+, r24
    359a:	91 93       	st	Z+, r25
    359c:	22 50       	subi	r18, 0x02	; 2
    359e:	31 09       	sbc	r19, r1
    35a0:	39 83       	std	Y+1, r19	; 0x01
    35a2:	28 83       	st	Y, r18
    35a4:	d7 cf       	rjmp	.-82     	; 0x3554 <malloc+0x70>
    35a6:	20 91 ee 02 	lds	r18, 0x02EE	; 0x8002ee <__brkval>
    35aa:	30 91 ef 02 	lds	r19, 0x02EF	; 0x8002ef <__brkval+0x1>
    35ae:	23 2b       	or	r18, r19
    35b0:	41 f4       	brne	.+16     	; 0x35c2 <malloc+0xde>
    35b2:	20 91 03 01 	lds	r18, 0x0103	; 0x800103 <__malloc_heap_start>
    35b6:	30 91 04 01 	lds	r19, 0x0104	; 0x800104 <__malloc_heap_start+0x1>
    35ba:	30 93 ef 02 	sts	0x02EF, r19	; 0x8002ef <__brkval+0x1>
    35be:	20 93 ee 02 	sts	0x02EE, r18	; 0x8002ee <__brkval>
    35c2:	20 91 01 01 	lds	r18, 0x0101	; 0x800101 <__malloc_heap_end>
    35c6:	30 91 02 01 	lds	r19, 0x0102	; 0x800102 <__malloc_heap_end+0x1>
    35ca:	21 15       	cp	r18, r1
    35cc:	31 05       	cpc	r19, r1
    35ce:	41 f4       	brne	.+16     	; 0x35e0 <malloc+0xfc>
    35d0:	2d b7       	in	r18, 0x3d	; 61
    35d2:	3e b7       	in	r19, 0x3e	; 62
    35d4:	40 91 05 01 	lds	r20, 0x0105	; 0x800105 <__malloc_margin>
    35d8:	50 91 06 01 	lds	r21, 0x0106	; 0x800106 <__malloc_margin+0x1>
    35dc:	24 1b       	sub	r18, r20
    35de:	35 0b       	sbc	r19, r21
    35e0:	e0 91 ee 02 	lds	r30, 0x02EE	; 0x8002ee <__brkval>
    35e4:	f0 91 ef 02 	lds	r31, 0x02EF	; 0x8002ef <__brkval+0x1>
    35e8:	e2 17       	cp	r30, r18
    35ea:	f3 07       	cpc	r31, r19
    35ec:	a0 f4       	brcc	.+40     	; 0x3616 <malloc+0x132>
    35ee:	2e 1b       	sub	r18, r30
    35f0:	3f 0b       	sbc	r19, r31
    35f2:	28 17       	cp	r18, r24
    35f4:	39 07       	cpc	r19, r25
    35f6:	78 f0       	brcs	.+30     	; 0x3616 <malloc+0x132>
    35f8:	ac 01       	movw	r20, r24
    35fa:	4e 5f       	subi	r20, 0xFE	; 254
    35fc:	5f 4f       	sbci	r21, 0xFF	; 255
    35fe:	24 17       	cp	r18, r20
    3600:	35 07       	cpc	r19, r21
    3602:	48 f0       	brcs	.+18     	; 0x3616 <malloc+0x132>
    3604:	4e 0f       	add	r20, r30
    3606:	5f 1f       	adc	r21, r31
    3608:	50 93 ef 02 	sts	0x02EF, r21	; 0x8002ef <__brkval+0x1>
    360c:	40 93 ee 02 	sts	0x02EE, r20	; 0x8002ee <__brkval>
    3610:	81 93       	st	Z+, r24
    3612:	91 93       	st	Z+, r25
    3614:	9f cf       	rjmp	.-194    	; 0x3554 <malloc+0x70>
    3616:	f0 e0       	ldi	r31, 0x00	; 0
    3618:	e0 e0       	ldi	r30, 0x00	; 0
    361a:	9c cf       	rjmp	.-200    	; 0x3554 <malloc+0x70>

0000361c <free>:
free():
    361c:	cf 93       	push	r28
    361e:	df 93       	push	r29
    3620:	00 97       	sbiw	r24, 0x00	; 0
    3622:	e9 f0       	breq	.+58     	; 0x365e <free+0x42>
    3624:	fc 01       	movw	r30, r24
    3626:	32 97       	sbiw	r30, 0x02	; 2
    3628:	13 82       	std	Z+3, r1	; 0x03
    362a:	12 82       	std	Z+2, r1	; 0x02
    362c:	a0 91 f0 02 	lds	r26, 0x02F0	; 0x8002f0 <__flp>
    3630:	b0 91 f1 02 	lds	r27, 0x02F1	; 0x8002f1 <__flp+0x1>
    3634:	ed 01       	movw	r28, r26
    3636:	30 e0       	ldi	r19, 0x00	; 0
    3638:	20 e0       	ldi	r18, 0x00	; 0
    363a:	10 97       	sbiw	r26, 0x00	; 0
    363c:	a1 f4       	brne	.+40     	; 0x3666 <free+0x4a>
    363e:	20 81       	ld	r18, Z
    3640:	31 81       	ldd	r19, Z+1	; 0x01
    3642:	82 0f       	add	r24, r18
    3644:	93 1f       	adc	r25, r19
    3646:	20 91 ee 02 	lds	r18, 0x02EE	; 0x8002ee <__brkval>
    364a:	30 91 ef 02 	lds	r19, 0x02EF	; 0x8002ef <__brkval+0x1>
    364e:	28 17       	cp	r18, r24
    3650:	39 07       	cpc	r19, r25
    3652:	09 f0       	breq	.+2      	; 0x3656 <free+0x3a>
    3654:	61 c0       	rjmp	.+194    	; 0x3718 <free+0xfc>
    3656:	f0 93 ef 02 	sts	0x02EF, r31	; 0x8002ef <__brkval+0x1>
    365a:	e0 93 ee 02 	sts	0x02EE, r30	; 0x8002ee <__brkval>
    365e:	df 91       	pop	r29
    3660:	cf 91       	pop	r28
    3662:	08 95       	ret
    3664:	ea 01       	movw	r28, r20
    3666:	ce 17       	cp	r28, r30
    3668:	df 07       	cpc	r29, r31
    366a:	e8 f5       	brcc	.+122    	; 0x36e6 <free+0xca>
    366c:	4a 81       	ldd	r20, Y+2	; 0x02
    366e:	5b 81       	ldd	r21, Y+3	; 0x03
    3670:	9e 01       	movw	r18, r28
    3672:	41 15       	cp	r20, r1
    3674:	51 05       	cpc	r21, r1
    3676:	b1 f7       	brne	.-20     	; 0x3664 <free+0x48>
    3678:	e9 01       	movw	r28, r18
    367a:	fb 83       	std	Y+3, r31	; 0x03
    367c:	ea 83       	std	Y+2, r30	; 0x02
    367e:	49 91       	ld	r20, Y+
    3680:	59 91       	ld	r21, Y+
    3682:	c4 0f       	add	r28, r20
    3684:	d5 1f       	adc	r29, r21
    3686:	ec 17       	cp	r30, r28
    3688:	fd 07       	cpc	r31, r29
    368a:	61 f4       	brne	.+24     	; 0x36a4 <free+0x88>
    368c:	80 81       	ld	r24, Z
    368e:	91 81       	ldd	r25, Z+1	; 0x01
    3690:	02 96       	adiw	r24, 0x02	; 2
    3692:	84 0f       	add	r24, r20
    3694:	95 1f       	adc	r25, r21
    3696:	e9 01       	movw	r28, r18
    3698:	99 83       	std	Y+1, r25	; 0x01
    369a:	88 83       	st	Y, r24
    369c:	82 81       	ldd	r24, Z+2	; 0x02
    369e:	93 81       	ldd	r25, Z+3	; 0x03
    36a0:	9b 83       	std	Y+3, r25	; 0x03
    36a2:	8a 83       	std	Y+2, r24	; 0x02
    36a4:	f0 e0       	ldi	r31, 0x00	; 0
    36a6:	e0 e0       	ldi	r30, 0x00	; 0
    36a8:	12 96       	adiw	r26, 0x02	; 2
    36aa:	8d 91       	ld	r24, X+
    36ac:	9c 91       	ld	r25, X
    36ae:	13 97       	sbiw	r26, 0x03	; 3
    36b0:	00 97       	sbiw	r24, 0x00	; 0
    36b2:	b9 f5       	brne	.+110    	; 0x3722 <free+0x106>
    36b4:	2d 91       	ld	r18, X+
    36b6:	3c 91       	ld	r19, X
    36b8:	11 97       	sbiw	r26, 0x01	; 1
    36ba:	cd 01       	movw	r24, r26
    36bc:	02 96       	adiw	r24, 0x02	; 2
    36be:	82 0f       	add	r24, r18
    36c0:	93 1f       	adc	r25, r19
    36c2:	20 91 ee 02 	lds	r18, 0x02EE	; 0x8002ee <__brkval>
    36c6:	30 91 ef 02 	lds	r19, 0x02EF	; 0x8002ef <__brkval+0x1>
    36ca:	28 17       	cp	r18, r24
    36cc:	39 07       	cpc	r19, r25
    36ce:	39 f6       	brne	.-114    	; 0x365e <free+0x42>
    36d0:	30 97       	sbiw	r30, 0x00	; 0
    36d2:	51 f5       	brne	.+84     	; 0x3728 <free+0x10c>
    36d4:	10 92 f1 02 	sts	0x02F1, r1	; 0x8002f1 <__flp+0x1>
    36d8:	10 92 f0 02 	sts	0x02F0, r1	; 0x8002f0 <__flp>
    36dc:	b0 93 ef 02 	sts	0x02EF, r27	; 0x8002ef <__brkval+0x1>
    36e0:	a0 93 ee 02 	sts	0x02EE, r26	; 0x8002ee <__brkval>
    36e4:	bc cf       	rjmp	.-136    	; 0x365e <free+0x42>
    36e6:	d3 83       	std	Z+3, r29	; 0x03
    36e8:	c2 83       	std	Z+2, r28	; 0x02
    36ea:	40 81       	ld	r20, Z
    36ec:	51 81       	ldd	r21, Z+1	; 0x01
    36ee:	84 0f       	add	r24, r20
    36f0:	95 1f       	adc	r25, r21
    36f2:	c8 17       	cp	r28, r24
    36f4:	d9 07       	cpc	r29, r25
    36f6:	61 f4       	brne	.+24     	; 0x3710 <free+0xf4>
    36f8:	4e 5f       	subi	r20, 0xFE	; 254
    36fa:	5f 4f       	sbci	r21, 0xFF	; 255
    36fc:	88 81       	ld	r24, Y
    36fe:	99 81       	ldd	r25, Y+1	; 0x01
    3700:	48 0f       	add	r20, r24
    3702:	59 1f       	adc	r21, r25
    3704:	51 83       	std	Z+1, r21	; 0x01
    3706:	40 83       	st	Z, r20
    3708:	8a 81       	ldd	r24, Y+2	; 0x02
    370a:	9b 81       	ldd	r25, Y+3	; 0x03
    370c:	93 83       	std	Z+3, r25	; 0x03
    370e:	82 83       	std	Z+2, r24	; 0x02
    3710:	21 15       	cp	r18, r1
    3712:	31 05       	cpc	r19, r1
    3714:	09 f0       	breq	.+2      	; 0x3718 <free+0xfc>
    3716:	b0 cf       	rjmp	.-160    	; 0x3678 <free+0x5c>
    3718:	f0 93 f1 02 	sts	0x02F1, r31	; 0x8002f1 <__flp+0x1>
    371c:	e0 93 f0 02 	sts	0x02F0, r30	; 0x8002f0 <__flp>
    3720:	9e cf       	rjmp	.-196    	; 0x365e <free+0x42>
    3722:	fd 01       	movw	r30, r26
    3724:	dc 01       	movw	r26, r24
    3726:	c0 cf       	rjmp	.-128    	; 0x36a8 <free+0x8c>
    3728:	13 82       	std	Z+3, r1	; 0x03
    372a:	12 82       	std	Z+2, r1	; 0x02
    372c:	d7 cf       	rjmp	.-82     	; 0x36dc <free+0xc0>

0000372e <memcpy>:
memcpy():
    372e:	fb 01       	movw	r30, r22
    3730:	dc 01       	movw	r26, r24
    3732:	02 c0       	rjmp	.+4      	; 0x3738 <memcpy+0xa>
    3734:	01 90       	ld	r0, Z+
    3736:	0d 92       	st	X+, r0
    3738:	41 50       	subi	r20, 0x01	; 1
    373a:	50 40       	sbci	r21, 0x00	; 0
    373c:	d8 f7       	brcc	.-10     	; 0x3734 <memcpy+0x6>
    373e:	08 95       	ret

00003740 <__do_global_dtors>:
__do_global_dtors():
/home/jenkins-mingw32/workspace/avr-gcc-staging/label/Ubuntu14.04x64-mingw32/gcc-build/avr/avr5/libgcc/../../../../gcc/libgcc/config/avr/lib1funcs.S:2496
    3740:	13 e0       	ldi	r17, 0x03	; 3
/home/jenkins-mingw32/workspace/avr-gcc-staging/label/Ubuntu14.04x64-mingw32/gcc-build/avr/avr5/libgcc/../../../../gcc/libgcc/config/avr/lib1funcs.S:2497
    3742:	c8 e0       	ldi	r28, 0x08	; 8
/home/jenkins-mingw32/workspace/avr-gcc-staging/label/Ubuntu14.04x64-mingw32/gcc-build/avr/avr5/libgcc/../../../../gcc/libgcc/config/avr/lib1funcs.S:2498
    3744:	d3 e0       	ldi	r29, 0x03	; 3
/home/jenkins-mingw32/workspace/avr-gcc-staging/label/Ubuntu14.04x64-mingw32/gcc-build/avr/avr5/libgcc/../../../../gcc/libgcc/config/avr/lib1funcs.S:2502
    3746:	04 c0       	rjmp	.+8      	; 0x3750 <__do_global_dtors+0x10>
/home/jenkins-mingw32/workspace/avr-gcc-staging/label/Ubuntu14.04x64-mingw32/gcc-build/avr/avr5/libgcc/../../../../gcc/libgcc/config/avr/lib1funcs.S:2508
    3748:	fe 01       	movw	r30, r28
/home/jenkins-mingw32/workspace/avr-gcc-staging/label/Ubuntu14.04x64-mingw32/gcc-build/avr/avr5/libgcc/../../../../gcc/libgcc/config/avr/lib1funcs.S:2509
    374a:	0e 94 6c 1a 	call	0x34d8	; 0x34d8 <__tablejump2__>
/home/jenkins-mingw32/workspace/avr-gcc-staging/label/Ubuntu14.04x64-mingw32/gcc-build/avr/avr5/libgcc/../../../../gcc/libgcc/config/avr/lib1funcs.S:2510
    374e:	21 96       	adiw	r28, 0x01	; 1
/home/jenkins-mingw32/workspace/avr-gcc-staging/label/Ubuntu14.04x64-mingw32/gcc-build/avr/avr5/libgcc/../../../../gcc/libgcc/config/avr/lib1funcs.S:2515
    3750:	c9 30       	cpi	r28, 0x09	; 9
/home/jenkins-mingw32/workspace/avr-gcc-staging/label/Ubuntu14.04x64-mingw32/gcc-build/avr/avr5/libgcc/../../../../gcc/libgcc/config/avr/lib1funcs.S:2516
    3752:	d1 07       	cpc	r29, r17
/home/jenkins-mingw32/workspace/avr-gcc-staging/label/Ubuntu14.04x64-mingw32/gcc-build/avr/avr5/libgcc/../../../../gcc/libgcc/config/avr/lib1funcs.S:2521
    3754:	c9 f7       	brne	.-14     	; 0x3748 <__do_global_dtors+0x8>
/home/jenkins-mingw32/workspace/avr-gcc-staging/label/Ubuntu14.04x64-mingw32/gcc-build/avr/avr5/libgcc/../../../../gcc/libgcc/config/avr/lib1funcs.S:2278
    3756:	f8 94       	cli

00003758 <__stop_program>:
__stop_program():
/home/jenkins-mingw32/workspace/avr-gcc-staging/label/Ubuntu14.04x64-mingw32/gcc-build/avr/avr5/libgcc/../../../../gcc/libgcc/config/avr/lib1funcs.S:2280
    3758:	ff cf       	rjmp	.-2      	; 0x3758 <__stop_program>
